	.text
	.def	@feat.00;
	.scl	3;
	.type	0;
	.endef
	.globl	@feat.00
.set @feat.00, 0
	.file	"g5t8t6abnqpyeru"
	.def	_ZN106_$LT$core..ops..range..Range$LT$usize$GT$$u20$as$u20$core..slice..index..SliceIndex$LT$$u5b$T$u5d$$GT$$GT$5index17h7bcfdb7ad42d42e0E;
	.scl	3;
	.type	32;
	.endef
	.section	.text,"xr",one_only,_ZN106_$LT$core..ops..range..Range$LT$usize$GT$$u20$as$u20$core..slice..index..SliceIndex$LT$$u5b$T$u5d$$GT$$GT$5index17h7bcfdb7ad42d42e0E
	.p2align	4, 0x90
_ZN106_$LT$core..ops..range..Range$LT$usize$GT$$u20$as$u20$core..slice..index..SliceIndex$LT$$u5b$T$u5d$$GT$$GT$5index17h7bcfdb7ad42d42e0E:
.Lfunc_begin0:
	.cv_func_id 0
	.cv_file	1 "/rustc/5680fa18feaa87f3ff04063800aec256c3d4b4be\\library\\core\\src\\slice\\index.rs" "90E9E621EBC533E07D2103B7A64DA36E2271DAD5" 2
	.cv_loc	0 1 407 0
.seh_proc _ZN106_$LT$core..ops..range..Range$LT$usize$GT$$u20$as$u20$core..slice..index..SliceIndex$LT$$u5b$T$u5d$$GT$$GT$5index17h7bcfdb7ad42d42e0E
	subq	$200, %rsp
	.seh_stackalloc 200
	.seh_endprologue
	movq	%r9, 40(%rsp)
	movq	%r8, 48(%rsp)
	movq	%rdx, 56(%rsp)
	movq	%rcx, 64(%rsp)
	movq	240(%rsp), %rax
	movq	%rax, 72(%rsp)
	movq	%rcx, 112(%rsp)
	movq	%rdx, 120(%rsp)
	movq	%r8, 128(%rsp)
	movq	%r9, 136(%rsp)
.Ltmp0:
	.cv_loc	0 1 408 0
	cmpq	%rdx, %rcx
	ja	.LBB0_2
	.cv_loc	0 1 410 0
	movq	56(%rsp), %rax
	movq	40(%rsp), %rcx
	cmpq	%rcx, %rax
	ja	.LBB0_4
	jmp	.LBB0_3
.LBB0_2:
	.cv_loc	0 1 409 0
	movq	72(%rsp), %r8
	movq	56(%rsp), %rdx
	movq	64(%rsp), %rcx
	callq	_ZN4core5slice5index22slice_index_order_fail17h946c99ba185e3e15E
	ud2
.LBB0_3:
	.cv_loc	0 1 414 0
	movq	64(%rsp), %rdx
	movq	48(%rsp), %rcx
	movq	56(%rsp), %rax
	movq	40(%rsp), %r8
	movq	%rcx, 144(%rsp)
	movq	%r8, 152(%rsp)
.Ltmp1:
	.cv_inline_site_id 1 within 0 inlined_at 1 414 0
	.cv_loc	1 1 386 0
	subq	%rdx, %rax
	movq	%rax, 160(%rsp)
.Ltmp2:
	.cv_file	2 "/rustc/5680fa18feaa87f3ff04063800aec256c3d4b4be\\library\\core\\src\\ptr\\const_ptr.rs" "597D193CBD3BCA9C1AA3F10BA17E27ADED9585EA" 2
	.cv_inline_site_id 2 within 1 inlined_at 1 387 0
	.cv_loc	2 2 1631 0
	movq	%rcx, 168(%rsp)
.Ltmp3:
	.cv_loc	1 1 387 0
	movq	%rdx, 176(%rsp)
.Ltmp4:
	.cv_loc	2 2 921 0
	addq	%rdx, %rcx
	movq	%rcx, 184(%rsp)
.Ltmp5:
	.cv_file	3 "/rustc/5680fa18feaa87f3ff04063800aec256c3d4b4be\\library\\core\\src\\ptr\\mod.rs" "5AC03A9B6A612EDCA1F0B1C41C219ADE2B1BFA38" 2
	.cv_inline_site_id 3 within 2 inlined_at 3 742 0
	.cv_loc	3 2 59 0
	movq	%rcx, 192(%rsp)
.Ltmp6:
	.cv_file	4 "/rustc/5680fa18feaa87f3ff04063800aec256c3d4b4be\\library\\core\\src\\ptr\\metadata.rs" "1F8A1BF383FB05E794B033A3E2F046F873CFA579" 2
	.cv_loc	3 4 119 0
	movq	%rcx, 96(%rsp)
	movq	%rax, 104(%rsp)
	movq	96(%rsp), %rcx
	movq	104(%rsp), %rax
	movq	%rcx, 80(%rsp)
	movq	%rax, 88(%rsp)
	movq	80(%rsp), %rax
	movq	88(%rsp), %rdx
.Ltmp7:
	.cv_loc	0 1 415 0
	addq	$200, %rsp
	retq
.LBB0_4:
	.cv_loc	0 1 411 0
	movq	72(%rsp), %r8
	movq	40(%rsp), %rdx
	movq	56(%rsp), %rcx
	callq	_ZN4core5slice5index24slice_end_index_len_fail17h6b6d35da8f32d0cbE
	ud2
.Ltmp8:
.Lfunc_end0:
	.seh_endproc

	.def	_ZN108_$LT$core..ops..range..RangeTo$LT$usize$GT$$u20$as$u20$core..slice..index..SliceIndex$LT$$u5b$T$u5d$$GT$$GT$5index17h7ad2b1ec1b2bdaf4E;
	.scl	3;
	.type	32;
	.endef
	.section	.text,"xr",one_only,_ZN108_$LT$core..ops..range..RangeTo$LT$usize$GT$$u20$as$u20$core..slice..index..SliceIndex$LT$$u5b$T$u5d$$GT$$GT$5index17h7ad2b1ec1b2bdaf4E
	.p2align	4, 0x90
_ZN108_$LT$core..ops..range..RangeTo$LT$usize$GT$$u20$as$u20$core..slice..index..SliceIndex$LT$$u5b$T$u5d$$GT$$GT$5index17h7ad2b1ec1b2bdaf4E:
.Lfunc_begin1:
	.cv_func_id 4
	.cv_loc	4 1 457 0
.seh_proc _ZN108_$LT$core..ops..range..RangeTo$LT$usize$GT$$u20$as$u20$core..slice..index..SliceIndex$LT$$u5b$T$u5d$$GT$$GT$5index17h7ad2b1ec1b2bdaf4E
	subq	$88, %rsp
	.seh_stackalloc 88
	.seh_endprologue
	movq	%r9, %r10
	movq	%r8, %r9
	movq	%rdx, %r8
	movq	%rcx, 64(%rsp)
	movq	%r8, 72(%rsp)
	movq	%r9, 80(%rsp)
.Ltmp9:
	.cv_loc	4 1 458 0
	movq	$0, 48(%rsp)
	movq	%rcx, 56(%rsp)
	movq	48(%rsp), %rcx
	movq	56(%rsp), %rdx
	movq	%rsp, %rax
	movq	%r10, 32(%rax)
	callq	_ZN106_$LT$core..ops..range..Range$LT$usize$GT$$u20$as$u20$core..slice..index..SliceIndex$LT$$u5b$T$u5d$$GT$$GT$5index17h7bcfdb7ad42d42e0E
	.cv_loc	4 1 459 0
	nop
	addq	$88, %rsp
	retq
.Ltmp10:
.Lfunc_end1:
	.seh_endproc

	.def	_ZN132_$LT$alloc..vec..Vec$LT$T$C$A$GT$$u20$as$u20$alloc..vec..spec_extend..SpecExtend$LT$$RF$T$C$core..slice..iter..Iter$LT$T$GT$$GT$$GT$11spec_extend17h3a6ba09069e5ebc6E;
	.scl	3;
	.type	32;
	.endef
	.section	.text,"xr",one_only,_ZN132_$LT$alloc..vec..Vec$LT$T$C$A$GT$$u20$as$u20$alloc..vec..spec_extend..SpecExtend$LT$$RF$T$C$core..slice..iter..Iter$LT$T$GT$$GT$$GT$11spec_extend17h3a6ba09069e5ebc6E
	.p2align	4, 0x90
_ZN132_$LT$alloc..vec..Vec$LT$T$C$A$GT$$u20$as$u20$alloc..vec..spec_extend..SpecExtend$LT$$RF$T$C$core..slice..iter..Iter$LT$T$GT$$GT$$GT$11spec_extend17h3a6ba09069e5ebc6E:
.Lfunc_begin2:
	.cv_func_id 5
	.cv_file	5 "/rustc/5680fa18feaa87f3ff04063800aec256c3d4b4be\\library\\alloc\\src\\vec\\spec_extend.rs" "6C18687EF959981915F8789C4056DE3BCF8BFDB9" 2
	.cv_loc	5 5 53 0
.seh_proc _ZN132_$LT$alloc..vec..Vec$LT$T$C$A$GT$$u20$as$u20$alloc..vec..spec_extend..SpecExtend$LT$$RF$T$C$core..slice..iter..Iter$LT$T$GT$$GT$$GT$11spec_extend17h3a6ba09069e5ebc6E
	subq	$344, %rsp
	.seh_stackalloc 344
	.seh_endprologue
	movq	%rcx, 56(%rsp)
	movq	%rdx, 88(%rsp)
	movq	%r8, 96(%rsp)
	movq	%rcx, 104(%rsp)
.Ltmp11:
	.cv_loc	5 5 54 0
	leaq	88(%rsp), %rax
	movq	%rax, 112(%rsp)
.Ltmp12:
	.cv_file	6 "/rustc/5680fa18feaa87f3ff04063800aec256c3d4b4be\\library\\core\\src\\intrinsics.rs" "A2929B803BE4E67AF5DD5CBF9B420DF0C1ADE83D" 2
	.cv_inline_site_id 6 within 5 inlined_at 5 54 0
	.cv_file	7 "/rustc/5680fa18feaa87f3ff04063800aec256c3d4b4be\\library\\core\\src\\slice\\iter.rs" "E6D4AE7A4D9321BC9AB187E913CCBA4CF561D6B7" 2
	.cv_inline_site_id 7 within 6 inlined_at 7 127 0
	.cv_file	8 "/rustc/5680fa18feaa87f3ff04063800aec256c3d4b4be\\library\\core\\src\\slice\\iter\\macros.rs" "4798AE1EADA2A072CE1BD8DBE90CEF567DA53522" 2
	.cv_inline_site_id 8 within 7 inlined_at 8 76 0
	.cv_inline_site_id 9 within 8 inlined_at 6 2536 0
	.cv_file	9 "/rustc/5680fa18feaa87f3ff04063800aec256c3d4b4be\\library\\core\\src\\slice\\raw.rs" "3BC175B8975F1E001A63E292D9CB24050E937D47" 2
	.cv_inline_site_id 10 within 9 inlined_at 9 99 0
	.cv_loc	10 6 2551 0
	movabsq	$9223372036854775807, %rax
	movq	%rax, 224(%rsp)
	leaq	88(%rsp), %rax
	movq	%rax, 280(%rsp)
.Ltmp13:
	.cv_loc	7 8 76 0
	movq	88(%rsp), %rax
	movq	%rax, 64(%rsp)
	movq	%rax, 288(%rsp)
	movq	%rax, 296(%rsp)
	movq	96(%rsp), %rax
	movq	%rax, 72(%rsp)
	movq	%rax, 304(%rsp)
	movq	88(%rsp), %rax
	movq	%rax, 80(%rsp)
	movq	%rax, 312(%rsp)
	movq	%rax, 320(%rsp)
.Ltmp14:
	.cv_file	10 "/rustc/5680fa18feaa87f3ff04063800aec256c3d4b4be\\library\\core\\src\\mem\\mod.rs" "DDBFB36EC19B0C3183F7B96DED48AE51281C4982" 2
	.cv_inline_site_id 11 within 7 inlined_at 8 41 0
	.cv_inline_site_id 12 within 11 inlined_at 2 796 0
	.cv_loc	12 10 313 0
	movq	$1, 328(%rsp)
.Ltmp15:
	.cv_loc	11 2 797 0
	movb	$1, 247(%rsp)
	movb	247(%rsp), %al
	xorb	$-1, %al
	testb	$1, %al
	jne	.LBB2_1
	jmp	.LBB2_2
.LBB2_1:
	leaq	__unnamed_1(%rip), %rcx
	leaq	__unnamed_2(%rip), %r8
	movl	$73, %edx
	callq	_ZN4core9panicking5panic17hd8fd9a7d9b3c9589E
	ud2
.LBB2_2:
	.cv_loc	11 2 799 0
	movq	56(%rsp), %rcx
	movq	64(%rsp), %rax
	movq	80(%rsp), %r8
	movq	72(%rsp), %rdx
	subq	%r8, %rdx
	movq	%rdx, 232(%rsp)
.Ltmp16:
	.cv_inline_site_id 13 within 8 inlined_at 9 101 0
	.cv_inline_site_id 14 within 13 inlined_at 3 742 0
	.cv_loc	14 2 59 0
	movq	%rax, 336(%rsp)
.Ltmp17:
	.cv_loc	14 4 119 0
	movq	%rax, 264(%rsp)
	movq	232(%rsp), %rax
	movq	%rax, 272(%rsp)
	movq	264(%rsp), %rdx
	movq	272(%rsp), %rax
	movq	%rdx, 248(%rsp)
	movq	%rax, 256(%rsp)
	movq	248(%rsp), %rax
	movq	%rax, 40(%rsp)
	movq	256(%rsp), %rdx
	movq	%rdx, 48(%rsp)
.Ltmp18:
	.cv_loc	6 7 127 0
	movq	%rax, 120(%rsp)
	movq	%rdx, 128(%rsp)
.Ltmp19:
	.cv_loc	5 5 55 0
	movq	%rax, 136(%rsp)
	movq	%rdx, 144(%rsp)
.Ltmp20:
	.cv_file	11 "/rustc/5680fa18feaa87f3ff04063800aec256c3d4b4be\\library\\alloc\\src\\vec\\mod.rs" "BD6BC5AA085F9688EF1CF4F10D1A12B7D650CF50" 2
	.cv_inline_site_id 15 within 5 inlined_at 5 55 0
	.cv_loc	15 11 1940 0
	movq	%rdx, 152(%rsp)
.Ltmp21:
	.cv_loc	15 11 1941 0
	callq	_ZN5alloc3vec16Vec$LT$T$C$A$GT$7reserve17hc8467775d7e4f648E
	movq	40(%rsp), %rdx
	movq	48(%rsp), %r8
	movq	56(%rsp), %rcx
	.cv_loc	15 11 1942 0
	movq	%rcx, 160(%rsp)
.Ltmp22:
	.cv_inline_site_id 16 within 15 inlined_at 11 1942 0
	.cv_loc	16 11 2051 0
	movq	16(%rcx), %rax
	movq	%rax, 168(%rsp)
.Ltmp23:
	.cv_loc	15 11 1943 0
	movq	%rdx, 176(%rsp)
.Ltmp24:
	.cv_inline_site_id 17 within 15 inlined_at 11 1943 0
	.cv_loc	17 11 1273 0
	movq	%rcx, 184(%rsp)
.Ltmp25:
	.cv_file	12 "/rustc/5680fa18feaa87f3ff04063800aec256c3d4b4be\\library\\alloc\\src\\raw_vec.rs" "C753A7022FCB714D01DAD2776A3EE445EB87FF27" 2
	.cv_inline_site_id 18 within 17 inlined_at 11 1273 0
	.cv_loc	18 12 223 0
	movq	(%rcx), %rcx
	movq	%rcx, 192(%rsp)
.Ltmp26:
	.cv_file	13 "/rustc/5680fa18feaa87f3ff04063800aec256c3d4b4be\\library\\core\\src\\ptr\\unique.rs" "3EB5582CF1CEE2A86C995AAFAC4B6451955C1E5E" 2
	.cv_inline_site_id 19 within 18 inlined_at 12 223 0
	.cv_loc	19 13 107 0
	movq	%rcx, 200(%rsp)
.Ltmp27:
	.cv_file	14 "/rustc/5680fa18feaa87f3ff04063800aec256c3d4b4be\\library\\core\\src\\ptr\\non_null.rs" "BB966315D4964C3AF250D895D98B7E7A4B6786B5" 2
	.cv_inline_site_id 20 within 19 inlined_at 13 107 0
	.cv_loc	20 14 326 0
	movq	%rcx, 208(%rsp)
.Ltmp28:
	.cv_file	15 "/rustc/5680fa18feaa87f3ff04063800aec256c3d4b4be\\library\\core\\src\\ptr\\mut_ptr.rs" "DCB5809846111B591217499336EA2E9D054418B2" 2
	.cv_loc	17 15 1020 0
	addq	%rax, %rcx
	movq	%rcx, 216(%rsp)
.Ltmp29:
	.cv_loc	17 6 2680 0
	shlq	$0, %r8
	callq	memcpy
	movq	48(%rsp), %rcx
	movq	56(%rsp), %rax
.Ltmp30:
	.cv_loc	15 11 1944 0
	addq	16(%rax), %rcx
	movq	%rcx, 16(%rax)
.Ltmp31:
	.cv_loc	5 5 56 0
	addq	$344, %rsp
	retq
.Ltmp32:
.Lfunc_end2:
	.seh_endproc

	.def	_ZN3std10sys_common9backtrace28__rust_begin_short_backtrace17hbca3ae361894b7c5E;
	.scl	3;
	.type	32;
	.endef
	.section	.text,"xr",one_only,_ZN3std10sys_common9backtrace28__rust_begin_short_backtrace17hbca3ae361894b7c5E
	.p2align	4, 0x90
_ZN3std10sys_common9backtrace28__rust_begin_short_backtrace17hbca3ae361894b7c5E:
.Lfunc_begin3:
	.cv_func_id 21
	.cv_file	16 "/rustc/5680fa18feaa87f3ff04063800aec256c3d4b4be\\library\\std\\src\\sys_common\\backtrace.rs" "2CAE7C83395163C2085CAFDFC9AE9957D5599019" 2
	.cv_loc	21 16 131 0
.seh_proc _ZN3std10sys_common9backtrace28__rust_begin_short_backtrace17hbca3ae361894b7c5E
	subq	$56, %rsp
	.seh_stackalloc 56
	.seh_endprologue
.Ltmp33:
	.cv_file	17 "/rustc/5680fa18feaa87f3ff04063800aec256c3d4b4be\\library\\core\\src\\hint.rs" "3463A32FA9F2CFDA2D03B65CB0EB99F3E893F8C0" 2
	.cv_inline_site_id 22 within 21 inlined_at 16 138 0
	.cv_loc	22 17 292 0
	movq	%rcx, 40(%rsp)
.Ltmp34:
	.cv_loc	21 16 135 0
	callq	_ZN4core3ops8function6FnOnce9call_once17hadcd3a093a79c9b7E
.Ltmp35:
	.cv_loc	22 17 293 0
	#APP
	#NO_APP
.Ltmp36:
	.cv_loc	21 16 141 0
	nop
	addq	$56, %rsp
	retq
.Ltmp37:
.Lfunc_end3:
	.seh_endproc

	.def	_ZN3std2rt10lang_start17h186781de945c9aabE;
	.scl	2;
	.type	32;
	.endef
	.section	.text,"xr",one_only,_ZN3std2rt10lang_start17h186781de945c9aabE
	.globl	_ZN3std2rt10lang_start17h186781de945c9aabE
	.p2align	4, 0x90
_ZN3std2rt10lang_start17h186781de945c9aabE:
.Lfunc_begin4:
	.cv_func_id 23
	.cv_file	18 "/rustc/5680fa18feaa87f3ff04063800aec256c3d4b4be\\library\\std\\src\\rt.rs" "B988B2AB3B2E72DEA75756F8BF62934FD856EAA7" 2
	.cv_loc	23 18 159 0
.seh_proc _ZN3std2rt10lang_start17h186781de945c9aabE
	subq	$104, %rsp
	.seh_stackalloc 104
	.seh_endprologue
	movb	%r9b, %al
	movq	%r8, %r9
	movq	%rdx, %r8
	movq	%rcx, 64(%rsp)
	movq	%r8, 72(%rsp)
	movq	%r9, 80(%rsp)
	movb	%al, 95(%rsp)
.Ltmp38:
	.cv_loc	23 18 166 0
	movq	%rcx, 56(%rsp)
	.cv_loc	23 18 165 0
	leaq	56(%rsp), %rcx
	leaq	__unnamed_3(%rip), %rdx
	movb	%al, 32(%rsp)
	callq	_ZN3std2rt19lang_start_internal17h0386057d0589e4c8E
	movq	%rax, 48(%rsp)
	movq	48(%rsp), %rax
	movq	%rax, 96(%rsp)
	.cv_loc	23 18 172 0
	addq	$104, %rsp
	retq
.Ltmp39:
.Lfunc_end4:
	.seh_endproc

	.def	_ZN3std2rt10lang_start28_$u7b$$u7b$closure$u7d$$u7d$17h5e3718a8ed784203E;
	.scl	3;
	.type	32;
	.endef
	.section	.text,"xr",one_only,_ZN3std2rt10lang_start28_$u7b$$u7b$closure$u7d$$u7d$17h5e3718a8ed784203E
	.p2align	4, 0x90
_ZN3std2rt10lang_start28_$u7b$$u7b$closure$u7d$$u7d$17h5e3718a8ed784203E:
.Lfunc_begin5:
	.cv_func_id 24
	.cv_loc	24 18 166 0
.seh_proc _ZN3std2rt10lang_start28_$u7b$$u7b$closure$u7d$$u7d$17h5e3718a8ed784203E
	subq	$56, %rsp
	.seh_stackalloc 56
	.seh_endprologue
	movq	%rcx, 40(%rsp)
.Ltmp40:
	movq	(%rcx), %rcx
	callq	_ZN3std10sys_common9backtrace28__rust_begin_short_backtrace17hbca3ae361894b7c5E
	callq	_ZN54_$LT$$LP$$RP$$u20$as$u20$std..process..Termination$GT$6report17h0611c85b0a24b5edE
	movl	%eax, 36(%rsp)
.Ltmp41:
	.cv_file	19 "/rustc/5680fa18feaa87f3ff04063800aec256c3d4b4be\\library\\std\\src\\process.rs" "961C11E249023BE548CB670EA2E4DE2B06966381" 2
	.cv_inline_site_id 25 within 24 inlined_at 18 166 0
	.cv_loc	25 19 1881 0
	leaq	36(%rsp), %rax
	movq	%rax, 48(%rsp)
.Ltmp42:
	.cv_file	20 "/rustc/5680fa18feaa87f3ff04063800aec256c3d4b4be\\library\\std\\src\\sys\\windows\\process.rs" "93E41B543B992DF84992BD8542605D6DA50F0676" 2
	.cv_inline_site_id 26 within 25 inlined_at 19 1881 0
	.cv_loc	26 20 716 0
	movl	36(%rsp), %eax
.Ltmp43:
	.cv_loc	24 18 166 0
	addq	$56, %rsp
	retq
.Ltmp44:
.Lfunc_end5:
	.seh_endproc

	.def	_ZN4core3cmp5impls50_$LT$impl$u20$core..cmp..Ord$u20$for$u20$usize$GT$3cmp17h597d4cd38f1db1feE;
	.scl	3;
	.type	32;
	.endef
	.section	.text,"xr",one_only,_ZN4core3cmp5impls50_$LT$impl$u20$core..cmp..Ord$u20$for$u20$usize$GT$3cmp17h597d4cd38f1db1feE
	.p2align	4, 0x90
_ZN4core3cmp5impls50_$LT$impl$u20$core..cmp..Ord$u20$for$u20$usize$GT$3cmp17h597d4cd38f1db1feE:
.Lfunc_begin6:
	.cv_func_id 27
	.cv_file	21 "/rustc/5680fa18feaa87f3ff04063800aec256c3d4b4be\\library\\core\\src\\cmp.rs" "9F5132524D20903F6531F2EF88A376950BA4F8D3" 2
	.cv_loc	27 21 1375 0
.seh_proc _ZN4core3cmp5impls50_$LT$impl$u20$core..cmp..Ord$u20$for$u20$usize$GT$3cmp17h597d4cd38f1db1feE
	subq	$40, %rsp
	.seh_stackalloc 40
	.seh_endprologue
	movq	%rdx, (%rsp)
	movq	%rcx, 8(%rsp)
	movq	%rcx, 24(%rsp)
	movq	%rdx, 32(%rsp)
.Ltmp45:
	.cv_loc	27 21 1378 0
	movq	(%rcx), %rax
	cmpq	(%rdx), %rax
	jb	.LBB6_2
	.cv_loc	27 21 1379 0
	movq	(%rsp), %rcx
	movq	8(%rsp), %rax
	movq	(%rax), %rax
	cmpq	(%rcx), %rax
	je	.LBB6_4
	jmp	.LBB6_3
.LBB6_2:
	.cv_loc	27 21 1378 0
	movb	$-1, 23(%rsp)
	jmp	.LBB6_6
.LBB6_3:
	.cv_loc	27 21 1380 0
	movb	$1, 23(%rsp)
	.cv_loc	27 21 1379 0
	jmp	.LBB6_5
.LBB6_4:
	movb	$0, 23(%rsp)
.LBB6_5:
	.cv_loc	27 21 1378 0
	jmp	.LBB6_6
.LBB6_6:
	.cv_loc	27 21 1381 0
	movb	23(%rsp), %al
	addq	$40, %rsp
	retq
.Ltmp46:
.Lfunc_end6:
	.seh_endproc

	.def	_ZN4core3cmp6max_by17hfe50df40895362f7E;
	.scl	3;
	.type	32;
	.endef
	.section	.text,"xr",one_only,_ZN4core3cmp6max_by17hfe50df40895362f7E
	.p2align	4, 0x90
_ZN4core3cmp6max_by17hfe50df40895362f7E:
.Lfunc_begin7:
	.cv_func_id 28
	.cv_loc	28 21 1240 0
.seh_proc _ZN4core3cmp6max_by17hfe50df40895362f7E
	.seh_handler __CxxFrameHandler3, @unwind, @except
	pushq	%rbp
	.seh_pushreg %rbp
	subq	$112, %rsp
	.seh_stackalloc 112
	leaq	112(%rsp), %rbp
	.seh_setframe %rbp, 112
	.seh_endprologue
	movq	$-2, -8(%rbp)
	movq	%rcx, -64(%rbp)
	movq	%rdx, -56(%rbp)
.Ltmp49:
	.cv_loc	28 21 1241 0
	movb	$1, -9(%rbp)
	movb	$1, -10(%rbp)
	leaq	-64(%rbp), %rax
	movq	%rax, -32(%rbp)
	leaq	-56(%rbp), %rax
	movq	%rax, -24(%rbp)
	movq	-32(%rbp), %rcx
	movq	-24(%rbp), %rdx
.Ltmp47:
	callq	_ZN4core3ops8function6FnOnce9call_once17h176eb0060fe7708aE
.Ltmp48:
	movb	%al, -65(%rbp)
	jmp	.LBB7_2
.LBB7_2:
	movb	-65(%rbp), %al
	movb	%al, -33(%rbp)
	movb	-33(%rbp), %al
	incb	%al
	subb	$2, %al
	jb	.LBB7_4
	jmp	.LBB7_14
.LBB7_14:
	jmp	.LBB7_5
	ud2
.LBB7_4:
	.cv_loc	28 21 1242 0
	movb	$0, -10(%rbp)
	movq	-56(%rbp), %rax
	movq	%rax, -48(%rbp)
	jmp	.LBB7_6
.LBB7_5:
	.cv_loc	28 21 1243 0
	movb	$0, -9(%rbp)
	movq	-64(%rbp), %rax
	movq	%rax, -48(%rbp)
.LBB7_6:
	.cv_loc	28 21 1245 0
	testb	$1, -10(%rbp)
	jne	.LBB7_8
.LBB7_7:
	testb	$1, -9(%rbp)
	jne	.LBB7_10
	jmp	.LBB7_9
.LBB7_8:
	jmp	.LBB7_7
.LBB7_9:
	movq	-48(%rbp), %rax
	addq	$112, %rsp
	popq	%rbp
	retq
.LBB7_10:
	jmp	.LBB7_9
	.seh_handlerdata
	.long	($cppxdata$_ZN4core3cmp6max_by17hfe50df40895362f7E)@IMGREL
	.section	.text,"xr",one_only,_ZN4core3cmp6max_by17hfe50df40895362f7E
	.seh_endproc
	.def	"?dtor$1@?0?_ZN4core3cmp6max_by17hfe50df40895362f7E@4HA";
	.scl	3;
	.type	32;
	.endef
	.p2align	4, 0x90
"?dtor$1@?0?_ZN4core3cmp6max_by17hfe50df40895362f7E@4HA":
.seh_proc "?dtor$1@?0?_ZN4core3cmp6max_by17hfe50df40895362f7E@4HA"
.LBB7_1:
	movq	%rdx, 16(%rsp)
	pushq	%rbp
	.seh_pushreg %rbp
	subq	$32, %rsp
	.seh_stackalloc 32
	leaq	112(%rdx), %rbp
	.seh_endprologue
	addq	$32, %rsp
	popq	%rbp
	retq
	.seh_handlerdata
	.section	.text,"xr",one_only,_ZN4core3cmp6max_by17hfe50df40895362f7E
	.seh_endproc
	.def	"?dtor$11@?0?_ZN4core3cmp6max_by17hfe50df40895362f7E@4HA";
	.scl	3;
	.type	32;
	.endef
	.p2align	4, 0x90
"?dtor$11@?0?_ZN4core3cmp6max_by17hfe50df40895362f7E@4HA":
.seh_proc "?dtor$11@?0?_ZN4core3cmp6max_by17hfe50df40895362f7E@4HA"
.LBB7_11:
	movq	%rdx, 16(%rsp)
	pushq	%rbp
	.seh_pushreg %rbp
	subq	$32, %rsp
	.seh_stackalloc 32
	leaq	112(%rdx), %rbp
	.seh_endprologue
	testb	$1, -9(%rbp)
	jne	.LBB7_13
.LBB7_12:
	.cv_loc	28 21 1240 0
	addq	$32, %rsp
	popq	%rbp
	retq
.LBB7_13:
	.cv_loc	28 21 1245 0
	jmp	.LBB7_12
.Ltmp50:
.Lfunc_end7:
	.seh_handlerdata
	.section	.text,"xr",one_only,_ZN4core3cmp6max_by17hfe50df40895362f7E
	.seh_endproc
	.section	.xdata,"dr",associative,_ZN4core3cmp6max_by17hfe50df40895362f7E
	.p2align	2, 0x0
$cppxdata$_ZN4core3cmp6max_by17hfe50df40895362f7E:
	.long	429065506
	.long	2
	.long	($stateUnwindMap$_ZN4core3cmp6max_by17hfe50df40895362f7E)@IMGREL
	.long	0
	.long	0
	.long	3
	.long	($ip2state$_ZN4core3cmp6max_by17hfe50df40895362f7E)@IMGREL
	.long	104
	.long	0
	.long	1
$stateUnwindMap$_ZN4core3cmp6max_by17hfe50df40895362f7E:
	.long	-1
	.long	"?dtor$11@?0?_ZN4core3cmp6max_by17hfe50df40895362f7E@4HA"@IMGREL
	.long	0
	.long	"?dtor$1@?0?_ZN4core3cmp6max_by17hfe50df40895362f7E@4HA"@IMGREL
$ip2state$_ZN4core3cmp6max_by17hfe50df40895362f7E:
	.long	.Lfunc_begin7@IMGREL
	.long	-1
	.long	.Ltmp47@IMGREL+1
	.long	1
	.long	.Ltmp48@IMGREL+1
	.long	-1
	.section	.text,"xr",one_only,_ZN4core3cmp6max_by17hfe50df40895362f7E

	.def	_ZN4core3fmt9Arguments6new_v117hda4e38d781299d07E;
	.scl	3;
	.type	32;
	.endef
	.section	.text,"xr",one_only,_ZN4core3fmt9Arguments6new_v117hda4e38d781299d07E
	.p2align	4, 0x90
_ZN4core3fmt9Arguments6new_v117hda4e38d781299d07E:
.Lfunc_begin8:
	.cv_func_id 29
	.cv_file	22 "/rustc/5680fa18feaa87f3ff04063800aec256c3d4b4be\\library\\core\\src\\fmt\\mod.rs" "0E7AC46942D65DF9F0D4BC3EB77BB1395822E453" 2
	.cv_loc	29 22 307 0
.seh_proc _ZN4core3fmt9Arguments6new_v117hda4e38d781299d07E
	subq	$216, %rsp
	.seh_stackalloc 216
	.seh_endprologue
	movq	%r9, 32(%rsp)
	movq	%r8, 40(%rsp)
	movq	%rdx, 48(%rsp)
	movq	%rcx, 56(%rsp)
	movq	%rcx, 64(%rsp)
	movq	256(%rsp), %rax
	movq	%rax, 72(%rsp)
	movq	%rdx, 168(%rsp)
	movq	%r8, 176(%rsp)
	movq	%r9, 184(%rsp)
	movq	%rax, 192(%rsp)
.Ltmp51:
	.cv_loc	29 22 308 0
	cmpq	%rax, %r8
	jb	.LBB8_2
	movq	40(%rsp), %rax
	movq	72(%rsp), %rcx
	addq	$1, %rcx
	cmpq	%rcx, %rax
	seta	%al
	andb	$1, %al
	movb	%al, 87(%rsp)
	jmp	.LBB8_3
.LBB8_2:
	movb	$1, 87(%rsp)
.LBB8_3:
	testb	$1, 87(%rsp)
	jne	.LBB8_5
	.cv_loc	29 22 311 0
	movq	64(%rsp), %rax
	movq	56(%rsp), %rcx
	movq	72(%rsp), %rdx
	movq	32(%rsp), %r8
	movq	40(%rsp), %r9
	movq	48(%rsp), %r10
	movq	$0, 136(%rsp)
	movq	%r10, (%rcx)
	movq	%r9, 8(%rcx)
	movq	136(%rsp), %r10
	movq	144(%rsp), %r9
	movq	%r10, 32(%rcx)
	movq	%r9, 40(%rcx)
	movq	%r8, 16(%rcx)
	movq	%rdx, 24(%rcx)
	.cv_loc	29 22 312 0
	addq	$216, %rsp
	retq
.LBB8_5:
	.cv_loc	29 22 309 0
	leaq	__unnamed_4(%rip), %rax
	movq	%rax, 200(%rsp)
	movq	$1, 208(%rsp)
.Ltmp52:
	.cv_file	23 "/rustc/5680fa18feaa87f3ff04063800aec256c3d4b4be\\library\\core\\src\\panic.rs" "514B4BF2CFABF9497570BFC57016A662A3B0342D" 2
	.cv_inline_site_id 30 within 29 inlined_at 23 61 0
	.cv_loc	30 22 301 0
	movq	$0, 152(%rsp)
	movq	%rax, 88(%rsp)
	movq	$1, 96(%rsp)
	movq	152(%rsp), %rcx
	movq	160(%rsp), %rax
	movq	%rcx, 120(%rsp)
	movq	%rax, 128(%rsp)
	leaq	__unnamed_5(%rip), %rax
	movq	%rax, 104(%rsp)
	movq	$0, 112(%rsp)
.Ltmp53:
	.cv_loc	29 22 309 0
	leaq	__unnamed_6(%rip), %rdx
	leaq	88(%rsp), %rcx
	callq	_ZN4core9panicking9panic_fmt17hab6278d82627a88aE
	ud2
.Ltmp54:
.Lfunc_end8:
	.seh_endproc

	.def	_ZN4core3num21_$LT$impl$u20$i32$GT$11to_le_bytes17hc6cdf2719840f696E;
	.scl	3;
	.type	32;
	.endef
	.section	.text,"xr",one_only,_ZN4core3num21_$LT$impl$u20$i32$GT$11to_le_bytes17hc6cdf2719840f696E
	.p2align	4, 0x90
_ZN4core3num21_$LT$impl$u20$i32$GT$11to_le_bytes17hc6cdf2719840f696E:
.Lfunc_begin9:
	.cv_func_id 31
	.cv_file	24 "/rustc/5680fa18feaa87f3ff04063800aec256c3d4b4be\\library\\core\\src\\num\\int_macros.rs" "59E2A65D69964C771700951BA5984E065803679C" 2
	.cv_loc	31 24 2726 0
.seh_proc _ZN4core3num21_$LT$impl$u20$i32$GT$11to_le_bytes17hc6cdf2719840f696E
	pushq	%rax
	.seh_stackalloc 8
	.seh_endprologue
	movl	%ecx, 4(%rsp)
.Ltmp55:
	.cv_inline_site_id 32 within 31 inlined_at 24 2727 0
	.cv_loc	32 24 2765 0
	movl	%ecx, (%rsp)
.Ltmp56:
	.cv_loc	31 24 2728 0
	movl	(%rsp), %eax
	popq	%rcx
	retq
.Ltmp57:
.Lfunc_end9:
	.seh_endproc

	.def	_ZN4core3num21_$LT$impl$u20$i32$GT$13from_le_bytes17h05f14929675412f5E;
	.scl	3;
	.type	32;
	.endef
	.section	.text,"xr",one_only,_ZN4core3num21_$LT$impl$u20$i32$GT$13from_le_bytes17h05f14929675412f5E
	.p2align	4, 0x90
_ZN4core3num21_$LT$impl$u20$i32$GT$13from_le_bytes17h05f14929675412f5E:
.Lfunc_begin10:
	.cv_func_id 33
	.cv_loc	33 24 2822 0
.seh_proc _ZN4core3num21_$LT$impl$u20$i32$GT$13from_le_bytes17h05f14929675412f5E
	subq	$16, %rsp
	.seh_stackalloc 16
	.seh_endprologue
	movl	%ecx, 8(%rsp)
	movl	8(%rsp), %eax
	movl	%eax, 4(%rsp)
.Ltmp58:
	.cv_inline_site_id 34 within 33 inlined_at 24 2823 0
	.cv_loc	34 24 2866 0
	movl	4(%rsp), %eax
	movl	%eax, 12(%rsp)
.Ltmp59:
	.cv_loc	33 24 2824 0
	addq	$16, %rsp
	retq
.Ltmp60:
.Lfunc_end10:
	.seh_endproc

	.def	_ZN4core3num21_$LT$impl$u20$i64$GT$11to_le_bytes17hed58e725281b60faE;
	.scl	3;
	.type	32;
	.endef
	.section	.text,"xr",one_only,_ZN4core3num21_$LT$impl$u20$i64$GT$11to_le_bytes17hed58e725281b60faE
	.p2align	4, 0x90
_ZN4core3num21_$LT$impl$u20$i64$GT$11to_le_bytes17hed58e725281b60faE:
.Lfunc_begin11:
	.cv_func_id 35
	.cv_loc	35 24 2726 0
.seh_proc _ZN4core3num21_$LT$impl$u20$i64$GT$11to_le_bytes17hed58e725281b60faE
	subq	$16, %rsp
	.seh_stackalloc 16
	.seh_endprologue
	movq	%rcx, 8(%rsp)
.Ltmp61:
	.cv_inline_site_id 36 within 35 inlined_at 24 2727 0
	.cv_loc	36 24 2765 0
	movq	%rcx, (%rsp)
.Ltmp62:
	.cv_loc	35 24 2728 0
	movq	(%rsp), %rax
	addq	$16, %rsp
	retq
.Ltmp63:
.Lfunc_end11:
	.seh_endproc

	.def	_ZN4core3num21_$LT$impl$u20$i64$GT$13from_le_bytes17h8c9d2498811a4fcbE;
	.scl	3;
	.type	32;
	.endef
	.section	.text,"xr",one_only,_ZN4core3num21_$LT$impl$u20$i64$GT$13from_le_bytes17h8c9d2498811a4fcbE
	.p2align	4, 0x90
_ZN4core3num21_$LT$impl$u20$i64$GT$13from_le_bytes17h8c9d2498811a4fcbE:
.Lfunc_begin12:
	.cv_func_id 37
	.cv_loc	37 24 2822 0
.seh_proc _ZN4core3num21_$LT$impl$u20$i64$GT$13from_le_bytes17h8c9d2498811a4fcbE
	subq	$24, %rsp
	.seh_stackalloc 24
	.seh_endprologue
	movq	%rcx, 8(%rsp)
	movq	8(%rsp), %rax
	movq	%rax, (%rsp)
.Ltmp64:
	.cv_inline_site_id 38 within 37 inlined_at 24 2823 0
	.cv_loc	38 24 2866 0
	movq	(%rsp), %rax
	movq	%rax, 16(%rsp)
.Ltmp65:
	.cv_loc	37 24 2824 0
	addq	$24, %rsp
	retq
.Ltmp66:
.Lfunc_end12:
	.seh_endproc

	.def	_ZN4core3ops8function6FnOnce40call_once$u7b$$u7b$vtable.shim$u7d$$u7d$17hff5a4aa31cd174dcE;
	.scl	3;
	.type	32;
	.endef
	.section	.text,"xr",one_only,_ZN4core3ops8function6FnOnce40call_once$u7b$$u7b$vtable.shim$u7d$$u7d$17hff5a4aa31cd174dcE
	.p2align	4, 0x90
_ZN4core3ops8function6FnOnce40call_once$u7b$$u7b$vtable.shim$u7d$$u7d$17hff5a4aa31cd174dcE:
.Lfunc_begin13:
	.cv_func_id 39
	.cv_file	25 "/rustc/5680fa18feaa87f3ff04063800aec256c3d4b4be\\library\\core\\src\\ops\\function.rs" "C5AFFE11ABB5FEEB7E7AF41EF6225BF22E2661D6" 2
	.cv_loc	39 25 250 0
.seh_proc _ZN4core3ops8function6FnOnce40call_once$u7b$$u7b$vtable.shim$u7d$$u7d$17hff5a4aa31cd174dcE
	subq	$56, %rsp
	.seh_stackalloc 56
	.seh_endprologue
	movq	%rcx, 48(%rsp)
.Ltmp67:
	movq	(%rcx), %rcx
	callq	_ZN4core3ops8function6FnOnce9call_once17h7695dc0d0c29f643E
	nop
	addq	$56, %rsp
	retq
.Ltmp68:
.Lfunc_end13:
	.seh_endproc

	.def	_ZN4core3ops8function6FnOnce9call_once17h176eb0060fe7708aE;
	.scl	3;
	.type	32;
	.endef
	.section	.text,"xr",one_only,_ZN4core3ops8function6FnOnce9call_once17h176eb0060fe7708aE
	.p2align	4, 0x90
_ZN4core3ops8function6FnOnce9call_once17h176eb0060fe7708aE:
.Lfunc_begin14:
	.cv_func_id 40
	.cv_loc	40 25 250 0
.seh_proc _ZN4core3ops8function6FnOnce9call_once17h176eb0060fe7708aE
	subq	$56, %rsp
	.seh_stackalloc 56
	.seh_endprologue
	movq	%rcx, 32(%rsp)
	movq	%rdx, 40(%rsp)
.Ltmp69:
	movq	32(%rsp), %rcx
	movq	40(%rsp), %rdx
	callq	_ZN4core3cmp5impls50_$LT$impl$u20$core..cmp..Ord$u20$for$u20$usize$GT$3cmp17h597d4cd38f1db1feE
	nop
	addq	$56, %rsp
	retq
.Ltmp70:
.Lfunc_end14:
	.seh_endproc

	.def	_ZN4core3ops8function6FnOnce9call_once17h7695dc0d0c29f643E;
	.scl	3;
	.type	32;
	.endef
	.section	.text,"xr",one_only,_ZN4core3ops8function6FnOnce9call_once17h7695dc0d0c29f643E
	.p2align	4, 0x90
_ZN4core3ops8function6FnOnce9call_once17h7695dc0d0c29f643E:
.Lfunc_begin15:
	.cv_func_id 41
	.cv_loc	41 25 250 0
.seh_proc _ZN4core3ops8function6FnOnce9call_once17h7695dc0d0c29f643E
	.seh_handler __CxxFrameHandler3, @unwind, @except
	pushq	%rbp
	.seh_pushreg %rbp
	subq	$64, %rsp
	.seh_stackalloc 64
	leaq	64(%rsp), %rbp
	.seh_setframe %rbp, 64
	.seh_endprologue
	movq	$-2, -8(%rbp)
	movq	%rcx, -16(%rbp)
.Ltmp71:
	leaq	-16(%rbp), %rcx
.Ltmp73:
	callq	_ZN3std2rt10lang_start28_$u7b$$u7b$closure$u7d$$u7d$17h5e3718a8ed784203E
.Ltmp72:
	movl	%eax, -20(%rbp)
	jmp	.LBB15_2
.LBB15_2:
	movl	-20(%rbp), %eax
	addq	$64, %rsp
	popq	%rbp
	retq
	.seh_handlerdata
	.long	($cppxdata$_ZN4core3ops8function6FnOnce9call_once17h7695dc0d0c29f643E)@IMGREL
	.section	.text,"xr",one_only,_ZN4core3ops8function6FnOnce9call_once17h7695dc0d0c29f643E
	.seh_endproc
	.def	"?dtor$1@?0?_ZN4core3ops8function6FnOnce9call_once17h7695dc0d0c29f643E@4HA";
	.scl	3;
	.type	32;
	.endef
	.p2align	4, 0x90
"?dtor$1@?0?_ZN4core3ops8function6FnOnce9call_once17h7695dc0d0c29f643E@4HA":
.seh_proc "?dtor$1@?0?_ZN4core3ops8function6FnOnce9call_once17h7695dc0d0c29f643E@4HA"
.LBB15_1:
	movq	%rdx, 16(%rsp)
	pushq	%rbp
	.seh_pushreg %rbp
	subq	$32, %rsp
	.seh_stackalloc 32
	leaq	64(%rdx), %rbp
	.seh_endprologue
	addq	$32, %rsp
	popq	%rbp
	retq
.Ltmp74:
.Lfunc_end15:
	.seh_handlerdata
	.section	.text,"xr",one_only,_ZN4core3ops8function6FnOnce9call_once17h7695dc0d0c29f643E
	.seh_endproc
	.section	.xdata,"dr",associative,_ZN4core3ops8function6FnOnce9call_once17h7695dc0d0c29f643E
	.p2align	2, 0x0
$cppxdata$_ZN4core3ops8function6FnOnce9call_once17h7695dc0d0c29f643E:
	.long	429065506
	.long	1
	.long	($stateUnwindMap$_ZN4core3ops8function6FnOnce9call_once17h7695dc0d0c29f643E)@IMGREL
	.long	0
	.long	0
	.long	3
	.long	($ip2state$_ZN4core3ops8function6FnOnce9call_once17h7695dc0d0c29f643E)@IMGREL
	.long	56
	.long	0
	.long	1
$stateUnwindMap$_ZN4core3ops8function6FnOnce9call_once17h7695dc0d0c29f643E:
	.long	-1
	.long	"?dtor$1@?0?_ZN4core3ops8function6FnOnce9call_once17h7695dc0d0c29f643E@4HA"@IMGREL
$ip2state$_ZN4core3ops8function6FnOnce9call_once17h7695dc0d0c29f643E:
	.long	.Lfunc_begin15@IMGREL
	.long	-1
	.long	.Ltmp71@IMGREL+1
	.long	0
	.long	.Ltmp72@IMGREL+1
	.long	-1
	.section	.text,"xr",one_only,_ZN4core3ops8function6FnOnce9call_once17h7695dc0d0c29f643E

	.def	_ZN4core3ops8function6FnOnce9call_once17hadcd3a093a79c9b7E;
	.scl	3;
	.type	32;
	.endef
	.section	.text,"xr",one_only,_ZN4core3ops8function6FnOnce9call_once17hadcd3a093a79c9b7E
	.p2align	4, 0x90
_ZN4core3ops8function6FnOnce9call_once17hadcd3a093a79c9b7E:
.Lfunc_begin16:
	.cv_func_id 42
	.cv_loc	42 25 250 0
.seh_proc _ZN4core3ops8function6FnOnce9call_once17hadcd3a093a79c9b7E
	subq	$56, %rsp
	.seh_stackalloc 56
	.seh_endprologue
	movq	%rcx, 48(%rsp)
.Ltmp75:
	callq	*%rcx
	nop
	addq	$56, %rsp
	retq
.Ltmp76:
.Lfunc_end16:
	.seh_endproc

	.def	_ZN4core3ptr42drop_in_place$LT$alloc..string..String$GT$17h8970eedf29492940E;
	.scl	3;
	.type	32;
	.endef
	.section	.text,"xr",one_only,_ZN4core3ptr42drop_in_place$LT$alloc..string..String$GT$17h8970eedf29492940E
	.p2align	4, 0x90
_ZN4core3ptr42drop_in_place$LT$alloc..string..String$GT$17h8970eedf29492940E:
.Lfunc_begin17:
	.cv_func_id 43
	.cv_loc	43 3 497 0
.seh_proc _ZN4core3ptr42drop_in_place$LT$alloc..string..String$GT$17h8970eedf29492940E
	subq	$40, %rsp
	.seh_stackalloc 40
	.seh_endprologue
	movq	%rcx, 32(%rsp)
.Ltmp77:
	callq	_ZN4core3ptr46drop_in_place$LT$alloc..vec..Vec$LT$u8$GT$$GT$17h34e35bca2e3e41daE
	nop
	addq	$40, %rsp
	retq
.Ltmp78:
.Lfunc_end17:
	.seh_endproc

	.def	_ZN4core3ptr46drop_in_place$LT$alloc..vec..Vec$LT$u8$GT$$GT$17h34e35bca2e3e41daE;
	.scl	3;
	.type	32;
	.endef
	.section	.text,"xr",one_only,_ZN4core3ptr46drop_in_place$LT$alloc..vec..Vec$LT$u8$GT$$GT$17h34e35bca2e3e41daE
	.p2align	4, 0x90
_ZN4core3ptr46drop_in_place$LT$alloc..vec..Vec$LT$u8$GT$$GT$17h34e35bca2e3e41daE:
.Lfunc_begin18:
	.cv_func_id 44
	.cv_loc	44 3 497 0
.seh_proc _ZN4core3ptr46drop_in_place$LT$alloc..vec..Vec$LT$u8$GT$$GT$17h34e35bca2e3e41daE
	.seh_handler __CxxFrameHandler3, @unwind, @except
	pushq	%rbp
	.seh_pushreg %rbp
	subq	$64, %rsp
	.seh_stackalloc 64
	leaq	64(%rsp), %rbp
	.seh_setframe %rbp, 64
	.seh_endprologue
	movq	$-2, -8(%rbp)
	movq	%rcx, -24(%rbp)
	movq	%rcx, -16(%rbp)
.Ltmp79:
.Ltmp81:
	callq	_ZN70_$LT$alloc..vec..Vec$LT$T$C$A$GT$$u20$as$u20$core..ops..drop..Drop$GT$4drop17hffdb0bf63b5d99aaE
.Ltmp80:
	jmp	.LBB18_2
.LBB18_2:
	movq	-24(%rbp), %rcx
	callq	_ZN4core3ptr53drop_in_place$LT$alloc..raw_vec..RawVec$LT$u8$GT$$GT$17h2c5d5dd064b51e8bE
	nop
	addq	$64, %rsp
	popq	%rbp
	retq
	.seh_handlerdata
	.long	($cppxdata$_ZN4core3ptr46drop_in_place$LT$alloc..vec..Vec$LT$u8$GT$$GT$17h34e35bca2e3e41daE)@IMGREL
	.section	.text,"xr",one_only,_ZN4core3ptr46drop_in_place$LT$alloc..vec..Vec$LT$u8$GT$$GT$17h34e35bca2e3e41daE
	.seh_endproc
	.def	"?dtor$1@?0?_ZN4core3ptr46drop_in_place$LT$alloc..vec..Vec$LT$u8$GT$$GT$17h34e35bca2e3e41daE@4HA";
	.scl	3;
	.type	32;
	.endef
	.p2align	4, 0x90
"?dtor$1@?0?_ZN4core3ptr46drop_in_place$LT$alloc..vec..Vec$LT$u8$GT$$GT$17h34e35bca2e3e41daE@4HA":
.seh_proc "?dtor$1@?0?_ZN4core3ptr46drop_in_place$LT$alloc..vec..Vec$LT$u8$GT$$GT$17h34e35bca2e3e41daE@4HA"
.LBB18_1:
	movq	%rdx, 16(%rsp)
	pushq	%rbp
	.seh_pushreg %rbp
	subq	$32, %rsp
	.seh_stackalloc 32
	leaq	64(%rdx), %rbp
	.seh_endprologue
	movq	-24(%rbp), %rcx
	callq	_ZN4core3ptr53drop_in_place$LT$alloc..raw_vec..RawVec$LT$u8$GT$$GT$17h2c5d5dd064b51e8bE
	nop
	addq	$32, %rsp
	popq	%rbp
	retq
.Ltmp82:
.Lfunc_end18:
	.seh_handlerdata
	.section	.text,"xr",one_only,_ZN4core3ptr46drop_in_place$LT$alloc..vec..Vec$LT$u8$GT$$GT$17h34e35bca2e3e41daE
	.seh_endproc
	.section	.xdata,"dr",associative,_ZN4core3ptr46drop_in_place$LT$alloc..vec..Vec$LT$u8$GT$$GT$17h34e35bca2e3e41daE
	.p2align	2, 0x0
$cppxdata$_ZN4core3ptr46drop_in_place$LT$alloc..vec..Vec$LT$u8$GT$$GT$17h34e35bca2e3e41daE:
	.long	429065506
	.long	1
	.long	($stateUnwindMap$_ZN4core3ptr46drop_in_place$LT$alloc..vec..Vec$LT$u8$GT$$GT$17h34e35bca2e3e41daE)@IMGREL
	.long	0
	.long	0
	.long	3
	.long	($ip2state$_ZN4core3ptr46drop_in_place$LT$alloc..vec..Vec$LT$u8$GT$$GT$17h34e35bca2e3e41daE)@IMGREL
	.long	56
	.long	0
	.long	1
$stateUnwindMap$_ZN4core3ptr46drop_in_place$LT$alloc..vec..Vec$LT$u8$GT$$GT$17h34e35bca2e3e41daE:
	.long	-1
	.long	"?dtor$1@?0?_ZN4core3ptr46drop_in_place$LT$alloc..vec..Vec$LT$u8$GT$$GT$17h34e35bca2e3e41daE@4HA"@IMGREL
$ip2state$_ZN4core3ptr46drop_in_place$LT$alloc..vec..Vec$LT$u8$GT$$GT$17h34e35bca2e3e41daE:
	.long	.Lfunc_begin18@IMGREL
	.long	-1
	.long	.Ltmp79@IMGREL+1
	.long	0
	.long	.Ltmp80@IMGREL+1
	.long	-1
	.section	.text,"xr",one_only,_ZN4core3ptr46drop_in_place$LT$alloc..vec..Vec$LT$u8$GT$$GT$17h34e35bca2e3e41daE

	.def	_ZN4core3ptr49drop_in_place$LT$alloc..string..FromUtf8Error$GT$17h35bfcf49a3873531E;
	.scl	3;
	.type	32;
	.endef
	.section	.text,"xr",one_only,_ZN4core3ptr49drop_in_place$LT$alloc..string..FromUtf8Error$GT$17h35bfcf49a3873531E
	.p2align	4, 0x90
_ZN4core3ptr49drop_in_place$LT$alloc..string..FromUtf8Error$GT$17h35bfcf49a3873531E:
.Lfunc_begin19:
	.cv_func_id 45
	.cv_loc	45 3 497 0
.seh_proc _ZN4core3ptr49drop_in_place$LT$alloc..string..FromUtf8Error$GT$17h35bfcf49a3873531E
	subq	$40, %rsp
	.seh_stackalloc 40
	.seh_endprologue
	movq	%rcx, 32(%rsp)
.Ltmp83:
	callq	_ZN4core3ptr46drop_in_place$LT$alloc..vec..Vec$LT$u8$GT$$GT$17h34e35bca2e3e41daE
	nop
	addq	$40, %rsp
	retq
.Ltmp84:
.Lfunc_end19:
	.seh_endproc

	.def	_ZN4core3ptr49drop_in_place$LT$reach_server..packet..Packet$GT$17hda6930a0ae8445ffE;
	.scl	3;
	.type	32;
	.endef
	.section	.text,"xr",one_only,_ZN4core3ptr49drop_in_place$LT$reach_server..packet..Packet$GT$17hda6930a0ae8445ffE
	.p2align	4, 0x90
_ZN4core3ptr49drop_in_place$LT$reach_server..packet..Packet$GT$17hda6930a0ae8445ffE:
.Lfunc_begin20:
	.cv_func_id 46
	.cv_loc	46 3 497 0
.seh_proc _ZN4core3ptr49drop_in_place$LT$reach_server..packet..Packet$GT$17hda6930a0ae8445ffE
	subq	$40, %rsp
	.seh_stackalloc 40
	.seh_endprologue
	movq	%rcx, 32(%rsp)
.Ltmp85:
	callq	_ZN4core3ptr46drop_in_place$LT$alloc..vec..Vec$LT$u8$GT$$GT$17h34e35bca2e3e41daE
	nop
	addq	$40, %rsp
	retq
.Ltmp86:
.Lfunc_end20:
	.seh_endproc

	.def	_ZN4core3ptr51drop_in_place$LT$core..array..TryFromSliceError$GT$17hc1153dc051a166c7E;
	.scl	3;
	.type	32;
	.endef
	.section	.text,"xr",one_only,_ZN4core3ptr51drop_in_place$LT$core..array..TryFromSliceError$GT$17hc1153dc051a166c7E
	.p2align	4, 0x90
_ZN4core3ptr51drop_in_place$LT$core..array..TryFromSliceError$GT$17hc1153dc051a166c7E:
.Lfunc_begin21:
	.cv_func_id 47
	.cv_loc	47 3 497 0
.seh_proc _ZN4core3ptr51drop_in_place$LT$core..array..TryFromSliceError$GT$17hc1153dc051a166c7E
	pushq	%rax
	.seh_stackalloc 8
	.seh_endprologue
	movq	%rcx, (%rsp)
.Ltmp87:
	popq	%rax
	retq
.Ltmp88:
.Lfunc_end21:
	.seh_endproc

	.def	_ZN4core3ptr53drop_in_place$LT$alloc..raw_vec..RawVec$LT$u8$GT$$GT$17h2c5d5dd064b51e8bE;
	.scl	3;
	.type	32;
	.endef
	.section	.text,"xr",one_only,_ZN4core3ptr53drop_in_place$LT$alloc..raw_vec..RawVec$LT$u8$GT$$GT$17h2c5d5dd064b51e8bE
	.p2align	4, 0x90
_ZN4core3ptr53drop_in_place$LT$alloc..raw_vec..RawVec$LT$u8$GT$$GT$17h2c5d5dd064b51e8bE:
.Lfunc_begin22:
	.cv_func_id 48
	.cv_loc	48 3 497 0
.seh_proc _ZN4core3ptr53drop_in_place$LT$alloc..raw_vec..RawVec$LT$u8$GT$$GT$17h2c5d5dd064b51e8bE
	subq	$40, %rsp
	.seh_stackalloc 40
	.seh_endprologue
	movq	%rcx, 32(%rsp)
.Ltmp89:
	callq	_ZN77_$LT$alloc..raw_vec..RawVec$LT$T$C$A$GT$$u20$as$u20$core..ops..drop..Drop$GT$4drop17h2cb3d0b7f424f791E
	nop
	addq	$40, %rsp
	retq
.Ltmp90:
.Lfunc_end22:
	.seh_endproc

	.def	_ZN4core3ptr85drop_in_place$LT$std..rt..lang_start$LT$$LP$$RP$$GT$..$u7b$$u7b$closure$u7d$$u7d$$GT$17h474c652f5b92a8caE;
	.scl	3;
	.type	32;
	.endef
	.section	.text,"xr",one_only,_ZN4core3ptr85drop_in_place$LT$std..rt..lang_start$LT$$LP$$RP$$GT$..$u7b$$u7b$closure$u7d$$u7d$$GT$17h474c652f5b92a8caE
	.p2align	4, 0x90
_ZN4core3ptr85drop_in_place$LT$std..rt..lang_start$LT$$LP$$RP$$GT$..$u7b$$u7b$closure$u7d$$u7d$$GT$17h474c652f5b92a8caE:
.Lfunc_begin23:
	.cv_func_id 49
	.cv_loc	49 3 497 0
.seh_proc _ZN4core3ptr85drop_in_place$LT$std..rt..lang_start$LT$$LP$$RP$$GT$..$u7b$$u7b$closure$u7d$$u7d$$GT$17h474c652f5b92a8caE
	pushq	%rax
	.seh_stackalloc 8
	.seh_endprologue
	movq	%rcx, (%rsp)
.Ltmp91:
	popq	%rax
	retq
.Ltmp92:
.Lfunc_end23:
	.seh_endproc

	.def	_ZN4core5alloc6layout6Layout5array5inner17h8b733b6f58d7e8a2E;
	.scl	3;
	.type	32;
	.endef
	.section	.text,"xr",one_only,_ZN4core5alloc6layout6Layout5array5inner17h8b733b6f58d7e8a2E
	.p2align	4, 0x90
_ZN4core5alloc6layout6Layout5array5inner17h8b733b6f58d7e8a2E:
.Lfunc_begin24:
	.cv_func_id 50
	.cv_file	26 "/rustc/5680fa18feaa87f3ff04063800aec256c3d4b4be\\library\\core\\src\\alloc\\layout.rs" "BFD98B80BB89E7FAE070FCEF1DCBB35C0011A941" 2
	.cv_loc	50 26 436 0
.seh_proc _ZN4core5alloc6layout6Layout5array5inner17h8b733b6f58d7e8a2E
	subq	$168, %rsp
	.seh_stackalloc 168
	.seh_endprologue
	movq	%r8, 48(%rsp)
	movq	%rdx, 56(%rsp)
	movq	%rcx, 64(%rsp)
	movq	%rcx, 128(%rsp)
	movq	%rdx, 136(%rsp)
	movq	%r8, 144(%rsp)
.Ltmp93:
	.cv_loc	50 26 447 0
	cmpq	$0, %rcx
	jne	.LBB24_2
	movb	$0, 95(%rsp)
	jmp	.LBB24_3
.LBB24_2:
	.cv_file	27 "/rustc/5680fa18feaa87f3ff04063800aec256c3d4b4be\\library\\core\\src\\ptr\\alignment.rs" "E54CD8B9591551FD2C1C7420F65EF582CA1E73D5" 2
	.cv_inline_site_id 51 within 50 inlined_at 26 447 0
	.cv_inline_site_id 52 within 51 inlined_at 26 93 0
	.cv_loc	52 27 96 0
	movq	64(%rsp), %rax
	movq	56(%rsp), %rcx
.Ltmp94:
	movq	%rcx, 112(%rsp)
	movq	112(%rsp), %rdx
.Ltmp95:
	.cv_loc	51 26 93 0
	subq	$1, %rdx
	movabsq	$9223372036854775807, %rcx
	subq	%rdx, %rcx
	movq	%rcx, 40(%rsp)
.Ltmp96:
	.cv_loc	50 26 447 0
	cmpq	$0, %rax
	sete	%al
	testb	$1, %al
	jne	.LBB24_5
	jmp	.LBB24_4
.LBB24_3:
	testb	$1, 95(%rsp)
	jne	.LBB24_7
	jmp	.LBB24_6
.LBB24_4:
	movq	64(%rsp), %rcx
	movq	40(%rsp), %rax
	xorl	%edx, %edx
	divq	%rcx
	movq	%rax, %rcx
	movq	48(%rsp), %rax
	cmpq	%rcx, %rax
	seta	%al
	andb	$1, %al
	movb	%al, 95(%rsp)
	jmp	.LBB24_3
.LBB24_5:
	leaq	str.0(%rip), %rcx
	leaq	__unnamed_7(%rip), %r8
	movl	$25, %edx
	callq	_ZN4core9panicking5panic17hd8fd9a7d9b3c9589E
	ud2
.LBB24_6:
	.cv_loc	50 26 451 0
	movq	56(%rsp), %rax
	movq	48(%rsp), %rdx
	movq	64(%rsp), %rcx
	imulq	%rdx, %rcx
	movq	%rcx, 152(%rsp)
.Ltmp97:
	.cv_inline_site_id 53 within 50 inlined_at 26 456 0
	.cv_loc	53 27 96 0
	movq	%rax, 120(%rsp)
	movq	120(%rsp), %rax
	movq	%rax, 160(%rsp)
.Ltmp98:
	.cv_loc	53 26 120 0
	movq	%rcx, 104(%rsp)
	movq	%rax, 96(%rsp)
.Ltmp99:
	.cv_loc	50 26 456 0
	movq	96(%rsp), %rcx
	movq	104(%rsp), %rax
	movq	%rcx, 72(%rsp)
	movq	%rax, 80(%rsp)
.Ltmp100:
	.cv_loc	50 26 457 0
	jmp	.LBB24_8
.LBB24_7:
	.cv_loc	50 26 448 0
	movq	$0, 72(%rsp)
.LBB24_8:
	.cv_loc	50 26 457 0
	movq	72(%rsp), %rax
	movq	80(%rsp), %rdx
	addq	$168, %rsp
	retq
.Ltmp101:
.Lfunc_end24:
	.seh_endproc

	.def	_ZN4core5array98_$LT$impl$u20$core..convert..TryFrom$LT$$RF$$u5b$T$u5d$$GT$$u20$for$u20$$u5b$T$u3b$$u20$N$u5d$$GT$8try_from17h62b9e8a1a3349c1fE;
	.scl	3;
	.type	32;
	.endef
	.section	.text,"xr",one_only,_ZN4core5array98_$LT$impl$u20$core..convert..TryFrom$LT$$RF$$u5b$T$u5d$$GT$$u20$for$u20$$u5b$T$u3b$$u20$N$u5d$$GT$8try_from17h62b9e8a1a3349c1fE
	.p2align	4, 0x90
_ZN4core5array98_$LT$impl$u20$core..convert..TryFrom$LT$$RF$$u5b$T$u5d$$GT$$u20$for$u20$$u5b$T$u3b$$u20$N$u5d$$GT$8try_from17h62b9e8a1a3349c1fE:
.Lfunc_begin25:
	.cv_func_id 54
	.cv_file	28 "/rustc/5680fa18feaa87f3ff04063800aec256c3d4b4be\\library\\core\\src\\array\\mod.rs" "81E37FEF9B63AD503E976FC380811678EDD13C8F" 2
	.cv_loc	54 28 208 0
.seh_proc _ZN4core5array98_$LT$impl$u20$core..convert..TryFrom$LT$$RF$$u5b$T$u5d$$GT$$u20$for$u20$$u5b$T$u3b$$u20$N$u5d$$GT$8try_from17h62b9e8a1a3349c1fE
	subq	$88, %rsp
	.seh_stackalloc 88
	.seh_endprologue
	movq	%rcx, 32(%rsp)
	movq	%rcx, 56(%rsp)
	movq	%rdx, 64(%rsp)
.Ltmp102:
	.cv_inline_site_id 55 within 54 inlined_at 28 209 0
	.cv_loc	55 28 256 0
	cmpq	$4, %rdx
	je	.LBB25_2
	.cv_loc	55 28 261 0
	movq	$0, 48(%rsp)
	.cv_loc	55 28 256 0
	jmp	.LBB25_3
.LBB25_2:
	.cv_loc	55 28 257 0
	movq	32(%rsp), %rax
	movq	%rax, 72(%rsp)
.Ltmp103:
	.cv_loc	55 28 259 0
	movq	%rax, 48(%rsp)
.Ltmp104:
.LBB25_3:
	.cv_loc	54 28 209 0
	movq	48(%rsp), %rcx
	callq	_ZN4core6result19Result$LT$T$C$E$GT$3map17h8264d909ef742972E
	movl	%eax, %ecx
	movl	%ecx, 80(%rsp)
	shrq	$32, %rax
	movb	%al, 84(%rsp)
	movb	84(%rsp), %al
	movb	%al, 44(%rsp)
	movl	80(%rsp), %eax
	movl	%eax, 40(%rsp)
	.cv_loc	54 28 210 0
	movl	40(%rsp), %eax
	movzbl	44(%rsp), %ecx
	shlq	$32, %rcx
	orq	%rcx, %rax
	addq	$88, %rsp
	retq
.Ltmp105:
.Lfunc_end25:
	.seh_endproc

	.def	_ZN4core5array98_$LT$impl$u20$core..convert..TryFrom$LT$$RF$$u5b$T$u5d$$GT$$u20$for$u20$$u5b$T$u3b$$u20$N$u5d$$GT$8try_from17ha16156b13d07fa79E;
	.scl	3;
	.type	32;
	.endef
	.section	.text,"xr",one_only,_ZN4core5array98_$LT$impl$u20$core..convert..TryFrom$LT$$RF$$u5b$T$u5d$$GT$$u20$for$u20$$u5b$T$u3b$$u20$N$u5d$$GT$8try_from17ha16156b13d07fa79E
	.p2align	4, 0x90
_ZN4core5array98_$LT$impl$u20$core..convert..TryFrom$LT$$RF$$u5b$T$u5d$$GT$$u20$for$u20$$u5b$T$u3b$$u20$N$u5d$$GT$8try_from17ha16156b13d07fa79E:
.Lfunc_begin26:
	.cv_func_id 56
	.cv_loc	56 28 208 0
.seh_proc _ZN4core5array98_$LT$impl$u20$core..convert..TryFrom$LT$$RF$$u5b$T$u5d$$GT$$u20$for$u20$$u5b$T$u3b$$u20$N$u5d$$GT$8try_from17ha16156b13d07fa79E
	subq	$88, %rsp
	.seh_stackalloc 88
	.seh_endprologue
	movq	%rdx, 32(%rsp)
	movq	%rcx, 40(%rsp)
	movq	%rcx, 48(%rsp)
	movq	%rdx, 64(%rsp)
	movq	%r8, 72(%rsp)
.Ltmp106:
	.cv_inline_site_id 57 within 56 inlined_at 28 209 0
	.cv_loc	57 28 256 0
	cmpq	$8, %r8
	je	.LBB26_2
	.cv_loc	57 28 261 0
	movq	$0, 56(%rsp)
	.cv_loc	57 28 256 0
	jmp	.LBB26_3
.LBB26_2:
	.cv_loc	57 28 257 0
	movq	32(%rsp), %rax
	movq	%rax, 80(%rsp)
.Ltmp107:
	.cv_loc	57 28 259 0
	movq	%rax, 56(%rsp)
.Ltmp108:
.LBB26_3:
	.cv_loc	56 28 209 0
	movq	40(%rsp), %rcx
	movq	56(%rsp), %rdx
	callq	_ZN4core6result19Result$LT$T$C$E$GT$3map17ha3494207a3374862E
	movq	48(%rsp), %rax
	.cv_loc	56 28 210 0
	addq	$88, %rsp
	retq
.Ltmp109:
.Lfunc_end26:
	.seh_endproc

	.def	_ZN4core5array98_$LT$impl$u20$core..convert..TryFrom$LT$$RF$$u5b$T$u5d$$GT$$u20$for$u20$$u5b$T$u3b$$u20$N$u5d$$GT$8try_from28_$u7b$$u7b$closure$u7d$$u7d$17h73d35ca3e454d6ddE;
	.scl	3;
	.type	32;
	.endef
	.section	.text,"xr",one_only,_ZN4core5array98_$LT$impl$u20$core..convert..TryFrom$LT$$RF$$u5b$T$u5d$$GT$$u20$for$u20$$u5b$T$u3b$$u20$N$u5d$$GT$8try_from28_$u7b$$u7b$closure$u7d$$u7d$17h73d35ca3e454d6ddE
	.p2align	4, 0x90
_ZN4core5array98_$LT$impl$u20$core..convert..TryFrom$LT$$RF$$u5b$T$u5d$$GT$$u20$for$u20$$u5b$T$u3b$$u20$N$u5d$$GT$8try_from28_$u7b$$u7b$closure$u7d$$u7d$17h73d35ca3e454d6ddE:
.Lfunc_begin27:
	.cv_func_id 58
	.cv_loc	58 28 209 0
.seh_proc _ZN4core5array98_$LT$impl$u20$core..convert..TryFrom$LT$$RF$$u5b$T$u5d$$GT$$u20$for$u20$$u5b$T$u3b$$u20$N$u5d$$GT$8try_from28_$u7b$$u7b$closure$u7d$$u7d$17h73d35ca3e454d6ddE
	subq	$24, %rsp
	.seh_stackalloc 24
	.seh_endprologue
	movq	%rcx, 16(%rsp)
.Ltmp110:
	movl	(%rcx), %eax
	movl	%eax, 4(%rsp)
	movl	4(%rsp), %eax
	addq	$24, %rsp
	retq
.Ltmp111:
.Lfunc_end27:
	.seh_endproc

	.def	_ZN4core5array98_$LT$impl$u20$core..convert..TryFrom$LT$$RF$$u5b$T$u5d$$GT$$u20$for$u20$$u5b$T$u3b$$u20$N$u5d$$GT$8try_from28_$u7b$$u7b$closure$u7d$$u7d$17h99ac501fab99eda5E;
	.scl	3;
	.type	32;
	.endef
	.section	.text,"xr",one_only,_ZN4core5array98_$LT$impl$u20$core..convert..TryFrom$LT$$RF$$u5b$T$u5d$$GT$$u20$for$u20$$u5b$T$u3b$$u20$N$u5d$$GT$8try_from28_$u7b$$u7b$closure$u7d$$u7d$17h99ac501fab99eda5E
	.p2align	4, 0x90
_ZN4core5array98_$LT$impl$u20$core..convert..TryFrom$LT$$RF$$u5b$T$u5d$$GT$$u20$for$u20$$u5b$T$u3b$$u20$N$u5d$$GT$8try_from28_$u7b$$u7b$closure$u7d$$u7d$17h99ac501fab99eda5E:
.Lfunc_begin28:
	.cv_func_id 59
	.cv_loc	59 28 209 0
.seh_proc _ZN4core5array98_$LT$impl$u20$core..convert..TryFrom$LT$$RF$$u5b$T$u5d$$GT$$u20$for$u20$$u5b$T$u3b$$u20$N$u5d$$GT$8try_from28_$u7b$$u7b$closure$u7d$$u7d$17h99ac501fab99eda5E
	subq	$24, %rsp
	.seh_stackalloc 24
	.seh_endprologue
	movq	%rcx, 16(%rsp)
.Ltmp112:
	movq	(%rcx), %rax
	movq	%rax, (%rsp)
	movq	(%rsp), %rax
	addq	$24, %rsp
	retq
.Ltmp113:
.Lfunc_end28:
	.seh_endproc

	.def	_ZN4core5slice5index74_$LT$impl$u20$core..ops..index..Index$LT$I$GT$$u20$for$u20$$u5b$T$u5d$$GT$5index17h60b42e98e8f455faE;
	.scl	3;
	.type	32;
	.endef
	.section	.text,"xr",one_only,_ZN4core5slice5index74_$LT$impl$u20$core..ops..index..Index$LT$I$GT$$u20$for$u20$$u5b$T$u5d$$GT$5index17h60b42e98e8f455faE
	.p2align	4, 0x90
_ZN4core5slice5index74_$LT$impl$u20$core..ops..index..Index$LT$I$GT$$u20$for$u20$$u5b$T$u5d$$GT$5index17h60b42e98e8f455faE:
.Lfunc_begin29:
	.cv_func_id 60
	.cv_loc	60 1 17 0
.seh_proc _ZN4core5slice5index74_$LT$impl$u20$core..ops..index..Index$LT$I$GT$$u20$for$u20$$u5b$T$u5d$$GT$5index17h60b42e98e8f455faE
	subq	$72, %rsp
	.seh_stackalloc 72
	.seh_endprologue
	movq	%r8, 40(%rsp)
	movq	%rdx, %r8
	movq	%rcx, %rdx
	movq	40(%rsp), %rcx
	movq	%rdx, 48(%rsp)
	movq	%r8, 56(%rsp)
	movq	%rcx, 64(%rsp)
.Ltmp114:
	.cv_loc	60 1 18 0
	callq	_ZN108_$LT$core..ops..range..RangeTo$LT$usize$GT$$u20$as$u20$core..slice..index..SliceIndex$LT$$u5b$T$u5d$$GT$$GT$5index17h7ad2b1ec1b2bdaf4E
	.cv_loc	60 1 19 0
	nop
	addq	$72, %rsp
	retq
.Ltmp115:
.Lfunc_end29:
	.seh_endproc

	.def	_ZN4core6result19Result$LT$T$C$E$GT$3map17h8264d909ef742972E;
	.scl	3;
	.type	32;
	.endef
	.section	.text,"xr",one_only,_ZN4core6result19Result$LT$T$C$E$GT$3map17h8264d909ef742972E
	.p2align	4, 0x90
_ZN4core6result19Result$LT$T$C$E$GT$3map17h8264d909ef742972E:
.Lfunc_begin30:
	.cv_func_id 61
	.cv_file	29 "/rustc/5680fa18feaa87f3ff04063800aec256c3d4b4be\\library\\core\\src\\result.rs" "B8796BFD39553E2D41DFAFB6FCF5514D54688E9F" 2
	.cv_loc	61 29 744 0
.seh_proc _ZN4core6result19Result$LT$T$C$E$GT$3map17h8264d909ef742972E
	subq	$104, %rsp
	.seh_stackalloc 104
	.seh_endprologue
	movq	%rcx, 32(%rsp)
.Ltmp116:
	.cv_loc	61 29 745 0
	movb	$1, 71(%rsp)
	movq	32(%rsp), %rdx
	xorl	%eax, %eax
	movl	$1, %ecx
	cmpq	$0, %rdx
	cmoveq	%rcx, %rax
	cmpq	$0, %rax
	jne	.LBB30_2
	.cv_loc	61 29 746 0
	movq	32(%rsp), %rax
	movq	%rax, 88(%rsp)
.Ltmp117:
	.cv_loc	61 29 746 0
	movb	$0, 71(%rsp)
	movq	%rax, 56(%rsp)
	movq	56(%rsp), %rcx
	callq	_ZN4core5array98_$LT$impl$u20$core..convert..TryFrom$LT$$RF$$u5b$T$u5d$$GT$$u20$for$u20$$u5b$T$u3b$$u20$N$u5d$$GT$8try_from28_$u7b$$u7b$closure$u7d$$u7d$17h73d35ca3e454d6ddE
	movl	%eax, 100(%rsp)
	movl	100(%rsp), %eax
	movl	%eax, 52(%rsp)
	movl	52(%rsp), %eax
	movl	%eax, 41(%rsp)
	movb	$0, 40(%rsp)
.Ltmp118:
	.cv_loc	61 29 746 0
	jmp	.LBB30_3
.LBB30_2:
.Ltmp119:
	.cv_loc	61 29 747 0
	movb	$1, 40(%rsp)
.Ltmp120:
.LBB30_3:
	.cv_loc	61 29 749 0
	testb	$1, 71(%rsp)
	jne	.LBB30_5
.LBB30_4:
	movl	40(%rsp), %eax
	movzbl	44(%rsp), %ecx
	shlq	$32, %rcx
	orq	%rcx, %rax
	addq	$104, %rsp
	retq
.LBB30_5:
	jmp	.LBB30_4
.Ltmp121:
.Lfunc_end30:
	.seh_endproc

	.def	_ZN4core6result19Result$LT$T$C$E$GT$3map17ha3494207a3374862E;
	.scl	3;
	.type	32;
	.endef
	.section	.text,"xr",one_only,_ZN4core6result19Result$LT$T$C$E$GT$3map17ha3494207a3374862E
	.p2align	4, 0x90
_ZN4core6result19Result$LT$T$C$E$GT$3map17ha3494207a3374862E:
.Lfunc_begin31:
	.cv_func_id 62
	.cv_loc	62 29 744 0
.seh_proc _ZN4core6result19Result$LT$T$C$E$GT$3map17ha3494207a3374862E
	subq	$120, %rsp
	.seh_stackalloc 120
	.seh_endprologue
	movq	%rcx, 40(%rsp)
	movq	%rcx, 48(%rsp)
	movq	%rdx, 56(%rsp)
.Ltmp122:
	.cv_loc	62 29 745 0
	movb	$1, 87(%rsp)
	movq	56(%rsp), %rdx
	xorl	%eax, %eax
	movl	$1, %ecx
	cmpq	$0, %rdx
	cmoveq	%rcx, %rax
	cmpq	$0, %rax
	jne	.LBB31_2
	.cv_loc	62 29 746 0
	movq	56(%rsp), %rax
	movq	%rax, 104(%rsp)
.Ltmp123:
	.cv_loc	62 29 746 0
	movb	$0, 87(%rsp)
	movq	%rax, 72(%rsp)
	movq	72(%rsp), %rcx
	callq	_ZN4core5array98_$LT$impl$u20$core..convert..TryFrom$LT$$RF$$u5b$T$u5d$$GT$$u20$for$u20$$u5b$T$u3b$$u20$N$u5d$$GT$8try_from28_$u7b$$u7b$closure$u7d$$u7d$17h99ac501fab99eda5E
	movq	%rax, %rcx
	movq	40(%rsp), %rax
	movq	%rcx, 112(%rsp)
	movq	112(%rsp), %rcx
	movq	%rcx, 64(%rsp)
	movq	64(%rsp), %rcx
	movq	%rcx, 1(%rax)
	movb	$0, (%rax)
.Ltmp124:
	.cv_loc	62 29 746 0
	jmp	.LBB31_3
.LBB31_2:
	.cv_loc	62 29 747 0
	movq	40(%rsp), %rax
.Ltmp125:
	movb	$1, (%rax)
.Ltmp126:
.LBB31_3:
	.cv_loc	62 29 749 0
	testb	$1, 87(%rsp)
	jne	.LBB31_5
.LBB31_4:
	movq	48(%rsp), %rax
	addq	$120, %rsp
	retq
.LBB31_5:
	jmp	.LBB31_4
.Ltmp127:
.Lfunc_end31:
	.seh_endproc

	.def	_ZN4core6result19Result$LT$T$C$E$GT$6expect17h2f1a2f499414f0ddE;
	.scl	3;
	.type	32;
	.endef
	.section	.text,"xr",one_only,_ZN4core6result19Result$LT$T$C$E$GT$6expect17h2f1a2f499414f0ddE
	.p2align	4, 0x90
_ZN4core6result19Result$LT$T$C$E$GT$6expect17h2f1a2f499414f0ddE:
.Lfunc_begin32:
	.cv_func_id 63
	.cv_loc	63 29 1027 0
.seh_proc _ZN4core6result19Result$LT$T$C$E$GT$6expect17h2f1a2f499414f0ddE
	.seh_handler __CxxFrameHandler3, @unwind, @except
	pushq	%rbp
	.seh_pushreg %rbp
	subq	$128, %rsp
	.seh_stackalloc 128
	leaq	128(%rsp), %rbp
	.seh_setframe %rbp, 128
	.seh_endprologue
	movq	$-2, -8(%rbp)
	movq	%r9, -80(%rbp)
	movq	%r8, -72(%rbp)
	movq	%rdx, -64(%rbp)
	movl	%ecx, %eax
	movl	%eax, -48(%rbp)
	shrq	$32, %rcx
	movb	%cl, %al
	movb	%al, -44(%rbp)
	movl	-48(%rbp), %eax
	movl	%eax, -56(%rbp)
	movb	-44(%rbp), %al
	movb	%al, -52(%rbp)
	movq	%rdx, -24(%rbp)
	movq	%r8, -16(%rbp)
.Ltmp130:
	.cv_loc	63 29 1031 0
	movb	-56(%rbp), %al
	andb	$1, %al
	movzbl	%al, %eax
	cmpq	$0, %rax
	jne	.LBB32_2
	.cv_loc	63 29 1032 0
	movl	-55(%rbp), %eax
	movl	%eax, -36(%rbp)
	.cv_loc	63 29 1035 0
	movl	-36(%rbp), %eax
	addq	$128, %rsp
	popq	%rbp
	retq
.LBB32_2:
	.cv_loc	63 29 1033 0
.Ltmp128:
	movq	-72(%rbp), %rdx
	movq	-64(%rbp), %rcx
	movq	-80(%rbp), %r8
.Ltmp131:
	movq	%rsp, %rax
	movq	%r8, 32(%rax)
	leaq	__unnamed_8(%rip), %r9
	leaq	-32(%rbp), %r8
	callq	_ZN4core6result13unwrap_failed17h60af46ab7bf10748E
.Ltmp129:
	jmp	.LBB32_4
.Ltmp132:
.LBB32_4:
	ud2
	.seh_handlerdata
	.long	($cppxdata$_ZN4core6result19Result$LT$T$C$E$GT$6expect17h2f1a2f499414f0ddE)@IMGREL
	.section	.text,"xr",one_only,_ZN4core6result19Result$LT$T$C$E$GT$6expect17h2f1a2f499414f0ddE
	.seh_endproc
	.def	"?dtor$3@?0?_ZN4core6result19Result$LT$T$C$E$GT$6expect17h2f1a2f499414f0ddE@4HA";
	.scl	3;
	.type	32;
	.endef
	.p2align	4, 0x90
"?dtor$3@?0?_ZN4core6result19Result$LT$T$C$E$GT$6expect17h2f1a2f499414f0ddE@4HA":
.seh_proc "?dtor$3@?0?_ZN4core6result19Result$LT$T$C$E$GT$6expect17h2f1a2f499414f0ddE@4HA"
.LBB32_3:
	movq	%rdx, 16(%rsp)
	pushq	%rbp
	.seh_pushreg %rbp
	subq	$48, %rsp
	.seh_stackalloc 48
	leaq	128(%rdx), %rbp
	.seh_endprologue
	.cv_loc	63 29 1027 0
	addq	$48, %rsp
	popq	%rbp
	retq
.Ltmp133:
.Lfunc_end32:
	.seh_handlerdata
	.section	.text,"xr",one_only,_ZN4core6result19Result$LT$T$C$E$GT$6expect17h2f1a2f499414f0ddE
	.seh_endproc
	.section	.xdata,"dr",associative,_ZN4core6result19Result$LT$T$C$E$GT$6expect17h2f1a2f499414f0ddE
	.p2align	2, 0x0
$cppxdata$_ZN4core6result19Result$LT$T$C$E$GT$6expect17h2f1a2f499414f0ddE:
	.long	429065506
	.long	1
	.long	($stateUnwindMap$_ZN4core6result19Result$LT$T$C$E$GT$6expect17h2f1a2f499414f0ddE)@IMGREL
	.long	0
	.long	0
	.long	3
	.long	($ip2state$_ZN4core6result19Result$LT$T$C$E$GT$6expect17h2f1a2f499414f0ddE)@IMGREL
	.long	120
	.long	0
	.long	1
$stateUnwindMap$_ZN4core6result19Result$LT$T$C$E$GT$6expect17h2f1a2f499414f0ddE:
	.long	-1
	.long	"?dtor$3@?0?_ZN4core6result19Result$LT$T$C$E$GT$6expect17h2f1a2f499414f0ddE@4HA"@IMGREL
$ip2state$_ZN4core6result19Result$LT$T$C$E$GT$6expect17h2f1a2f499414f0ddE:
	.long	.Lfunc_begin32@IMGREL
	.long	-1
	.long	.Ltmp128@IMGREL+1
	.long	0
	.long	.Ltmp129@IMGREL+1
	.long	-1
	.section	.text,"xr",one_only,_ZN4core6result19Result$LT$T$C$E$GT$6expect17h2f1a2f499414f0ddE

	.def	_ZN4core6result19Result$LT$T$C$E$GT$6expect17h6fe686c637bfd8d5E;
	.scl	3;
	.type	32;
	.endef
	.section	.text,"xr",one_only,_ZN4core6result19Result$LT$T$C$E$GT$6expect17h6fe686c637bfd8d5E
	.p2align	4, 0x90
_ZN4core6result19Result$LT$T$C$E$GT$6expect17h6fe686c637bfd8d5E:
.Lfunc_begin33:
	.cv_func_id 64
	.cv_loc	64 29 1027 0
.seh_proc _ZN4core6result19Result$LT$T$C$E$GT$6expect17h6fe686c637bfd8d5E
	.seh_handler __CxxFrameHandler3, @unwind, @except
	pushq	%rbp
	.seh_pushreg %rbp
	subq	$112, %rsp
	.seh_stackalloc 112
	leaq	112(%rsp), %rbp
	.seh_setframe %rbp, 112
	.seh_endprologue
	movq	$-2, -8(%rbp)
	movq	%r9, -72(%rbp)
	movq	%r8, -64(%rbp)
	movq	%rdx, -56(%rbp)
	movq	%rcx, -48(%rbp)
.Ltmp136:
	movq	%rdx, -24(%rbp)
	movq	%r8, -16(%rbp)
.Ltmp137:
	.cv_loc	64 29 1031 0
	movb	(%rcx), %al
	andb	$1, %al
	movzbl	%al, %eax
	cmpq	$0, %rax
.Ltmp138:
	jne	.LBB33_2
.Ltmp139:
	.cv_loc	64 29 1032 0
	movq	-48(%rbp), %rax
	movq	1(%rax), %rax
	movq	%rax, -40(%rbp)
	.cv_loc	64 29 1035 0
	movq	-40(%rbp), %rax
	addq	$112, %rsp
	popq	%rbp
	retq
.Ltmp140:
.LBB33_2:
	.cv_loc	64 29 1033 0
.Ltmp134:
	movq	-64(%rbp), %rdx
	movq	-56(%rbp), %rcx
	movq	-72(%rbp), %r8
.Ltmp141:
	movq	%rsp, %rax
	movq	%r8, 32(%rax)
	leaq	__unnamed_8(%rip), %r9
	leaq	-32(%rbp), %r8
	callq	_ZN4core6result13unwrap_failed17h60af46ab7bf10748E
.Ltmp135:
	jmp	.LBB33_4
.Ltmp142:
.LBB33_4:
	ud2
.Ltmp143:
	.seh_handlerdata
	.long	($cppxdata$_ZN4core6result19Result$LT$T$C$E$GT$6expect17h6fe686c637bfd8d5E)@IMGREL
	.section	.text,"xr",one_only,_ZN4core6result19Result$LT$T$C$E$GT$6expect17h6fe686c637bfd8d5E
	.seh_endproc
	.def	"?dtor$3@?0?_ZN4core6result19Result$LT$T$C$E$GT$6expect17h6fe686c637bfd8d5E@4HA";
	.scl	3;
	.type	32;
	.endef
	.p2align	4, 0x90
"?dtor$3@?0?_ZN4core6result19Result$LT$T$C$E$GT$6expect17h6fe686c637bfd8d5E@4HA":
.seh_proc "?dtor$3@?0?_ZN4core6result19Result$LT$T$C$E$GT$6expect17h6fe686c637bfd8d5E@4HA"
.LBB33_3:
	movq	%rdx, 16(%rsp)
	pushq	%rbp
	.seh_pushreg %rbp
	subq	$48, %rsp
	.seh_stackalloc 48
	leaq	112(%rdx), %rbp
.Ltmp144:
	.seh_endprologue
	.cv_loc	64 29 1027 0
	addq	$48, %rsp
	popq	%rbp
	retq
.Ltmp145:
.Lfunc_end33:
	.seh_handlerdata
	.section	.text,"xr",one_only,_ZN4core6result19Result$LT$T$C$E$GT$6expect17h6fe686c637bfd8d5E
	.seh_endproc
	.section	.xdata,"dr",associative,_ZN4core6result19Result$LT$T$C$E$GT$6expect17h6fe686c637bfd8d5E
	.p2align	2, 0x0
$cppxdata$_ZN4core6result19Result$LT$T$C$E$GT$6expect17h6fe686c637bfd8d5E:
	.long	429065506
	.long	1
	.long	($stateUnwindMap$_ZN4core6result19Result$LT$T$C$E$GT$6expect17h6fe686c637bfd8d5E)@IMGREL
	.long	0
	.long	0
	.long	3
	.long	($ip2state$_ZN4core6result19Result$LT$T$C$E$GT$6expect17h6fe686c637bfd8d5E)@IMGREL
	.long	104
	.long	0
	.long	1
$stateUnwindMap$_ZN4core6result19Result$LT$T$C$E$GT$6expect17h6fe686c637bfd8d5E:
	.long	-1
	.long	"?dtor$3@?0?_ZN4core6result19Result$LT$T$C$E$GT$6expect17h6fe686c637bfd8d5E@4HA"@IMGREL
$ip2state$_ZN4core6result19Result$LT$T$C$E$GT$6expect17h6fe686c637bfd8d5E:
	.long	.Lfunc_begin33@IMGREL
	.long	-1
	.long	.Ltmp134@IMGREL+1
	.long	0
	.long	.Ltmp135@IMGREL+1
	.long	-1
	.section	.text,"xr",one_only,_ZN4core6result19Result$LT$T$C$E$GT$6expect17h6fe686c637bfd8d5E

	.def	_ZN4core6result19Result$LT$T$C$E$GT$7map_err17h6fb62e5b4a49b168E;
	.scl	3;
	.type	32;
	.endef
	.section	.text,"xr",one_only,_ZN4core6result19Result$LT$T$C$E$GT$7map_err17h6fb62e5b4a49b168E
	.p2align	4, 0x90
_ZN4core6result19Result$LT$T$C$E$GT$7map_err17h6fb62e5b4a49b168E:
.Lfunc_begin34:
	.cv_func_id 65
	.cv_loc	65 29 825 0
.seh_proc _ZN4core6result19Result$LT$T$C$E$GT$7map_err17h6fb62e5b4a49b168E
	subq	$120, %rsp
	.seh_stackalloc 120
	.seh_endprologue
	movq	%rcx, 32(%rsp)
	movq	%rdx, 40(%rsp)
.Ltmp146:
	.cv_loc	65 29 826 0
	movb	$1, 87(%rsp)
	movabsq	$-9223372036854775807, %rdx
	movl	$1, %eax
	xorl	%ecx, %ecx
	cmpq	%rdx, 32(%rsp)
	cmoveq	%rcx, %rax
	cmpq	$0, %rax
	jne	.LBB34_2
.Ltmp147:
	.cv_loc	65 29 827 0
	movabsq	$-9223372036854775807, %rax
	movq	%rax, 48(%rsp)
.Ltmp148:
	.cv_loc	65 29 827 0
	jmp	.LBB34_3
.LBB34_2:
	.cv_loc	65 29 828 0
	movq	32(%rsp), %rcx
	movq	40(%rsp), %rax
	movq	%rcx, 104(%rsp)
	movq	%rax, 112(%rsp)
.Ltmp149:
	.cv_loc	65 29 828 0
	movb	$0, 87(%rsp)
	movq	%rcx, 64(%rsp)
	movq	%rax, 72(%rsp)
	movq	64(%rsp), %rcx
	movq	72(%rsp), %rdx
	callq	_ZN5alloc7raw_vec14handle_reserve28_$u7b$$u7b$closure$u7d$$u7d$17h87828e0d625a2a04E
	movq	%rax, 48(%rsp)
	movq	%rdx, 56(%rsp)
.Ltmp150:
.LBB34_3:
	.cv_loc	65 29 830 0
	testb	$1, 87(%rsp)
	jne	.LBB34_5
.LBB34_4:
	movq	48(%rsp), %rax
	movq	56(%rsp), %rdx
	addq	$120, %rsp
	retq
.LBB34_5:
	jmp	.LBB34_4
.Ltmp151:
.Lfunc_end34:
	.seh_endproc

	.def	_ZN4core6result19Result$LT$T$C$E$GT$7map_err17h78815b74a86b2770E;
	.scl	3;
	.type	32;
	.endef
	.section	.text,"xr",one_only,_ZN4core6result19Result$LT$T$C$E$GT$7map_err17h78815b74a86b2770E
	.p2align	4, 0x90
_ZN4core6result19Result$LT$T$C$E$GT$7map_err17h78815b74a86b2770E:
.Lfunc_begin35:
	.cv_func_id 66
	.cv_loc	66 29 825 0
.seh_proc _ZN4core6result19Result$LT$T$C$E$GT$7map_err17h78815b74a86b2770E
	subq	$104, %rsp
	.seh_stackalloc 104
	.seh_endprologue
	movq	%rcx, 32(%rsp)
	movq	%rcx, 40(%rsp)
	movq	%rdx, 48(%rsp)
	movq	%r8, 56(%rsp)
.Ltmp152:
	.cv_loc	66 29 826 0
	movb	$1, 71(%rsp)
	xorl	%eax, %eax
	movl	$1, %ecx
	cmpq	$0, 48(%rsp)
	cmoveq	%rcx, %rax
	cmpq	$0, %rax
	jne	.LBB35_2
	.cv_loc	66 29 827 0
	movq	32(%rsp), %rax
	movq	48(%rsp), %rdx
	movq	56(%rsp), %rcx
	movq	%rdx, 88(%rsp)
	movq	%rcx, 96(%rsp)
.Ltmp153:
	.cv_loc	66 29 827 0
	movq	%rdx, 8(%rax)
	movq	%rcx, 16(%rax)
	movq	$0, (%rax)
.Ltmp154:
	.cv_loc	66 29 827 0
	jmp	.LBB35_3
.LBB35_2:
.Ltmp155:
	.cv_loc	66 29 828 0
	movb	$0, 71(%rsp)
	callq	_ZN5alloc7raw_vec11finish_grow28_$u7b$$u7b$closure$u7d$$u7d$17he41aa3531eb11a1aE
	movq	%rax, %rcx
	movq	32(%rsp), %rax
	movq	%rcx, 8(%rax)
	movq	%rdx, 16(%rax)
	movq	$1, (%rax)
.Ltmp156:
.LBB35_3:
	.cv_loc	66 29 830 0
	testb	$1, 71(%rsp)
	jne	.LBB35_5
.LBB35_4:
	movq	40(%rsp), %rax
	addq	$104, %rsp
	retq
.LBB35_5:
	jmp	.LBB35_4
.Ltmp157:
.Lfunc_end35:
	.seh_endproc

	.def	_ZN4core6result19Result$LT$T$C$E$GT$7map_err17hbb23f2f8f2956c20E;
	.scl	3;
	.type	32;
	.endef
	.section	.text,"xr",one_only,_ZN4core6result19Result$LT$T$C$E$GT$7map_err17hbb23f2f8f2956c20E
	.p2align	4, 0x90
_ZN4core6result19Result$LT$T$C$E$GT$7map_err17hbb23f2f8f2956c20E:
.Lfunc_begin36:
	.cv_func_id 67
	.cv_loc	67 29 825 0
.seh_proc _ZN4core6result19Result$LT$T$C$E$GT$7map_err17hbb23f2f8f2956c20E
	subq	$120, %rsp
	.seh_stackalloc 120
	.seh_endprologue
	movq	%r9, 40(%rsp)
	movq	%rcx, 48(%rsp)
	movq	%rcx, 56(%rsp)
	movq	%rdx, 64(%rsp)
	movq	%r8, 72(%rsp)
	movq	%r9, 88(%rsp)
.Ltmp158:
	.cv_loc	67 29 826 0
	movb	$1, 87(%rsp)
	movq	64(%rsp), %rdx
	xorl	%eax, %eax
	movl	$1, %ecx
	cmpq	$0, %rdx
	cmoveq	%rcx, %rax
	cmpq	$0, %rax
	jne	.LBB36_2
	.cv_loc	67 29 827 0
	movq	48(%rsp), %rax
	movq	64(%rsp), %rdx
	movq	72(%rsp), %rcx
	movq	%rdx, 104(%rsp)
	movq	%rcx, 112(%rsp)
.Ltmp159:
	.cv_loc	67 29 827 0
	movq	%rdx, 8(%rax)
	movq	%rcx, 16(%rax)
	movq	$0, (%rax)
.Ltmp160:
	.cv_loc	67 29 827 0
	jmp	.LBB36_3
.LBB36_2:
	.cv_loc	67 29 828 0
	movq	40(%rsp), %rcx
.Ltmp161:
	movb	$0, 87(%rsp)
	callq	_ZN5alloc7raw_vec11finish_grow28_$u7b$$u7b$closure$u7d$$u7d$17h907273be00313bb1E
	movq	%rax, %rcx
	movq	48(%rsp), %rax
	movq	%rcx, 8(%rax)
	movq	%rdx, 16(%rax)
	movq	$1, (%rax)
.Ltmp162:
.LBB36_3:
	.cv_loc	67 29 830 0
	testb	$1, 87(%rsp)
	jne	.LBB36_5
.LBB36_4:
	movq	56(%rsp), %rax
	addq	$120, %rsp
	retq
.LBB36_5:
	jmp	.LBB36_4
.Ltmp163:
.Lfunc_end36:
	.seh_endproc

	.def	_ZN52_$LT$T$u20$as$u20$alloc..slice..hack..ConvertVec$GT$6to_vec17h5d3418fccb3a3c76E;
	.scl	3;
	.type	32;
	.endef
	.section	.text,"xr",one_only,_ZN52_$LT$T$u20$as$u20$alloc..slice..hack..ConvertVec$GT$6to_vec17h5d3418fccb3a3c76E
	.p2align	4, 0x90
_ZN52_$LT$T$u20$as$u20$alloc..slice..hack..ConvertVec$GT$6to_vec17h5d3418fccb3a3c76E:
.Lfunc_begin37:
	.cv_func_id 68
	.cv_file	30 "/rustc/5680fa18feaa87f3ff04063800aec256c3d4b4be\\library\\alloc\\src\\slice.rs" "D5CD8823BDB81056A4DC85B667A10C31B7A3E5F3" 2
	.cv_loc	68 30 161 0
.seh_proc _ZN52_$LT$T$u20$as$u20$alloc..slice..hack..ConvertVec$GT$6to_vec17h5d3418fccb3a3c76E
	.seh_handler __CxxFrameHandler3, @unwind, @except
	pushq	%rbp
	.seh_pushreg %rbp
	subq	$208, %rsp
	.seh_stackalloc 208
	leaq	128(%rsp), %rbp
	.seh_setframe %rbp, 128
	.seh_endprologue
	movq	$-2, 72(%rbp)
	movq	%r8, -88(%rbp)
	movq	%rdx, -96(%rbp)
	movq	%rcx, %rax
	movq	-88(%rbp), %rcx
	movq	%rax, -80(%rbp)
	movq	%rax, -72(%rbp)
	movq	%rdx, -24(%rbp)
	movq	%rcx, -16(%rbp)
.Ltmp166:
	.cv_loc	68 30 162 0
	movq	%rcx, -8(%rbp)
	.cv_inline_site_id 69 within 68 inlined_at 30 162 0
	.cv_inline_site_id 70 within 69 inlined_at 11 670 0
	.cv_loc	70 12 130 0
.Ltmp164:
	xorl	%eax, %eax
	movb	%al, %dl
.Ltmp167:
	callq	_ZN5alloc7raw_vec19RawVec$LT$T$C$A$GT$11allocate_in17hf96b6a6179d69a35E
.Ltmp165:
	movq	%rdx, -64(%rbp)
	movq	%rax, -56(%rbp)
	jmp	.LBB37_2
.Ltmp168:
.LBB37_2:
	.cv_loc	69 11 670 0
	movq	-88(%rbp), %r8
	movq	-96(%rbp), %rdx
	movq	-64(%rbp), %rax
	movq	-56(%rbp), %rcx
	movq	%rcx, -48(%rbp)
	movq	%rax, -40(%rbp)
	movq	$0, -32(%rbp)
.Ltmp169:
	.cv_file	31 "/rustc/5680fa18feaa87f3ff04063800aec256c3d4b4be\\library\\core\\src\\slice\\mod.rs" "A58EDC3ECC52B0CEE23313F8B0B2E7668E2B28FC" 2
	.cv_inline_site_id 71 within 68 inlined_at 30 167 0
	.cv_loc	71 31 736 0
	movq	%rdx, (%rbp)
.Ltmp170:
	.cv_loc	68 30 167 0
	leaq	-48(%rbp), %rax
	movq	%rax, 8(%rbp)
.Ltmp171:
	.cv_loc	71 11 1273 0
	leaq	-48(%rbp), %rax
	movq	%rax, 16(%rbp)
.Ltmp172:
	.cv_inline_site_id 72 within 71 inlined_at 11 1273 0
	.cv_loc	72 12 223 0
	movq	-48(%rbp), %rcx
	movq	%rcx, 24(%rbp)
.Ltmp173:
	.cv_inline_site_id 73 within 72 inlined_at 12 223 0
	.cv_loc	73 13 107 0
	movq	%rcx, 32(%rbp)
.Ltmp174:
	.cv_inline_site_id 74 within 73 inlined_at 13 107 0
	.cv_loc	74 14 326 0
	movq	%rcx, 40(%rbp)
.Ltmp175:
	.cv_loc	68 30 167 0
	movq	%r8, 48(%rbp)
.Ltmp176:
	.cv_inline_site_id 75 within 71 inlined_at 2 1280 0
	.cv_loc	75 6 2680 0
	callq	memcpy
	movq	-88(%rbp), %rdx
	movq	-80(%rbp), %rcx
	movq	-72(%rbp), %rax
.Ltmp177:
	.cv_loc	68 30 168 0
	leaq	-48(%rbp), %r8
	movq	%r8, 56(%rbp)
	movq	%rdx, 64(%rbp)
.Ltmp178:
	.cv_inline_site_id 76 within 68 inlined_at 30 168 0
	.cv_loc	76 11 1366 0
	movq	%rdx, -32(%rbp)
.Ltmp179:
	.cv_loc	68 30 170 0
	movq	-48(%rbp), %rdx
	movq	%rdx, (%rcx)
	movq	-40(%rbp), %rdx
	movq	%rdx, 8(%rcx)
	movq	-32(%rbp), %rdx
	movq	%rdx, 16(%rcx)
.Ltmp180:
	.cv_loc	68 30 171 0
	addq	$208, %rsp
	popq	%rbp
	retq
	.seh_handlerdata
	.long	($cppxdata$_ZN52_$LT$T$u20$as$u20$alloc..slice..hack..ConvertVec$GT$6to_vec17h5d3418fccb3a3c76E)@IMGREL
	.section	.text,"xr",one_only,_ZN52_$LT$T$u20$as$u20$alloc..slice..hack..ConvertVec$GT$6to_vec17h5d3418fccb3a3c76E
	.seh_endproc
	.def	"?dtor$1@?0?_ZN52_$LT$T$u20$as$u20$alloc..slice..hack..ConvertVec$GT$6to_vec17h5d3418fccb3a3c76E@4HA";
	.scl	3;
	.type	32;
	.endef
	.p2align	4, 0x90
"?dtor$1@?0?_ZN52_$LT$T$u20$as$u20$alloc..slice..hack..ConvertVec$GT$6to_vec17h5d3418fccb3a3c76E@4HA":
.seh_proc "?dtor$1@?0?_ZN52_$LT$T$u20$as$u20$alloc..slice..hack..ConvertVec$GT$6to_vec17h5d3418fccb3a3c76E@4HA"
.LBB37_1:
	movq	%rdx, 16(%rsp)
	pushq	%rbp
	.seh_pushreg %rbp
	subq	$32, %rsp
	.seh_stackalloc 32
	leaq	128(%rdx), %rbp
	.seh_endprologue
	.cv_loc	68 30 161 0
	addq	$32, %rsp
	popq	%rbp
	retq
.Ltmp181:
.Lfunc_end37:
	.seh_handlerdata
	.section	.text,"xr",one_only,_ZN52_$LT$T$u20$as$u20$alloc..slice..hack..ConvertVec$GT$6to_vec17h5d3418fccb3a3c76E
	.seh_endproc
	.section	.xdata,"dr",associative,_ZN52_$LT$T$u20$as$u20$alloc..slice..hack..ConvertVec$GT$6to_vec17h5d3418fccb3a3c76E
	.p2align	2, 0x0
$cppxdata$_ZN52_$LT$T$u20$as$u20$alloc..slice..hack..ConvertVec$GT$6to_vec17h5d3418fccb3a3c76E:
	.long	429065506
	.long	1
	.long	($stateUnwindMap$_ZN52_$LT$T$u20$as$u20$alloc..slice..hack..ConvertVec$GT$6to_vec17h5d3418fccb3a3c76E)@IMGREL
	.long	0
	.long	0
	.long	3
	.long	($ip2state$_ZN52_$LT$T$u20$as$u20$alloc..slice..hack..ConvertVec$GT$6to_vec17h5d3418fccb3a3c76E)@IMGREL
	.long	200
	.long	0
	.long	1
$stateUnwindMap$_ZN52_$LT$T$u20$as$u20$alloc..slice..hack..ConvertVec$GT$6to_vec17h5d3418fccb3a3c76E:
	.long	-1
	.long	"?dtor$1@?0?_ZN52_$LT$T$u20$as$u20$alloc..slice..hack..ConvertVec$GT$6to_vec17h5d3418fccb3a3c76E@4HA"@IMGREL
$ip2state$_ZN52_$LT$T$u20$as$u20$alloc..slice..hack..ConvertVec$GT$6to_vec17h5d3418fccb3a3c76E:
	.long	.Lfunc_begin37@IMGREL
	.long	-1
	.long	.Ltmp164@IMGREL+1
	.long	0
	.long	.Ltmp165@IMGREL+1
	.long	-1
	.section	.text,"xr",one_only,_ZN52_$LT$T$u20$as$u20$alloc..slice..hack..ConvertVec$GT$6to_vec17h5d3418fccb3a3c76E

	.def	_ZN54_$LT$$LP$$RP$$u20$as$u20$std..process..Termination$GT$6report17h0611c85b0a24b5edE;
	.scl	3;
	.type	32;
	.endef
	.section	.text,"xr",one_only,_ZN54_$LT$$LP$$RP$$u20$as$u20$std..process..Termination$GT$6report17h0611c85b0a24b5edE
	.p2align	4, 0x90
_ZN54_$LT$$LP$$RP$$u20$as$u20$std..process..Termination$GT$6report17h0611c85b0a24b5edE:
.Lfunc_begin38:
	.cv_func_id 77
	.cv_loc	77 19 2244 0
.seh_proc _ZN54_$LT$$LP$$RP$$u20$as$u20$std..process..Termination$GT$6report17h0611c85b0a24b5edE
	subq	$16, %rsp
	.seh_stackalloc 16
	.seh_endprologue
.Ltmp182:
	.cv_loc	77 19 2246 0
	xorl	%eax, %eax
	addq	$16, %rsp
	retq
.Ltmp183:
.Lfunc_end38:
	.seh_endproc

	.def	_ZN5alloc3vec12Vec$LT$T$GT$13with_capacity17h9f1256617f73ffb9E;
	.scl	3;
	.type	32;
	.endef
	.section	.text,"xr",one_only,_ZN5alloc3vec12Vec$LT$T$GT$13with_capacity17h9f1256617f73ffb9E
	.p2align	4, 0x90
_ZN5alloc3vec12Vec$LT$T$GT$13with_capacity17h9f1256617f73ffb9E:
.Lfunc_begin39:
	.cv_func_id 78
	.cv_loc	78 11 478 0
.seh_proc _ZN5alloc3vec12Vec$LT$T$GT$13with_capacity17h9f1256617f73ffb9E
	subq	$88, %rsp
	.seh_stackalloc 88
	.seh_endprologue
	movq	%rdx, 40(%rsp)
	movq	%rcx, %rax
	movq	40(%rsp), %rcx
	movq	%rax, 48(%rsp)
	movq	%rax, 56(%rsp)
.Ltmp184:
	.cv_inline_site_id 79 within 78 inlined_at 11 479 0
	.cv_inline_site_id 80 within 79 inlined_at 11 670 0
	.cv_loc	80 12 129 0
	movq	%rcx, 80(%rsp)
	.cv_loc	80 12 130 0
	xorl	%edx, %edx
	callq	_ZN5alloc7raw_vec19RawVec$LT$T$C$A$GT$11allocate_in17hf96b6a6179d69a35E
	movq	48(%rsp), %rcx
	movq	%rax, %r8
	movq	56(%rsp), %rax
.Ltmp185:
	.cv_loc	79 11 670 0
	movq	%r8, (%rcx)
	movq	%rdx, 8(%rcx)
	movq	$0, 16(%rcx)
.Ltmp186:
	.cv_loc	78 11 480 0
	addq	$88, %rsp
	retq
.Ltmp187:
.Lfunc_end39:
	.seh_endproc

	.def	_ZN5alloc3vec16Vec$LT$T$C$A$GT$17extend_from_slice17ha52634c16467510aE;
	.scl	3;
	.type	32;
	.endef
	.section	.text,"xr",one_only,_ZN5alloc3vec16Vec$LT$T$C$A$GT$17extend_from_slice17ha52634c16467510aE
	.p2align	4, 0x90
_ZN5alloc3vec16Vec$LT$T$C$A$GT$17extend_from_slice17ha52634c16467510aE:
.Lfunc_begin40:
	.cv_func_id 81
	.cv_loc	81 11 2386 0
.seh_proc _ZN5alloc3vec16Vec$LT$T$C$A$GT$17extend_from_slice17ha52634c16467510aE
	subq	$152, %rsp
	.seh_stackalloc 152
	.seh_endprologue
	movq	%r8, 40(%rsp)
	movq	%rdx, 48(%rsp)
	movq	%rcx, 56(%rsp)
	movq	%rcx, 96(%rsp)
	movq	%rdx, 104(%rsp)
	movq	%r8, 112(%rsp)
.Ltmp188:
	.cv_inline_site_id 82 within 81 inlined_at 11 2387 0
	.cv_inline_site_id 83 within 82 inlined_at 31 1002 0
	.cv_inline_site_id 84 within 83 inlined_at 7 90 0
	.cv_loc	84 31 736 0
	movq	%rdx, 120(%rsp)
.Ltmp189:
	.cv_loc	83 7 93 0
	xorl	%eax, %eax
	testb	$1, %al
	jne	.LBB40_2
	movq	40(%rsp), %rcx
	movq	48(%rsp), %rax
	movq	%rcx, 128(%rsp)
.Ltmp190:
	.cv_inline_site_id 85 within 83 inlined_at 7 93 0
	.cv_loc	85 2 921 0
	addq	%rcx, %rax
	movq	%rax, 80(%rsp)
.Ltmp191:
	.cv_loc	83 7 93 0
	jmp	.LBB40_3
.LBB40_2:
	movq	40(%rsp), %rax
	movq	%rax, 136(%rsp)
.Ltmp192:
	.cv_loc	85 3 575 0
	movq	%rax, 80(%rsp)
.Ltmp193:
.LBB40_3:
	.cv_loc	83 7 95 0
	movq	56(%rsp), %rcx
	movq	48(%rsp), %rax
.Ltmp194:
	movq	%rax, 144(%rsp)
.Ltmp195:
	.cv_inline_site_id 86 within 83 inlined_at 7 95 0
	.cv_loc	86 14 201 0
	movq	%rax, 88(%rsp)
.Ltmp196:
	.cv_loc	83 7 95 0
	movq	80(%rsp), %rax
	movq	88(%rsp), %rdx
	movq	%rdx, 64(%rsp)
	movq	%rax, 72(%rsp)
.Ltmp197:
	.cv_loc	81 11 2387 0
	movq	64(%rsp), %rdx
	movq	72(%rsp), %r8
	callq	_ZN132_$LT$alloc..vec..Vec$LT$T$C$A$GT$$u20$as$u20$alloc..vec..spec_extend..SpecExtend$LT$$RF$T$C$core..slice..iter..Iter$LT$T$GT$$GT$$GT$11spec_extend17h3a6ba09069e5ebc6E
	.cv_loc	81 11 2388 0
	nop
	addq	$152, %rsp
	retq
.Ltmp198:
.Lfunc_end40:
	.seh_endproc

	.def	_ZN5alloc3vec16Vec$LT$T$C$A$GT$3len17h29ff393bccd3698eE;
	.scl	3;
	.type	32;
	.endef
	.section	.text,"xr",one_only,_ZN5alloc3vec16Vec$LT$T$C$A$GT$3len17h29ff393bccd3698eE
	.p2align	4, 0x90
_ZN5alloc3vec16Vec$LT$T$C$A$GT$3len17h29ff393bccd3698eE:
.Lfunc_begin41:
	.cv_func_id 87
	.cv_loc	87 11 2050 0
.seh_proc _ZN5alloc3vec16Vec$LT$T$C$A$GT$3len17h29ff393bccd3698eE
	pushq	%rax
	.seh_stackalloc 8
	.seh_endprologue
	movq	%rcx, (%rsp)
.Ltmp199:
	.cv_loc	87 11 2051 0
	movq	16(%rcx), %rax
	.cv_loc	87 11 2052 0
	popq	%rcx
	retq
.Ltmp200:
.Lfunc_end41:
	.seh_endproc

	.def	_ZN5alloc3vec16Vec$LT$T$C$A$GT$7reserve17hc8467775d7e4f648E;
	.scl	3;
	.type	32;
	.endef
	.section	.text,"xr",one_only,_ZN5alloc3vec16Vec$LT$T$C$A$GT$7reserve17hc8467775d7e4f648E
	.p2align	4, 0x90
_ZN5alloc3vec16Vec$LT$T$C$A$GT$7reserve17hc8467775d7e4f648E:
.Lfunc_begin42:
	.cv_func_id 88
	.cv_loc	88 11 908 0
.seh_proc _ZN5alloc3vec16Vec$LT$T$C$A$GT$7reserve17hc8467775d7e4f648E
	subq	$104, %rsp
	.seh_stackalloc 104
	.seh_endprologue
	movq	%rdx, 32(%rsp)
	movq	%rcx, 40(%rsp)
	movq	%rcx, 64(%rsp)
	movq	%rdx, 72(%rsp)
.Ltmp201:
	.cv_loc	88 11 909 0
	movq	%rcx, 80(%rsp)
	movq	16(%rcx), %rax
	movq	%rax, 48(%rsp)
	movq	%rax, 88(%rsp)
.Ltmp202:
	.cv_inline_site_id 89 within 88 inlined_at 11 909 0
	.cv_loc	89 12 292 0
	movq	%rcx, 96(%rsp)
.Ltmp203:
	.cv_inline_site_id 90 within 89 inlined_at 12 292 0
	.cv_inline_site_id 91 within 90 inlined_at 12 365 0
	.cv_loc	91 12 231 0
	xorl	%eax, %eax
	testb	$1, %al
	jne	.LBB42_2
	movq	40(%rsp), %rax
	movq	8(%rax), %rax
	movq	%rax, 56(%rsp)
	jmp	.LBB42_3
.LBB42_2:
	movq	$-1, 56(%rsp)
.Ltmp204:
.LBB42_3:
	.cv_file	32 "/rustc/5680fa18feaa87f3ff04063800aec256c3d4b4be\\library\\core\\src\\num\\mod.rs" "4C94E592D1A1B961D71F56D1250A9E7DC85C5750" 2
	.cv_loc	91 32 1267 0
	movq	32(%rsp), %rax
	movq	48(%rsp), %rdx
.Ltmp205:
	movq	56(%rsp), %rcx
	subq	%rdx, %rcx
.Ltmp206:
	.cv_loc	90 12 365 0
	cmpq	%rcx, %rax
.Ltmp207:
	.cv_loc	89 12 292 0
	ja	.LBB42_5
.Ltmp208:
.LBB42_4:
	.cv_loc	88 11 910 0
	addq	$104, %rsp
	retq
.LBB42_5:
	.cv_loc	89 12 293 0
	movq	32(%rsp), %r8
	movq	48(%rsp), %rdx
	movq	40(%rsp), %rcx
.Ltmp209:
	callq	_ZN5alloc7raw_vec19RawVec$LT$T$C$A$GT$7reserve21do_reserve_and_handle17hddd13b47cacc1178E
	jmp	.LBB42_4
.Ltmp210:
.Lfunc_end42:
	.seh_endproc

	.def	_ZN5alloc5alloc6Global10alloc_impl17h0b6eb089916e3f87E;
	.scl	3;
	.type	32;
	.endef
	.section	.text,"xr",one_only,_ZN5alloc5alloc6Global10alloc_impl17h0b6eb089916e3f87E
	.p2align	4, 0x90
_ZN5alloc5alloc6Global10alloc_impl17h0b6eb089916e3f87E:
.Lfunc_begin43:
	.cv_func_id 92
	.cv_file	33 "/rustc/5680fa18feaa87f3ff04063800aec256c3d4b4be\\library\\alloc\\src\\alloc.rs" "59E87007895AF32A7B54D7FF1725F4BD7C213AC1" 2
	.cv_loc	92 33 180 0
.seh_proc _ZN5alloc5alloc6Global10alloc_impl17h0b6eb089916e3f87E
	subq	$600, %rsp
	.seh_stackalloc 600
	.seh_endprologue
	movb	%r9b, 47(%rsp)
.Ltmp211:
	.cv_inline_site_id 93 within 92 inlined_at 33 182 0
	.cv_loc	93 14 493 0
	movq	$0, 64(%rsp)
.Ltmp212:
	.cv_inline_site_id 94 within 93 inlined_at 14 495 0
	.cv_loc	94 3 773 0
	movq	$0, 72(%rsp)
.Ltmp213:
	.cv_inline_site_id 95 within 94 inlined_at 3 774 0
	.cv_loc	95 4 131 0
	movq	$0, 80(%rsp)
.Ltmp214:
	.cv_file	34 "/rustc/5680fa18feaa87f3ff04063800aec256c3d4b4be\\library\\core\\src\\convert\\mod.rs" "105AB4FFCF955E719D1AD775A7C1F67BD5642767" 2
	.cv_inline_site_id 96 within 92 inlined_at 33 186 0
	.cv_inline_site_id 97 within 96 inlined_at 29 1961 0
	.cv_loc	97 34 725 0
	movq	%rdx, 128(%rsp)
	movq	%r8, 136(%rsp)
	movq	%rcx, 368(%rsp)
	andb	$1, %r9b
	movb	%r9b, 383(%rsp)
.Ltmp215:
	.cv_loc	92 33 181 0
	leaq	128(%rsp), %rax
	movq	%rax, 384(%rsp)
.Ltmp216:
	.cv_inline_site_id 98 within 92 inlined_at 33 181 0
	.cv_loc	98 26 129 0
	movq	136(%rsp), %rax
	movq	%rax, 48(%rsp)
	movq	%rax, 392(%rsp)
.Ltmp217:
	.cv_loc	92 33 181 0
	cmpq	$0, %rax
	jne	.LBB43_2
	.cv_loc	92 33 182 0
	leaq	128(%rsp), %rax
	movq	%rax, 400(%rsp)
.Ltmp218:
	.cv_inline_site_id 99 within 93 inlined_at 26 216 0
	.cv_loc	99 26 140 0
	movq	128(%rsp), %rax
	movq	%rax, 408(%rsp)
.Ltmp219:
	.cv_inline_site_id 100 within 99 inlined_at 26 140 0
	.cv_loc	100 27 96 0
	movq	%rax, 264(%rsp)
	movq	264(%rsp), %rax
	movq	%rax, 416(%rsp)
.Ltmp220:
	.cv_loc	99 3 606 0
	movq	%rax, 424(%rsp)
.Ltmp221:
	.cv_loc	99 14 201 0
	movq	%rax, 176(%rsp)
.Ltmp222:
	.cv_loc	94 14 326 0
	movq	176(%rsp), %rax
	movq	%rax, 432(%rsp)
.Ltmp223:
	.cv_loc	95 15 58 0
	movq	%rax, 440(%rsp)
.Ltmp224:
	.cv_loc	95 4 136 0
	movq	%rax, 288(%rsp)
	movq	$0, 296(%rsp)
	movq	288(%rsp), %rcx
	movq	296(%rsp), %rax
	movq	%rcx, 272(%rsp)
	movq	%rax, 280(%rsp)
	movq	272(%rsp), %rcx
	movq	280(%rsp), %rax
	movq	%rcx, 448(%rsp)
	movq	%rax, 456(%rsp)
.Ltmp225:
	.cv_loc	94 14 201 0
	movq	%rcx, 160(%rsp)
	movq	%rax, 168(%rsp)
.Ltmp226:
	.cv_loc	92 33 182 0
	movq	160(%rsp), %rcx
	movq	168(%rsp), %rax
	movq	%rcx, 144(%rsp)
	movq	%rax, 152(%rsp)
	jmp	.LBB43_3
.LBB43_2:
	.cv_loc	92 33 185 0
	movb	47(%rsp), %al
.Ltmp227:
	testb	$1, %al
	jne	.LBB43_5
	jmp	.LBB43_4
.Ltmp228:
.LBB43_3:
	.cv_loc	92 33 190 0
	movq	144(%rsp), %rax
	movq	152(%rsp), %rdx
	addq	$600, %rsp
	retq
.LBB43_4:
.Ltmp229:
	.cv_loc	92 33 185 0
	movq	128(%rsp), %rcx
	movq	136(%rsp), %rax
	movq	%rcx, 208(%rsp)
	movq	%rax, 216(%rsp)
.Ltmp230:
	.cv_inline_site_id 101 within 92 inlined_at 33 185 0
	.cv_loc	101 33 100 0
	leaq	__rust_no_alloc_shim_is_unstable(%rip), %rax
	movq	%rax, 464(%rsp)
.Ltmp231:
	.cv_inline_site_id 102 within 101 inlined_at 33 100 0
	.cv_loc	102 3 1543 0
	movb	__rust_no_alloc_shim_is_unstable(%rip), %al
	movb	%al, 479(%rsp)
.Ltmp232:
	.cv_loc	101 33 102 0
	leaq	208(%rsp), %rax
	movq	%rax, 480(%rsp)
.Ltmp233:
	.cv_inline_site_id 103 within 101 inlined_at 33 102 0
	.cv_loc	103 26 129 0
	movq	216(%rsp), %rcx
.Ltmp234:
	.cv_loc	101 33 102 0
	leaq	208(%rsp), %rax
	movq	%rax, 488(%rsp)
.Ltmp235:
	.cv_loc	103 26 140 0
	movq	208(%rsp), %rax
	movq	%rax, 496(%rsp)
.Ltmp236:
	.cv_inline_site_id 104 within 103 inlined_at 26 140 0
	.cv_loc	104 27 96 0
	movq	%rax, 312(%rsp)
	movq	312(%rsp), %rdx
.Ltmp237:
	.cv_loc	101 33 102 0
	callq	__rust_alloc
	movq	%rax, 184(%rsp)
.Ltmp238:
	.cv_loc	92 33 185 0
	jmp	.LBB43_6
.LBB43_5:
	movq	128(%rsp), %rcx
	movq	136(%rsp), %rax
	movq	%rcx, 192(%rsp)
	movq	%rax, 200(%rsp)
.Ltmp239:
	.cv_loc	101 33 174 0
	leaq	192(%rsp), %rax
	movq	%rax, 504(%rsp)
.Ltmp240:
	.cv_inline_site_id 105 within 101 inlined_at 33 174 0
	.cv_loc	105 26 129 0
	movq	200(%rsp), %rcx
.Ltmp241:
	.cv_loc	101 33 174 0
	leaq	192(%rsp), %rax
	movq	%rax, 512(%rsp)
.Ltmp242:
	.cv_loc	105 26 140 0
	movq	192(%rsp), %rax
	movq	%rax, 520(%rsp)
.Ltmp243:
	.cv_inline_site_id 106 within 105 inlined_at 26 140 0
	.cv_loc	106 27 96 0
	movq	%rax, 304(%rsp)
	movq	304(%rsp), %rdx
.Ltmp244:
	.cv_loc	101 33 174 0
	callq	__rust_alloc_zeroed
	movq	%rax, 184(%rsp)
.Ltmp245:
.LBB43_6:
	.cv_loc	92 33 186 0
	movq	184(%rsp), %rax
	movq	%rax, 32(%rsp)
	movq	%rax, 528(%rsp)
.Ltmp246:
	.cv_inline_site_id 107 within 92 inlined_at 33 186 0
	.cv_inline_site_id 108 within 107 inlined_at 14 223 0
	.cv_loc	108 15 50 0
	movq	%rax, 328(%rsp)
	movq	328(%rsp), %rax
	movq	%rax, 536(%rsp)
.Ltmp247:
	.cv_inline_site_id 109 within 108 inlined_at 15 50 0
	.cv_loc	109 15 36 0
	cmpq	$0, %rax
	sete	%al
.Ltmp248:
	.cv_loc	107 14 223 0
	xorb	$-1, %al
	testb	$1, %al
	jne	.LBB43_8
	.cv_loc	107 14 227 0
	movq	$0, 240(%rsp)
	.cv_loc	107 14 223 0
	jmp	.LBB43_9
.LBB43_8:
	.cv_inline_site_id 110 within 107 inlined_at 14 225 0
	.cv_loc	110 14 201 0
	movq	32(%rsp), %rax
.Ltmp249:
	movq	%rax, 320(%rsp)
.Ltmp250:
	.cv_loc	107 14 225 0
	movq	320(%rsp), %rax
	movq	%rax, 240(%rsp)
.Ltmp251:
.LBB43_9:
	.cv_file	35 "/rustc/5680fa18feaa87f3ff04063800aec256c3d4b4be\\library\\core\\src\\option.rs" "07397BCC9F1117B86FBEE5CDB065D42C53B4A722" 2
	.cv_loc	107 35 1208 0
	movq	240(%rsp), %rdx
	movl	$1, %eax
	xorl	%ecx, %ecx
	cmpq	$0, %rdx
	cmoveq	%rcx, %rax
	cmpq	$0, %rax
	jne	.LBB43_11
	.cv_loc	107 35 1210 0
	movq	$0, 232(%rsp)
	jmp	.LBB43_12
.LBB43_11:
	.cv_loc	107 35 1209 0
	movq	240(%rsp), %rax
	movq	%rax, 544(%rsp)
.Ltmp252:
	.cv_loc	107 35 1209 0
	movq	%rax, 232(%rsp)
.Ltmp253:
.LBB43_12:
	.cv_loc	107 29 1948 0
	movq	232(%rsp), %rdx
	xorl	%eax, %eax
	movl	$1, %ecx
	cmpq	$0, %rdx
	cmoveq	%rcx, %rax
	cmpq	$0, %rax
	jne	.LBB43_14
	.cv_loc	107 29 1949 0
	movq	232(%rsp), %rax
	movq	%rax, 552(%rsp)
.Ltmp254:
	.cv_loc	107 29 1949 0
	movq	%rax, 224(%rsp)
.Ltmp255:
	.cv_loc	107 29 1949 0
	jmp	.LBB43_15
.LBB43_14:
.Ltmp256:
	.cv_loc	107 29 1950 0
	movq	$0, 224(%rsp)
.Ltmp257:
.LBB43_15:
	.cv_loc	92 33 186 0
	movq	224(%rsp), %rdx
	xorl	%eax, %eax
	movl	$1, %ecx
	cmpq	$0, %rdx
	cmoveq	%rcx, %rax
	cmpq	$0, %rax
	jne	.LBB43_17
	movq	48(%rsp), %rax
	movq	224(%rsp), %rcx
	movq	%rcx, 560(%rsp)
.Ltmp258:
	.cv_inline_site_id 111 within 92 inlined_at 33 187 0
	.cv_inline_site_id 112 within 111 inlined_at 14 495 0
	.cv_loc	112 14 326 0
	movq	%rcx, 568(%rsp)
.Ltmp259:
	.cv_inline_site_id 113 within 112 inlined_at 3 774 0
	.cv_loc	113 15 58 0
	movq	%rcx, 576(%rsp)
.Ltmp260:
	.cv_loc	113 4 136 0
	movq	%rcx, 352(%rsp)
	movq	%rax, 360(%rsp)
	movq	352(%rsp), %rcx
	movq	360(%rsp), %rax
	movq	%rcx, 336(%rsp)
	movq	%rax, 344(%rsp)
	movq	336(%rsp), %rcx
	movq	344(%rsp), %rax
	movq	%rcx, 584(%rsp)
	movq	%rax, 592(%rsp)
.Ltmp261:
	.cv_loc	112 14 201 0
	movq	%rcx, 248(%rsp)
	movq	%rax, 256(%rsp)
.Ltmp262:
	.cv_loc	92 33 187 0
	movq	248(%rsp), %rcx
	movq	256(%rsp), %rax
	movq	%rcx, 144(%rsp)
	movq	%rax, 152(%rsp)
.Ltmp263:
	.cv_loc	92 33 188 0
	jmp	.LBB43_3
.LBB43_17:
.Ltmp264:
	.cv_loc	96 29 1961 0
	movq	$0, 144(%rsp)
.Ltmp265:
	.cv_loc	92 33 190 0
	jmp	.LBB43_3
.Ltmp266:
.Lfunc_end43:
	.seh_endproc

	.def	_ZN5alloc5alloc6Global9grow_impl17h914beb8f04cacfafE;
	.scl	3;
	.type	32;
	.endef
	.section	.text,"xr",one_only,_ZN5alloc5alloc6Global9grow_impl17h914beb8f04cacfafE
	.p2align	4, 0x90
_ZN5alloc5alloc6Global9grow_impl17h914beb8f04cacfafE:
.Lfunc_begin44:
	.cv_func_id 114
	.cv_loc	114 33 194 0
.seh_proc _ZN5alloc5alloc6Global9grow_impl17h914beb8f04cacfafE
	subq	$728, %rsp
	.seh_stackalloc 728
	.seh_endprologue
	movq	%r9, %r10
	movq	%r8, %r11
	movq	%rdx, 80(%rsp)
	movq	%rcx, 88(%rsp)
	movb	784(%rsp), %al
	movb	%al, 103(%rsp)
	movq	776(%rsp), %r8
	movq	768(%rsp), %r9
.Ltmp267:
	.cv_inline_site_id 115 within 114 inlined_at 33 220 0
	.cv_loc	115 15 1463 0
	movb	$0, 166(%rsp)
.Ltmp268:
	.cv_inline_site_id 116 within 115 inlined_at 15 1468 0
	.cv_loc	116 6 2826 0
	movb	$0, 167(%rsp)
.Ltmp269:
	.cv_inline_site_id 117 within 114 inlined_at 33 231 0
	.cv_inline_site_id 118 within 117 inlined_at 29 1961 0
	.cv_loc	118 34 725 0
	movq	%r11, 200(%rsp)
	movq	%r10, 208(%rsp)
	movq	%r9, 216(%rsp)
	movq	%r8, 224(%rsp)
	movq	%rcx, 416(%rsp)
	movq	%rdx, 424(%rsp)
	andb	$1, %al
	movb	%al, 439(%rsp)
.Ltmp270:
	.cv_loc	114 33 206 0
	leaq	200(%rsp), %rax
	movq	%rax, 440(%rsp)
.Ltmp271:
	.cv_inline_site_id 119 within 114 inlined_at 33 206 0
	.cv_loc	119 26 129 0
	movq	208(%rsp), %rax
	movq	%rax, 104(%rsp)
.Ltmp272:
	.cv_loc	114 33 206 0
	cmpq	$0, %rax
	jne	.LBB44_2
	.cv_loc	114 33 207 0
	movq	88(%rsp), %rcx
	movb	103(%rsp), %r9b
	movq	216(%rsp), %rdx
	movq	224(%rsp), %r8
	andb	$1, %r9b
	callq	_ZN5alloc5alloc6Global10alloc_impl17h0b6eb089916e3f87E
	movq	%rdx, 240(%rsp)
	movq	%rax, 232(%rsp)
	jmp	.LBB44_3
.LBB44_2:
	.cv_loc	114 33 211 0
	leaq	200(%rsp), %rax
	movq	%rax, 448(%rsp)
.Ltmp273:
	.cv_inline_site_id 120 within 114 inlined_at 33 211 0
	.cv_loc	120 26 140 0
	movq	200(%rsp), %rax
	movq	%rax, 456(%rsp)
.Ltmp274:
	.cv_inline_site_id 121 within 120 inlined_at 26 140 0
	.cv_loc	121 27 96 0
	movq	%rax, 336(%rsp)
	movq	336(%rsp), %rax
.Ltmp275:
	.cv_loc	114 33 211 0
	leaq	216(%rsp), %rcx
	movq	%rcx, 464(%rsp)
.Ltmp276:
	.cv_loc	120 26 140 0
	movq	216(%rsp), %rcx
	movq	%rcx, 472(%rsp)
.Ltmp277:
	.cv_inline_site_id 122 within 120 inlined_at 26 140 0
	.cv_loc	122 27 96 0
	movq	%rcx, 344(%rsp)
	movq	344(%rsp), %rcx
.Ltmp278:
	.cv_loc	114 33 211 0
	cmpq	%rcx, %rax
	je	.LBB44_5
	jmp	.LBB44_4
.LBB44_3:
	.cv_loc	114 33 237 0
	jmp	.LBB44_25
.LBB44_4:
	.cv_loc	114 33 230 0
	movq	88(%rsp), %rcx
	movb	103(%rsp), %r9b
	movq	104(%rsp), %rax
	movq	%rax, 480(%rsp)
.Ltmp279:
	.cv_loc	114 33 231 0
	movq	216(%rsp), %rdx
	movq	224(%rsp), %r8
	andb	$1, %r9b
	callq	_ZN5alloc5alloc6Global10alloc_impl17h0b6eb089916e3f87E
	movq	%rdx, 328(%rsp)
	movq	%rax, 320(%rsp)
.Ltmp280:
	.cv_inline_site_id 123 within 114 inlined_at 33 231 0
	.cv_loc	123 29 1948 0
	movq	320(%rsp), %rdx
	xorl	%eax, %eax
	movl	$1, %ecx
	cmpq	$0, %rdx
	cmoveq	%rcx, %rax
	cmpq	$0, %rax
	je	.LBB44_6
	jmp	.LBB44_7
.Ltmp281:
.LBB44_5:
	.cv_loc	114 33 211 0
	movq	80(%rsp), %rcx
	movq	104(%rsp), %rax
	movq	%rax, 560(%rsp)
.Ltmp282:
	.cv_loc	114 33 212 0
	leaq	216(%rsp), %rax
	movq	%rax, 568(%rsp)
.Ltmp283:
	.cv_inline_site_id 124 within 114 inlined_at 33 212 0
	.cv_loc	124 26 129 0
	movq	224(%rsp), %r9
	movq	%r9, 64(%rsp)
	movq	%r9, 576(%rsp)
.Ltmp284:
	.cv_loc	114 33 215 0
	leaq	200(%rsp), %rax
	movq	%rax, 584(%rsp)
.Ltmp285:
	.cv_inline_site_id 125 within 114 inlined_at 33 217 0
	.cv_loc	125 14 326 0
	movq	%rcx, 592(%rsp)
.Ltmp286:
	.cv_loc	114 33 217 0
	movq	200(%rsp), %rdx
	movq	208(%rsp), %rax
	movq	%rdx, 248(%rsp)
	movq	%rax, 256(%rsp)
.Ltmp287:
	.cv_loc	125 33 140 0
	leaq	248(%rsp), %rax
	movq	%rax, 600(%rsp)
.Ltmp288:
	.cv_inline_site_id 126 within 125 inlined_at 33 140 0
	.cv_loc	126 26 129 0
	movq	256(%rsp), %rdx
.Ltmp289:
	.cv_loc	125 33 140 0
	leaq	248(%rsp), %rax
	movq	%rax, 608(%rsp)
.Ltmp290:
	.cv_loc	126 26 140 0
	movq	248(%rsp), %rax
	movq	%rax, 616(%rsp)
.Ltmp291:
	.cv_inline_site_id 127 within 126 inlined_at 26 140 0
	.cv_loc	127 27 96 0
	movq	%rax, 352(%rsp)
	movq	352(%rsp), %r8
.Ltmp292:
	.cv_loc	125 33 140 0
	callq	__rust_realloc
	movq	%rax, 72(%rsp)
	movq	%rax, 624(%rsp)
.Ltmp293:
	.cv_loc	114 33 218 0
	movq	%rax, 632(%rsp)
.Ltmp294:
	.cv_inline_site_id 128 within 114 inlined_at 33 218 0
	.cv_inline_site_id 129 within 128 inlined_at 14 223 0
	.cv_loc	129 15 50 0
	movq	%rax, 368(%rsp)
	movq	368(%rsp), %rax
	movq	%rax, 640(%rsp)
.Ltmp295:
	.cv_inline_site_id 130 within 129 inlined_at 15 50 0
	.cv_loc	130 15 36 0
	cmpq	$0, %rax
	sete	%al
.Ltmp296:
	.cv_loc	128 14 223 0
	xorb	$-1, %al
	testb	$1, %al
	jne	.LBB44_13
	jmp	.LBB44_12
.Ltmp297:
.LBB44_6:
	.cv_loc	123 29 1949 0
	movq	320(%rsp), %rcx
	movq	328(%rsp), %rax
	movq	%rcx, 488(%rsp)
	movq	%rax, 496(%rsp)
.Ltmp298:
	.cv_loc	123 29 1949 0
	movq	%rcx, 304(%rsp)
	movq	%rax, 312(%rsp)
.Ltmp299:
	.cv_loc	123 29 1949 0
	jmp	.LBB44_8
.LBB44_7:
.Ltmp300:
	.cv_loc	123 29 1950 0
	movq	$0, 304(%rsp)
.Ltmp301:
.LBB44_8:
	.cv_loc	114 33 231 0
	movq	304(%rsp), %rdx
	xorl	%eax, %eax
	movl	$1, %ecx
	cmpq	$0, %rdx
	cmoveq	%rcx, %rax
	cmpq	$0, %rax
	jne	.LBB44_10
	movq	80(%rsp), %rdx
	movq	104(%rsp), %r8
	movq	304(%rsp), %rax
	movq	%rax, 48(%rsp)
	movq	312(%rsp), %rcx
	movq	%rcx, 56(%rsp)
	movq	%rax, 504(%rsp)
	movq	%rcx, 512(%rsp)
.Ltmp302:
	.cv_loc	114 33 232 0
	movq	%rdx, 520(%rsp)
.Ltmp303:
	.cv_inline_site_id 131 within 114 inlined_at 33 232 0
	.cv_inline_site_id 132 within 131 inlined_at 14 558 0
	.cv_inline_site_id 133 within 132 inlined_at 14 539 0
	.cv_loc	133 14 326 0
	movq	%rax, 528(%rsp)
	movq	%rcx, 536(%rsp)
.Ltmp304:
	.cv_loc	133 15 2015 0
	movq	%rax, 544(%rsp)
.Ltmp305:
	.cv_loc	133 14 201 0
	movq	%rax, 408(%rsp)
.Ltmp306:
	.cv_loc	132 14 326 0
	movq	408(%rsp), %rcx
	movq	%rcx, 552(%rsp)
.Ltmp307:
	.cv_loc	131 6 2680 0
	shlq	$0, %r8
	callq	memcpy
	movq	88(%rsp), %rcx
	movq	80(%rsp), %rdx
.Ltmp308:
	.cv_loc	114 33 233 0
	movq	200(%rsp), %r8
	movq	208(%rsp), %r9
	callq	_ZN63_$LT$alloc..alloc..Global$u20$as$u20$core..alloc..Allocator$GT$10deallocate17hb2db397889d2fae8E
	movq	48(%rsp), %rcx
	movq	56(%rsp), %rax
	.cv_loc	114 33 234 0
	movq	%rcx, 232(%rsp)
	movq	%rax, 240(%rsp)
.Ltmp309:
	.cv_loc	114 33 235 0
	jmp	.LBB44_3
.LBB44_10:
.Ltmp310:
	.cv_loc	117 29 1961 0
	movq	$0, 232(%rsp)
.Ltmp311:
.LBB44_11:
	.cv_loc	114 33 237 0
	jmp	.LBB44_25
.LBB44_12:
.Ltmp312:
	.cv_loc	128 14 227 0
	movq	$0, 280(%rsp)
	.cv_loc	128 14 223 0
	jmp	.LBB44_14
.LBB44_13:
	.cv_inline_site_id 134 within 128 inlined_at 14 225 0
	.cv_loc	134 14 201 0
	movq	72(%rsp), %rax
.Ltmp313:
	movq	%rax, 360(%rsp)
.Ltmp314:
	.cv_loc	128 14 225 0
	movq	360(%rsp), %rax
	movq	%rax, 280(%rsp)
.Ltmp315:
.LBB44_14:
	.cv_loc	128 35 1208 0
	movq	280(%rsp), %rdx
	movl	$1, %eax
	xorl	%ecx, %ecx
	cmpq	$0, %rdx
	cmoveq	%rcx, %rax
	cmpq	$0, %rax
	jne	.LBB44_16
	.cv_loc	128 35 1210 0
	movq	$0, 272(%rsp)
	jmp	.LBB44_17
.LBB44_16:
	.cv_loc	128 35 1209 0
	movq	280(%rsp), %rax
	movq	%rax, 648(%rsp)
.Ltmp316:
	.cv_loc	128 35 1209 0
	movq	%rax, 272(%rsp)
.Ltmp317:
.LBB44_17:
	.cv_loc	128 29 1948 0
	movq	272(%rsp), %rdx
	xorl	%eax, %eax
	movl	$1, %ecx
	cmpq	$0, %rdx
	cmoveq	%rcx, %rax
	cmpq	$0, %rax
	jne	.LBB44_19
	.cv_loc	128 29 1949 0
	movq	272(%rsp), %rax
	movq	%rax, 656(%rsp)
.Ltmp318:
	.cv_loc	128 29 1949 0
	movq	%rax, 264(%rsp)
.Ltmp319:
	.cv_loc	128 29 1949 0
	jmp	.LBB44_20
.LBB44_19:
.Ltmp320:
	.cv_loc	128 29 1950 0
	movq	$0, 264(%rsp)
.Ltmp321:
.LBB44_20:
	.cv_loc	114 33 218 0
	movq	264(%rsp), %rdx
	xorl	%eax, %eax
	movl	$1, %ecx
	cmpq	$0, %rdx
	cmoveq	%rcx, %rax
	cmpq	$0, %rax
	jne	.LBB44_22
	movb	103(%rsp), %al
	movq	264(%rsp), %rcx
	movq	%rcx, 40(%rsp)
	movq	%rcx, 664(%rsp)
.Ltmp322:
	.cv_loc	114 33 219 0
	testb	$1, %al
	jne	.LBB44_24
	jmp	.LBB44_23
.Ltmp323:
.LBB44_22:
	.cv_inline_site_id 135 within 114 inlined_at 33 218 0
	.cv_loc	135 29 1961 0
	movq	$0, 232(%rsp)
.Ltmp324:
	.cv_file	36 "D:\\Reach\\Server\\reach_server\\src\\main.rs" "74FEF337E53F6F72C7E2300A33053FBF7106173F" 2
	.cv_loc	114 36 1 0
	jmp	.LBB44_11
.LBB44_23:
	.cv_inline_site_id 136 within 114 inlined_at 33 222 0
	.cv_inline_site_id 137 within 136 inlined_at 14 495 0
	.cv_loc	137 14 326 0
	movq	64(%rsp), %rax
	movq	40(%rsp), %rcx
.Ltmp325:
	movq	%rcx, 696(%rsp)
.Ltmp326:
	.cv_inline_site_id 138 within 137 inlined_at 3 774 0
	.cv_loc	138 15 58 0
	movq	%rcx, 704(%rsp)
.Ltmp327:
	.cv_loc	138 4 136 0
	movq	%rcx, 392(%rsp)
	movq	%rax, 400(%rsp)
	movq	392(%rsp), %rcx
	movq	400(%rsp), %rax
	movq	%rcx, 376(%rsp)
	movq	%rax, 384(%rsp)
	movq	376(%rsp), %rcx
	movq	384(%rsp), %rax
	movq	%rcx, 712(%rsp)
	movq	%rax, 720(%rsp)
.Ltmp328:
	.cv_loc	137 14 201 0
	movq	%rcx, 288(%rsp)
	movq	%rax, 296(%rsp)
.Ltmp329:
	.cv_loc	114 33 222 0
	movq	288(%rsp), %rcx
	movq	296(%rsp), %rax
	movq	%rcx, 232(%rsp)
	movq	%rax, 240(%rsp)
.Ltmp330:
	.cv_loc	114 33 223 0
	jmp	.LBB44_3
.LBB44_24:
	.cv_loc	114 33 220 0
	movq	104(%rsp), %rax
	movq	64(%rsp), %r8
	movq	72(%rsp), %rcx
.Ltmp331:
	movq	%rcx, 672(%rsp)
.Ltmp332:
	.cv_loc	115 15 1020 0
	addq	%rax, %rcx
	movq	%rcx, 680(%rsp)
.Ltmp333:
	.cv_loc	114 33 220 0
	subq	%rax, %r8
	movq	%r8, 688(%rsp)
.Ltmp334:
	.cv_loc	116 6 2839 0
	shlq	$0, %r8
	xorl	%edx, %edx
	callq	memset
.Ltmp335:
	.cv_loc	114 33 219 0
	jmp	.LBB44_23
.Ltmp336:
.LBB44_25:
	.cv_loc	114 33 237 0
	movq	232(%rsp), %rax
	movq	240(%rsp), %rdx
	addq	$728, %rsp
	retq
.Ltmp337:
.Lfunc_end44:
	.seh_endproc

	.def	_ZN5alloc5slice29_$LT$impl$u20$$u5b$T$u5d$$GT$6to_vec17h9a170942c802be6aE;
	.scl	3;
	.type	32;
	.endef
	.section	.text,"xr",one_only,_ZN5alloc5slice29_$LT$impl$u20$$u5b$T$u5d$$GT$6to_vec17h9a170942c802be6aE
	.p2align	4, 0x90
_ZN5alloc5slice29_$LT$impl$u20$$u5b$T$u5d$$GT$6to_vec17h9a170942c802be6aE:
.Lfunc_begin45:
	.cv_func_id 139
	.cv_loc	139 30 412 0
.seh_proc _ZN5alloc5slice29_$LT$impl$u20$$u5b$T$u5d$$GT$6to_vec17h9a170942c802be6aE
	subq	$72, %rsp
	.seh_stackalloc 72
	.seh_endprologue
	movq	%rcx, %rax
	movq	%rax, 32(%rsp)
.Ltmp338:
	.cv_inline_site_id 140 within 139 inlined_at 30 416 0
	.cv_inline_site_id 141 within 140 inlined_at 30 441 0
	.cv_loc	141 30 110 0
	movq	%rdx, 56(%rsp)
	movq	%r8, 64(%rsp)
	.cv_loc	141 30 111 0
	callq	_ZN52_$LT$T$u20$as$u20$alloc..slice..hack..ConvertVec$GT$6to_vec17h5d3418fccb3a3c76E
	movq	32(%rsp), %rax
.Ltmp339:
	.cv_loc	139 30 417 0
	addq	$72, %rsp
	retq
.Ltmp340:
.Lfunc_end45:
	.seh_endproc

	.def	_ZN5alloc6string6String8as_bytes17hedf32a197147c022E;
	.scl	3;
	.type	32;
	.endef
	.section	.text,"xr",one_only,_ZN5alloc6string6String8as_bytes17hedf32a197147c022E
	.p2align	4, 0x90
_ZN5alloc6string6String8as_bytes17hedf32a197147c022E:
.Lfunc_begin46:
	.cv_func_id 142
	.cv_file	37 "/rustc/5680fa18feaa87f3ff04063800aec256c3d4b4be\\library\\alloc\\src\\string.rs" "ABAB3F44D0E6F25CEE3F054C03939F6707A2CFA9" 2
	.cv_loc	142 37 1248 0
.seh_proc _ZN5alloc6string6String8as_bytes17hedf32a197147c022E
	subq	$104, %rsp
	.seh_stackalloc 104
	.seh_endprologue
	movq	%rcx, %rax
	movabsq	$9223372036854775807, %rcx
.Ltmp341:
	.cv_inline_site_id 143 within 142 inlined_at 37 1249 0
	.cv_inline_site_id 144 within 143 inlined_at 11 2610 0
	.cv_inline_site_id 145 within 144 inlined_at 6 2536 0
	.cv_inline_site_id 146 within 145 inlined_at 9 99 0
	.cv_loc	146 6 2551 0
	movq	%rcx, (%rsp)
	movq	%rax, 40(%rsp)
.Ltmp342:
	.cv_loc	142 37 1249 0
	movq	%rax, 48(%rsp)
.Ltmp343:
	.cv_loc	144 11 1240 0
	movq	%rax, 56(%rsp)
.Ltmp344:
	.cv_inline_site_id 147 within 144 inlined_at 11 1240 0
	.cv_loc	147 12 223 0
	movq	(%rax), %rcx
	movq	%rcx, 64(%rsp)
.Ltmp345:
	.cv_inline_site_id 148 within 147 inlined_at 12 223 0
	.cv_loc	148 13 107 0
	movq	%rcx, 72(%rsp)
.Ltmp346:
	.cv_loc	144 11 1240 0
	movq	%rcx, 80(%rsp)
.Ltmp347:
	.cv_loc	143 11 2610 0
	movq	16(%rax), %rax
	movq	%rax, 88(%rsp)
.Ltmp348:
	.cv_inline_site_id 149 within 144 inlined_at 9 101 0
	.cv_inline_site_id 150 within 149 inlined_at 3 742 0
	.cv_loc	150 2 59 0
	movq	%rcx, 96(%rsp)
.Ltmp349:
	.cv_loc	150 4 119 0
	movq	%rcx, 24(%rsp)
	movq	%rax, 32(%rsp)
	movq	24(%rsp), %rcx
	movq	32(%rsp), %rax
	movq	%rcx, 8(%rsp)
	movq	%rax, 16(%rsp)
	movq	8(%rsp), %rax
	movq	16(%rsp), %rdx
.Ltmp350:
	.cv_loc	142 37 1250 0
	addq	$104, %rsp
	retq
.Ltmp351:
.Lfunc_end46:
	.seh_endproc

	.def	_ZN5alloc6string6String9from_utf817h43a39be481b38bf6E;
	.scl	3;
	.type	32;
	.endef
	.section	.text,"xr",one_only,_ZN5alloc6string6String9from_utf817h43a39be481b38bf6E
	.p2align	4, 0x90
_ZN5alloc6string6String9from_utf817h43a39be481b38bf6E:
.Lfunc_begin47:
	.cv_func_id 151
	.cv_loc	151 37 570 0
.seh_proc _ZN5alloc6string6String9from_utf817h43a39be481b38bf6E
	.seh_handler __CxxFrameHandler3, @unwind, @except
	pushq	%rbp
	.seh_pushreg %rbp
	subq	$320, %rsp
	.seh_stackalloc 320
	leaq	128(%rsp), %rbp
	.seh_setframe %rbp, 128
	.seh_endprologue
	movq	$-2, 184(%rbp)
	movq	%rdx, -88(%rbp)
.Ltmp354:
	movq	%rcx, -80(%rbp)
	movq	%rcx, -72(%rbp)
	movabsq	$9223372036854775807, %rax
.Ltmp355:
	.cv_inline_site_id 152 within 151 inlined_at 37 571 0
	.cv_inline_site_id 153 within 152 inlined_at 11 2610 0
	.cv_inline_site_id 154 within 153 inlined_at 6 2536 0
	.cv_inline_site_id 155 within 154 inlined_at 9 99 0
	.cv_loc	155 6 2551 0
	movq	%rax, -64(%rbp)
.Ltmp356:
	.cv_loc	151 37 571 0
	movq	%rdx, 128(%rbp)
.Ltmp357:
	.cv_loc	153 11 1240 0
	movq	%rdx, 136(%rbp)
.Ltmp358:
	.cv_inline_site_id 156 within 153 inlined_at 11 1240 0
	.cv_loc	156 12 223 0
	movq	(%rdx), %rcx
	movq	%rcx, 144(%rbp)
.Ltmp359:
	.cv_inline_site_id 157 within 156 inlined_at 12 223 0
	.cv_loc	157 13 107 0
	movq	%rcx, 152(%rbp)
.Ltmp360:
	.cv_loc	153 11 1240 0
	movq	%rcx, 160(%rbp)
.Ltmp361:
	.cv_loc	152 11 2610 0
	movq	16(%rdx), %rax
	movq	%rax, 168(%rbp)
.Ltmp362:
	.cv_inline_site_id 158 within 153 inlined_at 9 101 0
	.cv_inline_site_id 159 within 158 inlined_at 3 742 0
	.cv_loc	159 2 59 0
	movq	%rcx, 176(%rbp)
.Ltmp363:
	.cv_loc	159 4 119 0
	movq	%rcx, 112(%rbp)
	movq	%rax, 120(%rbp)
	movq	112(%rbp), %rcx
	movq	120(%rbp), %rax
	movq	%rcx, 96(%rbp)
	movq	%rax, 104(%rbp)
	movq	96(%rbp), %rdx
.Ltmp364:
	movq	104(%rbp), %r8
	.cv_loc	151 37 571 0
.Ltmp352:
	leaq	-56(%rbp), %rcx
.Ltmp365:
	callq	_ZN4core3str8converts9from_utf817h027f08b2cb1c7cd7E
.Ltmp353:
.Ltmp366:
	jmp	.LBB47_2
.Ltmp367:
.LBB47_2:
	cmpq	$0, -56(%rbp)
	jne	.LBB47_4
.Ltmp368:
	.cv_loc	151 37 572 0
	movq	-80(%rbp), %rax
	movq	-88(%rbp), %rcx
	movq	(%rcx), %rdx
	movq	%rdx, -8(%rbp)
	movq	8(%rcx), %rdx
	movq	%rdx, (%rbp)
	movq	16(%rcx), %rcx
	movq	%rcx, 8(%rbp)
	movq	-8(%rbp), %rcx
	movq	%rcx, -32(%rbp)
	movq	(%rbp), %rcx
	movq	%rcx, -24(%rbp)
	movq	8(%rbp), %rcx
	movq	%rcx, -16(%rbp)
	movq	-32(%rbp), %rcx
	movq	%rcx, (%rax)
	movq	-24(%rbp), %rcx
	movq	%rcx, 8(%rax)
	movq	-16(%rbp), %rcx
	movq	%rcx, 16(%rax)
	movb	$2, 32(%rax)
	jmp	.LBB47_5
.Ltmp369:
.LBB47_4:
	.cv_loc	151 37 573 0
	movq	-80(%rbp), %rcx
	movq	-88(%rbp), %rax
	movq	-48(%rbp), %rdx
	movq	%rdx, 16(%rbp)
	movq	-40(%rbp), %rdx
	movq	%rdx, 24(%rbp)
.Ltmp370:
	.cv_loc	151 37 573 0
	movq	(%rax), %rdx
	movq	%rdx, 72(%rbp)
	movq	8(%rax), %rdx
	movq	%rdx, 80(%rbp)
	movq	16(%rax), %rax
	movq	%rax, 88(%rbp)
	movq	72(%rbp), %rax
	movq	%rax, 32(%rbp)
	movq	80(%rbp), %rax
	movq	%rax, 40(%rbp)
	movq	88(%rbp), %rax
	movq	%rax, 48(%rbp)
	movq	16(%rbp), %rax
	movq	%rax, 56(%rbp)
	movq	24(%rbp), %rax
	movq	%rax, 64(%rbp)
	leaq	32(%rbp), %rdx
	movl	$40, %r8d
	callq	memcpy
.Ltmp371:
.LBB47_5:
	.cv_loc	151 37 575 0
	movq	-72(%rbp), %rax
	addq	$320, %rsp
	popq	%rbp
	retq
.Ltmp372:
	.seh_handlerdata
	.long	($cppxdata$_ZN5alloc6string6String9from_utf817h43a39be481b38bf6E)@IMGREL
	.section	.text,"xr",one_only,_ZN5alloc6string6String9from_utf817h43a39be481b38bf6E
	.seh_endproc
	.def	"?dtor$1@?0?_ZN5alloc6string6String9from_utf817h43a39be481b38bf6E@4HA";
	.scl	3;
	.type	32;
	.endef
	.p2align	4, 0x90
"?dtor$1@?0?_ZN5alloc6string6String9from_utf817h43a39be481b38bf6E@4HA":
.seh_proc "?dtor$1@?0?_ZN5alloc6string6String9from_utf817h43a39be481b38bf6E@4HA"
.LBB47_1:
	movq	%rdx, 16(%rsp)
	pushq	%rbp
	.seh_pushreg %rbp
	subq	$32, %rsp
	.seh_stackalloc 32
	leaq	128(%rdx), %rbp
.Ltmp373:
	.seh_endprologue
	movq	-88(%rbp), %rcx
	callq	_ZN4core3ptr46drop_in_place$LT$alloc..vec..Vec$LT$u8$GT$$GT$17h34e35bca2e3e41daE
	.cv_loc	151 37 570 0
	nop
	addq	$32, %rsp
	popq	%rbp
	retq
.Ltmp374:
.Lfunc_end47:
	.seh_handlerdata
	.section	.text,"xr",one_only,_ZN5alloc6string6String9from_utf817h43a39be481b38bf6E
	.seh_endproc
	.section	.xdata,"dr",associative,_ZN5alloc6string6String9from_utf817h43a39be481b38bf6E
	.p2align	2, 0x0
$cppxdata$_ZN5alloc6string6String9from_utf817h43a39be481b38bf6E:
	.long	429065506
	.long	1
	.long	($stateUnwindMap$_ZN5alloc6string6String9from_utf817h43a39be481b38bf6E)@IMGREL
	.long	0
	.long	0
	.long	3
	.long	($ip2state$_ZN5alloc6string6String9from_utf817h43a39be481b38bf6E)@IMGREL
	.long	312
	.long	0
	.long	1
$stateUnwindMap$_ZN5alloc6string6String9from_utf817h43a39be481b38bf6E:
	.long	-1
	.long	"?dtor$1@?0?_ZN5alloc6string6String9from_utf817h43a39be481b38bf6E@4HA"@IMGREL
$ip2state$_ZN5alloc6string6String9from_utf817h43a39be481b38bf6E:
	.long	.Lfunc_begin47@IMGREL
	.long	-1
	.long	.Ltmp352@IMGREL+1
	.long	0
	.long	.Ltmp353@IMGREL+1
	.long	-1
	.section	.text,"xr",one_only,_ZN5alloc6string6String9from_utf817h43a39be481b38bf6E

	.def	_ZN5alloc7raw_vec11finish_grow17h6ed94ce3deb18587E;
	.scl	3;
	.type	32;
	.endef
	.section	.text,"xr",one_only,_ZN5alloc7raw_vec11finish_grow17h6ed94ce3deb18587E
	.p2align	4, 0x90
_ZN5alloc7raw_vec11finish_grow17h6ed94ce3deb18587E:
.Lfunc_begin48:
	.cv_func_id 160
	.cv_loc	160 12 454 0
.seh_proc _ZN5alloc7raw_vec11finish_grow17h6ed94ce3deb18587E
	subq	$488, %rsp
	.seh_stackalloc 488
	.seh_endprologue
	movq	%r9, 56(%rsp)
.Ltmp375:
	movq	%rcx, 64(%rsp)
	movq	%rcx, 72(%rsp)
	movq	528(%rsp), %rax
	movq	%rax, 80(%rsp)
.Ltmp376:
	.cv_loc	160 12 468 0
	movb	$0, 95(%rsp)
.Ltmp377:
	.cv_inline_site_id 161 within 160 inlined_at 12 465 0
	.cv_loc	161 29 1949 0
	movq	%rdx, 336(%rsp)
	movq	%r8, 344(%rsp)
.Ltmp378:
	.cv_loc	160 12 463 0
	leaq	144(%rsp), %rcx
	callq	_ZN4core6result19Result$LT$T$C$E$GT$7map_err17h78815b74a86b2770E
.Ltmp379:
	.cv_inline_site_id 162 within 160 inlined_at 12 463 0
	.cv_loc	162 29 1948 0
	cmpq	$0, 144(%rsp)
.Ltmp380:
	jne	.LBB48_2
.Ltmp381:
	.cv_loc	162 29 1949 0
	movq	152(%rsp), %rcx
	movq	160(%rsp), %rax
	movq	%rcx, 352(%rsp)
	movq	%rax, 360(%rsp)
.Ltmp382:
	.cv_loc	162 29 1949 0
	movq	%rcx, 128(%rsp)
	movq	%rax, 136(%rsp)
	movq	$0, 120(%rsp)
.Ltmp383:
	.cv_loc	162 29 1949 0
	jmp	.LBB48_3
.Ltmp384:
.LBB48_2:
	.cv_loc	162 29 1950 0
	movq	152(%rsp), %rcx
	movq	160(%rsp), %rax
	movq	%rcx, 368(%rsp)
	movq	%rax, 376(%rsp)
.Ltmp385:
	.cv_loc	162 29 1950 0
	movq	%rcx, 272(%rsp)
	movq	%rax, 280(%rsp)
	movq	272(%rsp), %rcx
	movq	280(%rsp), %rax
	movq	%rcx, 128(%rsp)
	movq	%rax, 136(%rsp)
	movq	$1, 120(%rsp)
.Ltmp386:
.LBB48_3:
	.cv_loc	160 12 463 0
	cmpq	$0, 120(%rsp)
	jne	.LBB48_5
.Ltmp387:
	movq	128(%rsp), %rcx
	movq	136(%rsp), %rax
	movq	%rcx, 384(%rsp)
	movq	%rax, 392(%rsp)
.Ltmp388:
	.cv_loc	160 12 463 0
	movq	%rcx, 104(%rsp)
	movq	%rax, 112(%rsp)
.Ltmp389:
	.cv_loc	161 12 515 0
	movabsq	$-9223372036854775807, %rax
	movq	%rax, 200(%rsp)
.Ltmp390:
	.cv_loc	161 29 1948 0
	movabsq	$-9223372036854775807, %rdx
	movl	$1, %eax
	xorl	%ecx, %ecx
	cmpq	%rdx, 200(%rsp)
	cmoveq	%rcx, %rax
	cmpq	$0, %rax
	je	.LBB48_6
	jmp	.LBB48_7
.Ltmp391:
.LBB48_5:
	.cv_loc	160 12 463 0
	movq	64(%rsp), %rax
	movq	128(%rsp), %rdx
	movq	136(%rsp), %rcx
	movq	%rdx, 168(%rsp)
	movq	%rcx, 176(%rsp)
.Ltmp392:
	.cv_inline_site_id 163 within 160 inlined_at 12 463 0
	.cv_loc	163 29 1961 0
	movq	168(%rsp), %rdx
	movq	176(%rsp), %rcx
	movq	%rdx, 472(%rsp)
	movq	%rcx, 480(%rsp)
.Ltmp393:
	.cv_file	38 "/rustc/5680fa18feaa87f3ff04063800aec256c3d4b4be\\library\\alloc\\src\\collections\\mod.rs" "6B3E6ADEADE7D471D4ADFEFBEF9DC94F32094EBC" 2
	.cv_inline_site_id 164 within 163 inlined_at 29 1961 0
	.cv_loc	164 38 117 0
	movq	%rdx, 288(%rsp)
	movq	%rcx, 296(%rsp)
.Ltmp394:
	.cv_loc	163 29 1961 0
	movq	288(%rsp), %rdx
	movq	296(%rsp), %rcx
	movq	%rdx, 8(%rax)
	movq	%rcx, 16(%rax)
	movq	$1, (%rax)
.Ltmp395:
	.cv_loc	160 36 1 0
	jmp	.LBB48_15
.Ltmp396:
.LBB48_6:
	.cv_loc	161 29 1949 0
	movabsq	$-9223372036854775807, %rax
	movq	%rax, 184(%rsp)
.Ltmp397:
	.cv_loc	161 29 1949 0
	jmp	.LBB48_8
.Ltmp398:
.LBB48_7:
	.cv_loc	161 29 1950 0
	movq	200(%rsp), %rcx
	movq	208(%rsp), %rax
	movq	%rcx, 400(%rsp)
	movq	%rax, 408(%rsp)
.Ltmp399:
	.cv_loc	161 29 1950 0
	movq	%rcx, 304(%rsp)
	movq	%rax, 312(%rsp)
	movq	304(%rsp), %rcx
	movq	312(%rsp), %rax
	movq	%rcx, 184(%rsp)
	movq	%rax, 192(%rsp)
.Ltmp400:
.LBB48_8:
	.cv_loc	160 12 465 0
	movabsq	$-9223372036854775807, %rdx
	movl	$1, %eax
	xorl	%ecx, %ecx
	cmpq	%rdx, 184(%rsp)
	cmoveq	%rcx, %rax
	cmpq	$0, %rax
	jne	.LBB48_10
.Ltmp401:
	.cv_loc	160 12 467 0
	movq	56(%rsp), %rdx
.Ltmp402:
	movl	$1, %eax
	xorl	%ecx, %ecx
	cmpq	$0, 8(%rdx)
	cmoveq	%rcx, %rax
	cmpq	$1, %rax
	je	.LBB48_11
	jmp	.LBB48_12
.Ltmp403:
.LBB48_10:
	.cv_loc	160 12 465 0
	movq	64(%rsp), %rax
	movq	184(%rsp), %rdx
	movq	192(%rsp), %rcx
	movq	%rdx, 216(%rsp)
	movq	%rcx, 224(%rsp)
.Ltmp404:
	.cv_inline_site_id 165 within 160 inlined_at 12 465 0
	.cv_loc	165 29 1961 0
	movq	216(%rsp), %rdx
	movq	224(%rsp), %rcx
	movq	%rdx, 456(%rsp)
	movq	%rcx, 464(%rsp)
.Ltmp405:
	.cv_loc	165 29 1961 0
	movq	%rdx, 8(%rax)
	movq	%rcx, 16(%rax)
	movq	$1, (%rax)
.Ltmp406:
	.cv_loc	160 36 1 0
	jmp	.LBB48_15
.Ltmp407:
.LBB48_11:
	.cv_loc	160 12 467 0
	movq	80(%rsp), %rcx
	movq	56(%rsp), %rax
.Ltmp408:
	movq	(%rax), %rdx
	movq	%rdx, 416(%rsp)
	movq	8(%rax), %r8
	movq	16(%rax), %rax
	movq	%r8, 248(%rsp)
	movq	%rax, 256(%rsp)
	leaq	248(%rsp), %rax
	.cv_loc	160 12 471 0
	movq	%rax, 424(%rsp)
.Ltmp409:
	.cv_inline_site_id 166 within 160 inlined_at 12 471 0
	.cv_loc	166 26 140 0
	movq	248(%rsp), %rax
	movq	%rax, 432(%rsp)
.Ltmp410:
	.cv_inline_site_id 167 within 166 inlined_at 26 140 0
	.cv_loc	167 27 96 0
	movq	%rax, 320(%rsp)
	leaq	104(%rsp), %rax
.Ltmp411:
	.cv_loc	160 12 471 0
	movq	%rax, 440(%rsp)
.Ltmp412:
	.cv_loc	166 26 140 0
	movq	104(%rsp), %rax
	movq	%rax, 448(%rsp)
.Ltmp413:
	.cv_inline_site_id 168 within 166 inlined_at 26 140 0
	.cv_loc	168 27 96 0
	movq	%rax, 328(%rsp)
.Ltmp414:
	.cv_loc	160 12 472 0
	movq	248(%rsp), %r8
	movq	256(%rsp), %r9
	movq	104(%rsp), %r10
	movq	112(%rsp), %r11
	movq	%rsp, %rax
	movq	%r11, 40(%rax)
	movq	%r10, 32(%rax)
	callq	_ZN63_$LT$alloc..alloc..Global$u20$as$u20$core..alloc..Allocator$GT$4grow17hd331e5918dd9613aE
	movq	%rdx, 240(%rsp)
	movq	%rax, 232(%rsp)
.Ltmp415:
	.cv_loc	160 12 467 0
	jmp	.LBB48_13
.Ltmp416:
.LBB48_12:
	.cv_loc	160 12 475 0
	movq	80(%rsp), %rcx
	movq	104(%rsp), %rdx
	movq	112(%rsp), %r8
	callq	_ZN63_$LT$alloc..alloc..Global$u20$as$u20$core..alloc..Allocator$GT$8allocate17h1a90bc7ce452f7beE
	movq	%rdx, 240(%rsp)
	movq	%rax, 232(%rsp)
.Ltmp417:
.LBB48_13:
	.cv_loc	160 12 478 0
	movq	64(%rsp), %rcx
.Ltmp418:
	movq	232(%rsp), %rdx
	movq	240(%rsp), %r8
	leaq	104(%rsp), %rax
	movq	%rax, 264(%rsp)
	movq	264(%rsp), %r9
	callq	_ZN4core6result19Result$LT$T$C$E$GT$7map_err17hbb23f2f8f2956c20E
.Ltmp419:
.LBB48_14:
	.cv_loc	160 12 479 0
	movq	72(%rsp), %rax
	addq	$488, %rsp
	retq
.Ltmp420:
.LBB48_15:
	jmp	.LBB48_14
.Ltmp421:
.Lfunc_end48:
	.seh_endproc

	.def	_ZN5alloc7raw_vec11finish_grow28_$u7b$$u7b$closure$u7d$$u7d$17h907273be00313bb1E;
	.scl	3;
	.type	32;
	.endef
	.section	.text,"xr",one_only,_ZN5alloc7raw_vec11finish_grow28_$u7b$$u7b$closure$u7d$$u7d$17h907273be00313bb1E
	.p2align	4, 0x90
_ZN5alloc7raw_vec11finish_grow28_$u7b$$u7b$closure$u7d$$u7d$17h907273be00313bb1E:
.Lfunc_begin49:
	.cv_func_id 169
	.cv_loc	169 12 478 0
.seh_proc _ZN5alloc7raw_vec11finish_grow28_$u7b$$u7b$closure$u7d$$u7d$17h907273be00313bb1E
	subq	$48, %rsp
	.seh_stackalloc 48
	.seh_endprologue
	movq	%rcx, (%rsp)
.Ltmp422:
	movq	(%rsp), %rax
	movq	(%rax), %rcx
	movq	8(%rax), %rax
	movq	%rcx, 24(%rsp)
	movq	%rax, 32(%rsp)
.Ltmp423:
	.cv_inline_site_id 170 within 169 inlined_at 12 478 0
	.cv_inline_site_id 171 within 170 inlined_at 34 716 0
	.cv_loc	171 38 117 0
	movq	24(%rsp), %rcx
	movq	32(%rsp), %rax
	movq	%rcx, 8(%rsp)
	movq	%rax, 16(%rsp)
.Ltmp424:
	.cv_loc	169 12 478 0
	movq	8(%rsp), %rax
	movq	16(%rsp), %rdx
	addq	$48, %rsp
	retq
.Ltmp425:
.Lfunc_end49:
	.seh_endproc

	.def	_ZN5alloc7raw_vec11finish_grow28_$u7b$$u7b$closure$u7d$$u7d$17he41aa3531eb11a1aE;
	.scl	3;
	.type	32;
	.endef
	.section	.text,"xr",one_only,_ZN5alloc7raw_vec11finish_grow28_$u7b$$u7b$closure$u7d$$u7d$17he41aa3531eb11a1aE
	.p2align	4, 0x90
_ZN5alloc7raw_vec11finish_grow28_$u7b$$u7b$closure$u7d$$u7d$17he41aa3531eb11a1aE:
.Lfunc_begin50:
	.cv_func_id 172
	.cv_loc	172 12 463 0
.seh_proc _ZN5alloc7raw_vec11finish_grow28_$u7b$$u7b$closure$u7d$$u7d$17he41aa3531eb11a1aE
	subq	$32, %rsp
	.seh_stackalloc 32
	.seh_endprologue
.Ltmp426:
	movq	$0, (%rsp)
	movq	(%rsp), %rax
	movq	8(%rsp), %rdx
	addq	$32, %rsp
	retq
.Ltmp427:
.Lfunc_end50:
	.seh_endproc

	.def	_ZN5alloc7raw_vec14handle_reserve17h5aa9ea16b1292708E;
	.scl	3;
	.type	32;
	.endef
	.section	.text,"xr",one_only,_ZN5alloc7raw_vec14handle_reserve17h5aa9ea16b1292708E
	.p2align	4, 0x90
_ZN5alloc7raw_vec14handle_reserve17h5aa9ea16b1292708E:
.Lfunc_begin51:
	.cv_func_id 173
	.cv_loc	173 12 493 0
.seh_proc _ZN5alloc7raw_vec14handle_reserve17h5aa9ea16b1292708E
	subq	$88, %rsp
	.seh_stackalloc 88
	.seh_endprologue
	movq	%rcx, 56(%rsp)
	movq	%rdx, 64(%rsp)
.Ltmp428:
	.cv_loc	173 12 494 0
	callq	_ZN4core6result19Result$LT$T$C$E$GT$7map_err17h6fb62e5b4a49b168E
	movq	%rdx, 48(%rsp)
	movq	%rax, 40(%rsp)
	movabsq	$-9223372036854775807, %rdx
	movl	$1, %eax
	xorl	%ecx, %ecx
	cmpq	%rdx, 40(%rsp)
	cmoveq	%rcx, %rax
	cmpq	$0, %rax
	jne	.LBB51_2
	.cv_loc	173 12 499 0
	addq	$88, %rsp
	retq
.LBB51_2:
	.cv_loc	173 12 494 0
	movl	$1, %eax
	xorl	%ecx, %ecx
	cmpq	$0, 40(%rsp)
	cmoveq	%rcx, %rax
	cmpq	$0, %rax
	jne	.LBB51_4
	.cv_loc	173 12 495 0
	callq	_ZN5alloc7raw_vec17capacity_overflow17h13b9d52f95a55880E
	ud2
.LBB51_4:
	.cv_loc	173 12 496 0
	movq	40(%rsp), %rcx
	movq	48(%rsp), %rdx
	movq	%rcx, 72(%rsp)
	movq	%rdx, 80(%rsp)
.Ltmp429:
	.cv_loc	173 12 496 0
	callq	_ZN5alloc5alloc18handle_alloc_error17h927b635898ac75a1E
	ud2
.Ltmp430:
.Lfunc_end51:
	.seh_endproc

	.def	_ZN5alloc7raw_vec14handle_reserve28_$u7b$$u7b$closure$u7d$$u7d$17h87828e0d625a2a04E;
	.scl	3;
	.type	32;
	.endef
	.section	.text,"xr",one_only,_ZN5alloc7raw_vec14handle_reserve28_$u7b$$u7b$closure$u7d$$u7d$17h87828e0d625a2a04E
	.p2align	4, 0x90
_ZN5alloc7raw_vec14handle_reserve28_$u7b$$u7b$closure$u7d$$u7d$17h87828e0d625a2a04E:
.Lfunc_begin52:
	.cv_func_id 174
	.cv_loc	174 12 494 0
.seh_proc _ZN5alloc7raw_vec14handle_reserve28_$u7b$$u7b$closure$u7d$$u7d$17h87828e0d625a2a04E
	subq	$64, %rsp
	.seh_stackalloc 64
	.seh_endprologue
	movq	%rcx, (%rsp)
	movq	%rdx, 8(%rsp)
.Ltmp431:
	movq	%rsp, %rax
	movq	%rax, 40(%rsp)
.Ltmp432:
	.cv_inline_site_id 175 within 174 inlined_at 12 494 0
	.cv_loc	175 38 75 0
	movq	%rsp, %rax
	movq	%rax, 48(%rsp)
.Ltmp433:
	.cv_inline_site_id 176 within 175 inlined_at 38 75 0
	.cv_loc	176 38 80 0
	movl	$1, %eax
	xorl	%ecx, %ecx
	cmpq	$0, (%rsp)
	cmoveq	%rcx, %rax
	cmpq	$0, %rax
	jne	.LBB52_2
	movq	$0, 16(%rsp)
	jmp	.LBB52_3
.LBB52_2:
	movq	%rsp, %rax
	movq	%rax, 56(%rsp)
.Ltmp434:
	.cv_inline_site_id 177 within 176 inlined_at 38 94 0
	.cv_loc	177 26 36 0
	movq	(%rsp), %rcx
	movq	8(%rsp), %rax
.Ltmp435:
	.cv_loc	176 38 80 0
	movq	%rcx, 16(%rsp)
	movq	%rax, 24(%rsp)
.Ltmp436:
.LBB52_3:
	.cv_loc	174 12 494 0
	movq	16(%rsp), %rax
	movq	24(%rsp), %rdx
	addq	$64, %rsp
	retq
.Ltmp437:
.Lfunc_end52:
	.seh_endproc

	.def	_ZN5alloc7raw_vec19RawVec$LT$T$C$A$GT$11allocate_in17hf96b6a6179d69a35E;
	.scl	3;
	.type	32;
	.endef
	.section	.text,"xr",one_only,_ZN5alloc7raw_vec19RawVec$LT$T$C$A$GT$11allocate_in17hf96b6a6179d69a35E
	.p2align	4, 0x90
_ZN5alloc7raw_vec19RawVec$LT$T$C$A$GT$11allocate_in17hf96b6a6179d69a35E:
.Lfunc_begin53:
	.cv_func_id 178
	.cv_loc	178 12 168 0
.seh_proc _ZN5alloc7raw_vec19RawVec$LT$T$C$A$GT$11allocate_in17hf96b6a6179d69a35E
	.seh_handler __CxxFrameHandler3, @unwind, @except
	pushq	%rbp
	.seh_pushreg %rbp
	subq	$336, %rsp
	.seh_stackalloc 336
	leaq	128(%rsp), %rbp
	.seh_setframe %rbp, 128
	.seh_endprologue
	movq	$-2, 200(%rbp)
	movq	%rcx, -32(%rbp)
	andb	$1, %dl
	movb	%dl, -17(%rbp)
	movq	%rcx, 104(%rbp)
.Ltmp450:
	.cv_loc	178 12 170 0
	cmpq	$0, %rcx
	sete	%al
	andb	$1, %al
	movb	%al, 15(%rbp)
	testb	$1, 15(%rbp)
	jne	.LBB53_2
	.cv_inline_site_id 179 within 178 inlined_at 12 175 0
	.cv_inline_site_id 180 within 179 inlined_at 26 433 0
	.cv_inline_site_id 181 within 180 inlined_at 27 48 0
	.cv_loc	181 10 466 0
	movq	-32(%rbp), %r8
.Ltmp451:
	movq	$1, 112(%rbp)
	.cv_loc	179 26 433 0
.Ltmp438:
	movl	$1, %edx
.Ltmp452:
	movq	%rdx, %rcx
	callq	_ZN4core5alloc6layout6Layout5array5inner17h8b733b6f58d7e8a2E
.Ltmp439:
	movq	%rdx, -48(%rbp)
	movq	%rax, -40(%rbp)
	jmp	.LBB53_4
.Ltmp453:
.LBB53_2:
	.cv_inline_site_id 182 within 178 inlined_at 12 171 0
	.cv_inline_site_id 183 within 182 inlined_at 12 122 0
	.cv_inline_site_id 184 within 183 inlined_at 13 76 0
	.cv_inline_site_id 185 within 184 inlined_at 14 96 0
	.cv_loc	185 10 466 0
	movq	$1, 184(%rbp)
.Ltmp454:
	.cv_loc	185 3 606 0
	movl	$1, %eax
	movq	%rax, 192(%rbp)
.Ltmp455:
	.cv_inline_site_id 186 within 184 inlined_at 14 97 0
	.cv_loc	186 14 201 0
	movl	$1, %eax
	movq	%rax, 88(%rbp)
.Ltmp456:
	.cv_loc	183 13 76 0
	movq	88(%rbp), %rax
	movq	%rax, 80(%rbp)
.Ltmp457:
	.cv_loc	182 12 122 0
	movq	80(%rbp), %rax
	movq	%rax, -8(%rbp)
	movq	$0, (%rbp)
.Ltmp458:
	.cv_loc	178 12 170 0
	jmp	.LBB53_16
.LBB53_4:
	.cv_loc	179 26 433 0
	movq	-48(%rbp), %rax
	movq	-40(%rbp), %rcx
.Ltmp459:
	movq	%rcx, 16(%rbp)
	movq	%rax, 24(%rbp)
.Ltmp460:
	.cv_loc	178 12 175 0
	xorl	%eax, %eax
	movl	$1, %ecx
	cmpq	$0, 16(%rbp)
	cmoveq	%rcx, %rax
	cmpq	$0, %rax
	jne	.LBB53_6
	.cv_loc	178 12 176 0
	movq	16(%rbp), %rcx
	movq	%rcx, -64(%rbp)
	movq	24(%rbp), %rax
	movq	%rax, -56(%rbp)
	movq	%rcx, 120(%rbp)
	movq	%rax, 128(%rbp)
.Ltmp461:
	.cv_loc	178 12 176 0
	movq	%rcx, 136(%rbp)
	movq	%rax, 144(%rbp)
.Ltmp462:
	.cv_inline_site_id 187 within 178 inlined_at 12 179 0
	.cv_loc	187 12 515 0
	movabsq	$-9223372036854775807, %rax
	movq	%rax, 32(%rbp)
.Ltmp463:
	.cv_loc	178 12 179 0
	movabsq	$-9223372036854775807, %rax
	cmpq	%rax, 32(%rbp)
	sete	%al
	testb	$1, %al
	jne	.LBB53_7
	jmp	.LBB53_8
.Ltmp464:
.LBB53_6:
	.cv_loc	178 12 177 0
.Ltmp440:
	callq	_ZN5alloc7raw_vec17capacity_overflow17h13b9d52f95a55880E
.Ltmp441:
	jmp	.LBB53_17
.LBB53_7:
.Ltmp465:
	.cv_loc	178 12 183 0
	movb	-17(%rbp), %al
	andb	$1, %al
	movzbl	%al, %eax
	cmpq	$0, %rax
	je	.LBB53_9
	jmp	.LBB53_10
.LBB53_8:
	.cv_loc	178 12 181 0
.Ltmp442:
	callq	_ZN5alloc7raw_vec17capacity_overflow17h13b9d52f95a55880E
.Ltmp443:
	jmp	.LBB53_17
.LBB53_9:
	.cv_loc	178 12 184 0
.Ltmp446:
	movq	-56(%rbp), %r8
	movq	-64(%rbp), %rdx
	leaq	-16(%rbp), %rcx
	callq	_ZN63_$LT$alloc..alloc..Global$u20$as$u20$core..alloc..Allocator$GT$8allocate17h1a90bc7ce452f7beE
.Ltmp447:
	movq	%rdx, -80(%rbp)
	movq	%rax, -72(%rbp)
	jmp	.LBB53_11
.LBB53_10:
	.cv_loc	178 12 185 0
.Ltmp444:
	movq	-56(%rbp), %r8
	movq	-64(%rbp), %rdx
	leaq	-16(%rbp), %rcx
	callq	_ZN63_$LT$alloc..alloc..Global$u20$as$u20$core..alloc..Allocator$GT$15allocate_zeroed17h1d3d52d212f205b5E
.Ltmp445:
	movq	%rdx, -96(%rbp)
	movq	%rax, -88(%rbp)
	jmp	.LBB53_13
.LBB53_11:
	.cv_loc	178 12 184 0
	movq	-80(%rbp), %rax
	movq	-72(%rbp), %rcx
	movq	%rcx, 48(%rbp)
	movq	%rax, 56(%rbp)
.LBB53_12:
.Ltmp466:
	.cv_loc	178 12 187 0
	movq	48(%rbp), %rdx
	xorl	%eax, %eax
	movl	$1, %ecx
	cmpq	$0, %rdx
	cmoveq	%rcx, %rax
	cmpq	$0, %rax
	je	.LBB53_14
	jmp	.LBB53_15
.Ltmp467:
.LBB53_13:
	.cv_loc	178 12 185 0
	movq	-96(%rbp), %rax
	movq	-88(%rbp), %rcx
	movq	%rcx, 48(%rbp)
	movq	%rax, 56(%rbp)
	jmp	.LBB53_12
.LBB53_14:
	.cv_loc	178 12 188 0
	movq	-32(%rbp), %rax
.Ltmp468:
	movq	48(%rbp), %rcx
	movq	56(%rbp), %rdx
	movq	%rcx, 152(%rbp)
	movq	%rdx, 160(%rbp)
.Ltmp469:
	.cv_inline_site_id 188 within 178 inlined_at 12 196 0
	.cv_loc	188 14 450 0
	movq	%rcx, 168(%rbp)
.Ltmp470:
	.cv_inline_site_id 189 within 188 inlined_at 14 450 0
	.cv_loc	189 14 201 0
	movq	%rcx, 72(%rbp)
.Ltmp471:
	.cv_loc	188 14 326 0
	movq	72(%rbp), %rcx
	movq	%rcx, 176(%rbp)
.Ltmp472:
	.cv_inline_site_id 190 within 188 inlined_at 13 90 0
	.cv_loc	190 14 201 0
	movq	%rcx, 96(%rbp)
.Ltmp473:
	.cv_loc	188 13 90 0
	movq	96(%rbp), %rcx
	movq	%rcx, 64(%rbp)
.Ltmp474:
	.cv_loc	178 12 195 0
	movq	64(%rbp), %rcx
	movq	%rcx, -8(%rbp)
	movq	%rax, (%rbp)
.Ltmp475:
	.cv_loc	178 12 170 0
	jmp	.LBB53_16
.LBB53_15:
	.cv_loc	178 12 189 0
.Ltmp448:
	movq	-56(%rbp), %rdx
	movq	-64(%rbp), %rcx
.Ltmp476:
	callq	_ZN5alloc5alloc18handle_alloc_error17h927b635898ac75a1E
.Ltmp449:
	jmp	.LBB53_17
.Ltmp477:
.LBB53_16:
	.cv_loc	178 12 201 0
	movq	-8(%rbp), %rax
	movq	(%rbp), %rdx
	addq	$336, %rsp
	popq	%rbp
	retq
.LBB53_17:
	ud2
	.seh_handlerdata
	.long	($cppxdata$_ZN5alloc7raw_vec19RawVec$LT$T$C$A$GT$11allocate_in17hf96b6a6179d69a35E)@IMGREL
	.section	.text,"xr",one_only,_ZN5alloc7raw_vec19RawVec$LT$T$C$A$GT$11allocate_in17hf96b6a6179d69a35E
	.seh_endproc
	.def	"?dtor$3@?0?_ZN5alloc7raw_vec19RawVec$LT$T$C$A$GT$11allocate_in17hf96b6a6179d69a35E@4HA";
	.scl	3;
	.type	32;
	.endef
	.p2align	4, 0x90
"?dtor$3@?0?_ZN5alloc7raw_vec19RawVec$LT$T$C$A$GT$11allocate_in17hf96b6a6179d69a35E@4HA":
.seh_proc "?dtor$3@?0?_ZN5alloc7raw_vec19RawVec$LT$T$C$A$GT$11allocate_in17hf96b6a6179d69a35E@4HA"
.LBB53_3:
	movq	%rdx, 16(%rsp)
	pushq	%rbp
	.seh_pushreg %rbp
	subq	$32, %rsp
	.seh_stackalloc 32
	leaq	128(%rdx), %rbp
	.seh_endprologue
	.cv_loc	178 12 168 0
	addq	$32, %rsp
	popq	%rbp
	retq
.Ltmp478:
.Lfunc_end53:
	.seh_handlerdata
	.section	.text,"xr",one_only,_ZN5alloc7raw_vec19RawVec$LT$T$C$A$GT$11allocate_in17hf96b6a6179d69a35E
	.seh_endproc
	.section	.xdata,"dr",associative,_ZN5alloc7raw_vec19RawVec$LT$T$C$A$GT$11allocate_in17hf96b6a6179d69a35E
	.p2align	2, 0x0
$cppxdata$_ZN5alloc7raw_vec19RawVec$LT$T$C$A$GT$11allocate_in17hf96b6a6179d69a35E:
	.long	429065506
	.long	1
	.long	($stateUnwindMap$_ZN5alloc7raw_vec19RawVec$LT$T$C$A$GT$11allocate_in17hf96b6a6179d69a35E)@IMGREL
	.long	0
	.long	0
	.long	3
	.long	($ip2state$_ZN5alloc7raw_vec19RawVec$LT$T$C$A$GT$11allocate_in17hf96b6a6179d69a35E)@IMGREL
	.long	328
	.long	0
	.long	1
$stateUnwindMap$_ZN5alloc7raw_vec19RawVec$LT$T$C$A$GT$11allocate_in17hf96b6a6179d69a35E:
	.long	-1
	.long	"?dtor$3@?0?_ZN5alloc7raw_vec19RawVec$LT$T$C$A$GT$11allocate_in17hf96b6a6179d69a35E@4HA"@IMGREL
$ip2state$_ZN5alloc7raw_vec19RawVec$LT$T$C$A$GT$11allocate_in17hf96b6a6179d69a35E:
	.long	.Lfunc_begin53@IMGREL
	.long	-1
	.long	.Ltmp438@IMGREL+1
	.long	0
	.long	.Ltmp449@IMGREL+1
	.long	-1
	.section	.text,"xr",one_only,_ZN5alloc7raw_vec19RawVec$LT$T$C$A$GT$11allocate_in17hf96b6a6179d69a35E

	.def	_ZN5alloc7raw_vec19RawVec$LT$T$C$A$GT$14current_memory17hb20741ef8a8ededbE;
	.scl	3;
	.type	32;
	.endef
	.section	.text,"xr",one_only,_ZN5alloc7raw_vec19RawVec$LT$T$C$A$GT$14current_memory17hb20741ef8a8ededbE
	.p2align	4, 0x90
_ZN5alloc7raw_vec19RawVec$LT$T$C$A$GT$14current_memory17hb20741ef8a8ededbE:
.Lfunc_begin54:
	.cv_func_id 191
	.cv_loc	191 12 239 0
.seh_proc _ZN5alloc7raw_vec19RawVec$LT$T$C$A$GT$14current_memory17hb20741ef8a8ededbE
	subq	$192, %rsp
	.seh_stackalloc 192
	.seh_endprologue
	movq	%rdx, (%rsp)
	movq	%rcx, 8(%rsp)
	movq	%rcx, 16(%rsp)
	movq	%rdx, 104(%rsp)
.Ltmp479:
	.cv_loc	191 12 240 0
	xorl	%eax, %eax
	testb	$1, %al
	jne	.LBB54_2
	movq	(%rsp), %rax
	cmpq	$0, 8(%rax)
	sete	%al
	andb	$1, %al
	movb	%al, 31(%rsp)
	jmp	.LBB54_3
.LBB54_2:
	movb	$1, 31(%rsp)
.LBB54_3:
	testb	$1, 31(%rsp)
	jne	.LBB54_5
	.cv_inline_site_id 192 within 191 inlined_at 12 249 0
	.cv_loc	192 10 466 0
	movq	8(%rsp), %rax
	movq	(%rsp), %rcx
.Ltmp480:
	movq	$1, 112(%rsp)
.Ltmp481:
	.cv_inline_site_id 193 within 191 inlined_at 12 250 0
	.cv_loc	193 10 313 0
	movq	$1, 120(%rsp)
.Ltmp482:
	.cv_loc	191 12 250 0
	movq	8(%rcx), %rdx
	movq	%rdx, 128(%rsp)
.Ltmp483:
	.cv_loc	193 32 1267 0
	shlq	$0, %rdx
	movq	%rdx, 136(%rsp)
.Ltmp484:
	.cv_inline_site_id 194 within 191 inlined_at 12 251 0
	.cv_loc	194 26 120 0
	movq	%rdx, 40(%rsp)
	movq	$1, 32(%rsp)
.Ltmp485:
	.cv_loc	191 12 252 0
	movq	(%rcx), %rcx
	movq	%rcx, 144(%rsp)
.Ltmp486:
	.cv_inline_site_id 195 within 191 inlined_at 12 252 0
	.cv_loc	195 13 142 0
	movq	%rcx, 152(%rsp)
.Ltmp487:
	.cv_inline_site_id 196 within 195 inlined_at 13 142 0
	.cv_loc	196 14 450 0
	movq	%rcx, 160(%rsp)
.Ltmp488:
	.cv_inline_site_id 197 within 196 inlined_at 14 450 0
	.cv_loc	197 14 201 0
	movq	%rcx, 88(%rsp)
.Ltmp489:
	.cv_loc	196 14 326 0
	movq	88(%rsp), %rcx
	movq	%rcx, 168(%rsp)
.Ltmp490:
	.cv_inline_site_id 198 within 196 inlined_at 13 90 0
	.cv_loc	198 14 201 0
	movq	%rcx, 96(%rsp)
.Ltmp491:
	.cv_loc	196 13 90 0
	movq	96(%rsp), %rcx
	movq	%rcx, 80(%rsp)
.Ltmp492:
	.cv_inline_site_id 199 within 195 inlined_at 34 716 0
	.cv_inline_site_id 200 within 199 inlined_at 14 775 0
	.cv_loc	200 13 107 0
	movq	80(%rsp), %rcx
	movq	%rcx, 176(%rsp)
.Ltmp493:
	.cv_inline_site_id 201 within 200 inlined_at 13 107 0
	.cv_loc	201 14 326 0
	movq	%rcx, 184(%rsp)
.Ltmp494:
	.cv_loc	200 14 201 0
	movq	%rcx, 72(%rsp)
.Ltmp495:
	.cv_loc	191 12 252 0
	movq	72(%rsp), %rcx
	movq	%rcx, 48(%rsp)
	movq	32(%rsp), %rdx
	movq	40(%rsp), %rcx
	movq	%rdx, 56(%rsp)
	movq	%rcx, 64(%rsp)
	movq	48(%rsp), %rcx
	movq	%rcx, (%rax)
	movq	56(%rsp), %rcx
	movq	%rcx, 8(%rax)
	movq	64(%rsp), %rcx
	movq	%rcx, 16(%rax)
.Ltmp496:
	.cv_loc	191 12 240 0
	jmp	.LBB54_6
.LBB54_5:
	.cv_loc	191 12 241 0
	movq	8(%rsp), %rax
	movq	$0, 8(%rax)
.LBB54_6:
	.cv_loc	191 12 255 0
	movq	16(%rsp), %rax
	addq	$192, %rsp
	retq
.Ltmp497:
.Lfunc_end54:
	.seh_endproc

	.def	_ZN5alloc7raw_vec19RawVec$LT$T$C$A$GT$14grow_amortized17h2c641634492b5707E;
	.scl	3;
	.type	32;
	.endef
	.section	.text,"xr",one_only,_ZN5alloc7raw_vec19RawVec$LT$T$C$A$GT$14grow_amortized17h2c641634492b5707E
	.p2align	4, 0x90
_ZN5alloc7raw_vec19RawVec$LT$T$C$A$GT$14grow_amortized17h2c641634492b5707E:
.Lfunc_begin55:
	.cv_func_id 202
	.cv_loc	202 12 383 0
.seh_proc _ZN5alloc7raw_vec19RawVec$LT$T$C$A$GT$14grow_amortized17h2c641634492b5707E
	subq	$632, %rsp
	.seh_stackalloc 632
	.seh_endprologue
	movq	%r8, 72(%rsp)
	movq	%rdx, 80(%rsp)
	movq	%rcx, 88(%rsp)
.Ltmp498:
	.cv_inline_site_id 203 within 202 inlined_at 12 399 0
	.cv_loc	203 21 1218 0
	movq	$8, 96(%rsp)
.Ltmp499:
	.cv_inline_site_id 204 within 203 inlined_at 21 1219 0
	.cv_loc	204 21 790 0
	movq	$8, 104(%rsp)
	movq	%rcx, 392(%rsp)
	movq	%rdx, 400(%rsp)
	movq	%r8, 408(%rsp)
.Ltmp500:
	.cv_loc	202 12 387 0
	xorl	%eax, %eax
	testb	$1, %al
	jne	.LBB55_2
	.cv_inline_site_id 205 within 202 inlined_at 12 394 0
	.cv_file	39 "/rustc/5680fa18feaa87f3ff04063800aec256c3d4b4be\\library\\core\\src\\num\\uint_macros.rs" "8B8C60E5AE204C9439C97A07FE2DBA7311185FFE" 2
	.cv_inline_site_id 206 within 205 inlined_at 39 461 0
	.cv_loc	206 32 1267 0
	movq	72(%rsp), %rax
	movq	80(%rsp), %rcx
.Ltmp501:
	addq	%rax, %rcx
	setb	%al
	movq	%rcx, 416(%rsp)
	movb	%al, %dl
	andb	$1, %dl
	movb	%dl, 431(%rsp)
.Ltmp502:
	.cv_loc	206 32 1267 0
	movq	%rcx, 328(%rsp)
	andb	$1, %al
	movb	%al, 336(%rsp)
.Ltmp503:
	.cv_loc	205 32 1267 0
	movq	328(%rsp), %rax
	movq	%rax, 64(%rsp)
	movq	%rax, 432(%rsp)
	movb	336(%rsp), %al
	movb	%al, %cl
	andb	$1, %cl
	movb	%cl, 446(%rsp)
.Ltmp504:
	.cv_loc	205 32 1267 0
	andb	$1, %al
	movb	%al, 447(%rsp)
	testb	$1, 447(%rsp)
	jne	.LBB55_4
	jmp	.LBB55_3
.Ltmp505:
.LBB55_2:
	.cv_loc	202 12 390 0
	movq	$0, 144(%rsp)
.Ltmp506:
	.cv_inline_site_id 207 within 202 inlined_at 12 390 0
	.cv_inline_site_id 208 within 207 inlined_at 34 716 0
	.cv_loc	208 38 117 0
	movq	144(%rsp), %rcx
	movq	152(%rsp), %rax
	movq	%rcx, 128(%rsp)
	movq	%rax, 136(%rsp)
.Ltmp507:
	.cv_loc	202 12 390 0
	movq	128(%rsp), %rcx
	movq	136(%rsp), %rax
	movq	%rcx, 112(%rsp)
	movq	%rax, 120(%rsp)
	.cv_loc	202 36 1 0
	jmp	.LBB55_19
.LBB55_3:
	.cv_loc	205 32 1267 0
	movq	64(%rsp), %rax
.Ltmp508:
	movq	%rax, 200(%rsp)
	movq	$1, 192(%rsp)
	jmp	.LBB55_5
.LBB55_4:
	movq	$0, 192(%rsp)
.Ltmp509:
.LBB55_5:
	.cv_loc	202 12 394 0
	movq	$0, 208(%rsp)
.Ltmp510:
	.cv_loc	205 35 1208 0
	cmpq	$0, 192(%rsp)
	jne	.LBB55_7
	.cv_loc	205 35 1210 0
	movq	208(%rsp), %rcx
	movq	216(%rsp), %rax
	movq	%rcx, 176(%rsp)
	movq	%rax, 184(%rsp)
	jmp	.LBB55_8
.LBB55_7:
	.cv_loc	205 35 1209 0
	movq	200(%rsp), %rax
	movq	%rax, 448(%rsp)
.Ltmp511:
	.cv_loc	205 35 1209 0
	movq	%rax, 184(%rsp)
	movabsq	$-9223372036854775807, %rax
	movq	%rax, 176(%rsp)
.Ltmp512:
.LBB55_8:
	.cv_loc	205 29 1948 0
	movabsq	$-9223372036854775807, %rdx
	movl	$1, %eax
	xorl	%ecx, %ecx
	cmpq	%rdx, 176(%rsp)
	cmoveq	%rcx, %rax
	cmpq	$0, %rax
	jne	.LBB55_10
	.cv_loc	205 29 1949 0
	movq	184(%rsp), %rax
	movq	%rax, 456(%rsp)
.Ltmp513:
	.cv_loc	205 29 1949 0
	movq	%rax, 168(%rsp)
	movabsq	$-9223372036854775807, %rax
	movq	%rax, 160(%rsp)
.Ltmp514:
	.cv_loc	205 29 1949 0
	jmp	.LBB55_11
.LBB55_10:
	.cv_loc	205 29 1950 0
	movq	176(%rsp), %rcx
	movq	184(%rsp), %rax
	movq	%rcx, 464(%rsp)
	movq	%rax, 472(%rsp)
.Ltmp515:
	.cv_loc	205 29 1950 0
	movq	%rcx, 344(%rsp)
	movq	%rax, 352(%rsp)
	movq	344(%rsp), %rcx
	movq	352(%rsp), %rax
	movq	%rcx, 160(%rsp)
	movq	%rax, 168(%rsp)
.Ltmp516:
.LBB55_11:
	.cv_loc	202 12 394 0
	movabsq	$-9223372036854775807, %rdx
	movl	$1, %eax
	xorl	%ecx, %ecx
	cmpq	%rdx, 160(%rsp)
	cmoveq	%rcx, %rax
	cmpq	$0, %rax
	jne	.LBB55_13
	movq	88(%rsp), %rax
	movq	168(%rsp), %rdx
	movq	%rdx, 480(%rsp)
.Ltmp517:
	.cv_loc	202 12 398 0
	movq	8(%rax), %rcx
	shlq	$1, %rcx
	movq	%rcx, 488(%rsp)
.Ltmp518:
	.cv_inline_site_id 209 within 202 inlined_at 12 398 0
	.cv_inline_site_id 210 within 209 inlined_at 21 1219 0
	.cv_loc	210 21 794 0
	callq	_ZN4core3cmp6max_by17hfe50df40895362f7E
	movq	%rax, %rdx
	movq	%rdx, 496(%rsp)
.Ltmp519:
	.cv_loc	202 12 399 0
	movq	%rdx, 504(%rsp)
.Ltmp520:
	.cv_loc	204 21 794 0
	movl	$8, %ecx
	callq	_ZN4core3cmp6max_by17hfe50df40895362f7E
	movq	%rax, %r8
	movq	%r8, 40(%rsp)
	movq	%r8, 512(%rsp)
.Ltmp521:
	.cv_loc	202 12 401 0
	movq	%r8, 520(%rsp)
.Ltmp522:
	.cv_inline_site_id 211 within 202 inlined_at 12 401 0
	.cv_inline_site_id 212 within 211 inlined_at 26 433 0
	.cv_inline_site_id 213 within 212 inlined_at 27 48 0
	.cv_loc	213 10 466 0
	movq	$1, 528(%rsp)
.Ltmp523:
	.cv_loc	211 26 433 0
	movl	$1, %edx
	movq	%rdx, %rcx
	callq	_ZN4core5alloc6layout6Layout5array5inner17h8b733b6f58d7e8a2E
	movq	%rax, %rcx
	movq	%rcx, 48(%rsp)
	movq	%rdx, %rax
	movq	88(%rsp), %rdx
	movq	%rax, 56(%rsp)
	movq	%rcx, 536(%rsp)
	movq	%rax, 544(%rsp)
.Ltmp524:
	.cv_loc	202 12 404 0
	leaq	288(%rsp), %rcx
	callq	_ZN5alloc7raw_vec19RawVec$LT$T$C$A$GT$14current_memory17hb20741ef8a8ededbE
	movq	48(%rsp), %rdx
	movq	56(%rsp), %r8
	movq	88(%rsp), %rax
	leaq	264(%rsp), %rcx
	leaq	288(%rsp), %r9
	movq	%rax, 32(%rsp)
	callq	_ZN5alloc7raw_vec11finish_grow17h6ed94ce3deb18587E
.Ltmp525:
	.cv_inline_site_id 214 within 202 inlined_at 12 404 0
	.cv_loc	214 29 1948 0
	cmpq	$0, 264(%rsp)
	je	.LBB55_14
	jmp	.LBB55_15
.Ltmp526:
.LBB55_13:
	.cv_loc	202 12 394 0
	movq	160(%rsp), %rcx
	movq	168(%rsp), %rax
	movq	%rcx, 224(%rsp)
	movq	%rax, 232(%rsp)
.Ltmp527:
	.cv_inline_site_id 215 within 202 inlined_at 12 394 0
	.cv_loc	215 29 1961 0
	movq	224(%rsp), %rcx
	movq	232(%rsp), %rax
	movq	%rcx, 616(%rsp)
	movq	%rax, 624(%rsp)
.Ltmp528:
	.cv_inline_site_id 216 within 215 inlined_at 29 1961 0
	.cv_loc	216 38 117 0
	movq	%rcx, 360(%rsp)
	movq	%rax, 368(%rsp)
.Ltmp529:
	.cv_loc	215 29 1961 0
	movq	360(%rsp), %rcx
	movq	368(%rsp), %rax
	movq	%rcx, 112(%rsp)
	movq	%rax, 120(%rsp)
.Ltmp530:
	.cv_loc	202 36 1 0
	jmp	.LBB55_19
.LBB55_14:
.Ltmp531:
	.cv_loc	214 29 1949 0
	movq	272(%rsp), %rcx
	movq	280(%rsp), %rax
	movq	%rcx, 552(%rsp)
	movq	%rax, 560(%rsp)
.Ltmp532:
	.cv_loc	214 29 1949 0
	movq	%rcx, 248(%rsp)
	movq	%rax, 256(%rsp)
	movq	$0, 240(%rsp)
.Ltmp533:
	.cv_loc	214 29 1949 0
	jmp	.LBB55_16
.LBB55_15:
	.cv_loc	214 29 1950 0
	movq	272(%rsp), %rcx
	movq	280(%rsp), %rax
	movq	%rcx, 568(%rsp)
	movq	%rax, 576(%rsp)
.Ltmp534:
	.cv_loc	214 29 1950 0
	movq	%rcx, 376(%rsp)
	movq	%rax, 384(%rsp)
	movq	376(%rsp), %rcx
	movq	384(%rsp), %rax
	movq	%rcx, 248(%rsp)
	movq	%rax, 256(%rsp)
	movq	$1, 240(%rsp)
.Ltmp535:
.LBB55_16:
	.cv_loc	202 12 404 0
	cmpq	$0, 240(%rsp)
	jne	.LBB55_18
	movq	40(%rsp), %r9
	movq	88(%rsp), %rcx
	movq	248(%rsp), %rdx
	movq	256(%rsp), %r8
	movq	%rdx, 584(%rsp)
	movq	%r8, 592(%rsp)
.Ltmp536:
	.cv_loc	202 12 405 0
	callq	_ZN5alloc7raw_vec19RawVec$LT$T$C$A$GT$15set_ptr_and_cap17hc5534a18ca884b0aE
	.cv_loc	202 12 406 0
	movabsq	$-9223372036854775807, %rax
	movq	%rax, 112(%rsp)
.Ltmp537:
	.cv_loc	202 12 407 0
	jmp	.LBB55_19
.LBB55_18:
.Ltmp538:
	.cv_loc	202 12 404 0
	movq	248(%rsp), %rcx
	movq	256(%rsp), %rax
	movq	%rcx, 312(%rsp)
	movq	%rax, 320(%rsp)
.Ltmp539:
	.cv_inline_site_id 217 within 202 inlined_at 12 404 0
	.cv_loc	217 29 1961 0
	movq	312(%rsp), %rcx
	movq	320(%rsp), %rax
	movq	%rcx, 600(%rsp)
	movq	%rax, 608(%rsp)
.Ltmp540:
	.cv_loc	217 29 1961 0
	movq	%rcx, 112(%rsp)
	movq	%rax, 120(%rsp)
.Ltmp541:
.LBB55_19:
	.cv_loc	202 12 407 0
	movq	112(%rsp), %rax
	movq	120(%rsp), %rdx
	addq	$632, %rsp
	retq
.Ltmp542:
.Lfunc_end55:
	.seh_endproc

	.def	_ZN5alloc7raw_vec19RawVec$LT$T$C$A$GT$15set_ptr_and_cap17hc5534a18ca884b0aE;
	.scl	3;
	.type	32;
	.endef
	.section	.text,"xr",one_only,_ZN5alloc7raw_vec19RawVec$LT$T$C$A$GT$15set_ptr_and_cap17hc5534a18ca884b0aE
	.p2align	4, 0x90
_ZN5alloc7raw_vec19RawVec$LT$T$C$A$GT$15set_ptr_and_cap17hc5534a18ca884b0aE:
.Lfunc_begin56:
	.cv_func_id 218
	.cv_loc	218 12 368 0
.seh_proc _ZN5alloc7raw_vec19RawVec$LT$T$C$A$GT$15set_ptr_and_cap17hc5534a18ca884b0aE
	subq	$72, %rsp
	.seh_stackalloc 72
	.seh_endprologue
	movq	%rcx, 24(%rsp)
	movq	%rdx, 32(%rsp)
	movq	%r8, 40(%rsp)
	movq	%r9, 48(%rsp)
.Ltmp543:
	.cv_inline_site_id 219 within 218 inlined_at 12 372 0
	.cv_loc	219 14 450 0
	movq	%rdx, 56(%rsp)
.Ltmp544:
	.cv_inline_site_id 220 within 219 inlined_at 14 450 0
	.cv_loc	220 14 201 0
	movq	%rdx, 8(%rsp)
.Ltmp545:
	.cv_loc	219 14 326 0
	movq	8(%rsp), %rax
	movq	%rax, 64(%rsp)
.Ltmp546:
	.cv_inline_site_id 221 within 219 inlined_at 13 90 0
	.cv_loc	221 14 201 0
	movq	%rax, 16(%rsp)
.Ltmp547:
	.cv_loc	219 13 90 0
	movq	16(%rsp), %rax
	movq	%rax, (%rsp)
.Ltmp548:
	.cv_loc	218 12 372 0
	movq	(%rsp), %rax
	movq	%rax, (%rcx)
	.cv_loc	218 12 373 0
	movq	%r9, 8(%rcx)
	.cv_loc	218 12 374 0
	addq	$72, %rsp
	retq
.Ltmp549:
.Lfunc_end56:
	.seh_endproc

	.def	_ZN5alloc7raw_vec19RawVec$LT$T$C$A$GT$7reserve21do_reserve_and_handle17hddd13b47cacc1178E;
	.scl	3;
	.type	32;
	.endef
	.section	.text,"xr",one_only,_ZN5alloc7raw_vec19RawVec$LT$T$C$A$GT$7reserve21do_reserve_and_handle17hddd13b47cacc1178E
	.p2align	4, 0x90
_ZN5alloc7raw_vec19RawVec$LT$T$C$A$GT$7reserve21do_reserve_and_handle17hddd13b47cacc1178E:
.Lfunc_begin57:
	.cv_func_id 222
	.cv_loc	222 12 284 0
.seh_proc _ZN5alloc7raw_vec19RawVec$LT$T$C$A$GT$7reserve21do_reserve_and_handle17hddd13b47cacc1178E
	subq	$56, %rsp
	.seh_stackalloc 56
	.seh_endprologue
	movq	%rcx, 32(%rsp)
	movq	%rdx, 40(%rsp)
	movq	%r8, 48(%rsp)
.Ltmp550:
	.cv_loc	222 12 289 0
	callq	_ZN5alloc7raw_vec19RawVec$LT$T$C$A$GT$14grow_amortized17h2c641634492b5707E
	movq	%rax, %rcx
	callq	_ZN5alloc7raw_vec14handle_reserve17h5aa9ea16b1292708E
	.cv_loc	222 12 290 0
	nop
	addq	$56, %rsp
	retq
.Ltmp551:
.Lfunc_end57:
	.seh_endproc

	.def	_ZN60_$LT$alloc..string..String$u20$as$u20$core..fmt..Display$GT$3fmt17h9402919fde075591E;
	.scl	3;
	.type	32;
	.endef
	.section	.text,"xr",one_only,_ZN60_$LT$alloc..string..String$u20$as$u20$core..fmt..Display$GT$3fmt17h9402919fde075591E
	.p2align	4, 0x90
_ZN60_$LT$alloc..string..String$u20$as$u20$core..fmt..Display$GT$3fmt17h9402919fde075591E:
.Lfunc_begin58:
	.cv_func_id 223
	.cv_loc	223 37 2262 0
.seh_proc _ZN60_$LT$alloc..string..String$u20$as$u20$core..fmt..Display$GT$3fmt17h9402919fde075591E
	subq	$168, %rsp
	.seh_stackalloc 168
	.seh_endprologue
	movq	%rdx, %r8
	movq	%rcx, %rax
.Ltmp552:
	.cv_inline_site_id 224 within 223 inlined_at 37 2263 0
	.cv_inline_site_id 225 within 224 inlined_at 37 2448 0
	.cv_inline_site_id 226 within 225 inlined_at 11 2610 0
	.cv_inline_site_id 227 within 226 inlined_at 6 2536 0
	.cv_inline_site_id 228 within 227 inlined_at 9 99 0
	.cv_loc	228 6 2551 0
	movabsq	$9223372036854775807, %rcx
	movq	%rcx, 40(%rsp)
	movq	%rax, 80(%rsp)
	movq	%r8, 88(%rsp)
.Ltmp553:
	.cv_loc	224 37 2448 0
	movq	%rax, 96(%rsp)
.Ltmp554:
	.cv_loc	226 11 1240 0
	movq	%rax, 104(%rsp)
.Ltmp555:
	.cv_inline_site_id 229 within 226 inlined_at 11 1240 0
	.cv_loc	229 12 223 0
	movq	(%rax), %rcx
	movq	%rcx, 112(%rsp)
.Ltmp556:
	.cv_inline_site_id 230 within 229 inlined_at 12 223 0
	.cv_loc	230 13 107 0
	movq	%rcx, 120(%rsp)
.Ltmp557:
	.cv_loc	226 11 1240 0
	movq	%rcx, 128(%rsp)
.Ltmp558:
	.cv_loc	225 11 2610 0
	movq	16(%rax), %rax
	movq	%rax, 136(%rsp)
.Ltmp559:
	.cv_inline_site_id 231 within 226 inlined_at 9 101 0
	.cv_inline_site_id 232 within 231 inlined_at 3 742 0
	.cv_loc	232 2 59 0
	movq	%rcx, 144(%rsp)
.Ltmp560:
	.cv_loc	232 4 119 0
	movq	%rcx, 64(%rsp)
	movq	%rax, 72(%rsp)
	movq	64(%rsp), %rcx
	movq	72(%rsp), %rax
	movq	%rcx, 48(%rsp)
	movq	%rax, 56(%rsp)
	movq	48(%rsp), %rcx
	movq	56(%rsp), %rdx
.Ltmp561:
	.cv_loc	226 9 101 0
	movq	%rcx, 152(%rsp)
	movq	%rdx, 160(%rsp)
.Ltmp562:
	.cv_loc	223 37 2263 0
	callq	_ZN42_$LT$str$u20$as$u20$core..fmt..Display$GT$3fmt17h976a9fa57201259cE
	.cv_loc	223 37 2264 0
	andb	$1, %al
	movzbl	%al, %eax
	addq	$168, %rsp
	retq
.Ltmp563:
.Lfunc_end58:
	.seh_endproc

	.def	_ZN63_$LT$alloc..alloc..Global$u20$as$u20$core..alloc..Allocator$GT$10deallocate17hb2db397889d2fae8E;
	.scl	3;
	.type	32;
	.endef
	.section	.text,"xr",one_only,_ZN63_$LT$alloc..alloc..Global$u20$as$u20$core..alloc..Allocator$GT$10deallocate17hb2db397889d2fae8E
	.p2align	4, 0x90
_ZN63_$LT$alloc..alloc..Global$u20$as$u20$core..alloc..Allocator$GT$10deallocate17hb2db397889d2fae8E:
.Lfunc_begin59:
	.cv_func_id 233
	.cv_loc	233 33 254 0
.seh_proc _ZN63_$LT$alloc..alloc..Global$u20$as$u20$core..alloc..Allocator$GT$10deallocate17hb2db397889d2fae8E
	subq	$136, %rsp
	.seh_stackalloc 136
	.seh_endprologue
	movq	%rdx, 32(%rsp)
	movq	%r8, 40(%rsp)
	movq	%r9, 48(%rsp)
	movq	%rcx, 80(%rsp)
	movq	%rdx, 88(%rsp)
.Ltmp564:
	.cv_loc	233 33 255 0
	leaq	40(%rsp), %rax
	movq	%rax, 96(%rsp)
	cmpq	$0, 48(%rsp)
	jne	.LBB59_2
	jmp	.LBB59_3
.LBB59_2:
	.cv_inline_site_id 234 within 233 inlined_at 33 258 0
	.cv_loc	234 14 326 0
	movq	32(%rsp), %rcx
.Ltmp565:
	movq	%rcx, 104(%rsp)
.Ltmp566:
	.cv_loc	233 33 258 0
	movq	40(%rsp), %rdx
	movq	48(%rsp), %rax
	movq	%rdx, 56(%rsp)
	movq	%rax, 64(%rsp)
.Ltmp567:
	.cv_loc	234 33 121 0
	leaq	56(%rsp), %rax
	movq	%rax, 112(%rsp)
.Ltmp568:
	.cv_inline_site_id 235 within 234 inlined_at 33 121 0
	.cv_loc	235 26 129 0
	movq	64(%rsp), %rdx
.Ltmp569:
	.cv_loc	234 33 121 0
	leaq	56(%rsp), %rax
	movq	%rax, 120(%rsp)
.Ltmp570:
	.cv_loc	235 26 140 0
	movq	56(%rsp), %rax
	movq	%rax, 128(%rsp)
.Ltmp571:
	.cv_inline_site_id 236 within 235 inlined_at 26 140 0
	.cv_loc	236 27 96 0
	movq	%rax, 72(%rsp)
	movq	72(%rsp), %r8
.Ltmp572:
	.cv_loc	234 33 121 0
	callq	__rust_dealloc
.Ltmp573:
.LBB59_3:
	.cv_loc	233 33 260 0
	nop
	addq	$136, %rsp
	retq
.Ltmp574:
.Lfunc_end59:
	.seh_endproc

	.def	_ZN63_$LT$alloc..alloc..Global$u20$as$u20$core..alloc..Allocator$GT$15allocate_zeroed17h1d3d52d212f205b5E;
	.scl	3;
	.type	32;
	.endef
	.section	.text,"xr",one_only,_ZN63_$LT$alloc..alloc..Global$u20$as$u20$core..alloc..Allocator$GT$15allocate_zeroed17h1d3d52d212f205b5E
	.p2align	4, 0x90
_ZN63_$LT$alloc..alloc..Global$u20$as$u20$core..alloc..Allocator$GT$15allocate_zeroed17h1d3d52d212f205b5E:
.Lfunc_begin60:
	.cv_func_id 237
	.cv_loc	237 33 249 0
.seh_proc _ZN63_$LT$alloc..alloc..Global$u20$as$u20$core..alloc..Allocator$GT$15allocate_zeroed17h1d3d52d212f205b5E
	subq	$56, %rsp
	.seh_stackalloc 56
	.seh_endprologue
	movq	%rcx, 32(%rsp)
	movq	%rdx, 40(%rsp)
	movq	%r8, 48(%rsp)
	movb	$1, %r9b
.Ltmp575:
	.cv_loc	237 33 250 0
	callq	_ZN5alloc5alloc6Global10alloc_impl17h0b6eb089916e3f87E
	.cv_loc	237 33 251 0
	nop
	addq	$56, %rsp
	retq
.Ltmp576:
.Lfunc_end60:
	.seh_endproc

	.def	_ZN63_$LT$alloc..alloc..Global$u20$as$u20$core..alloc..Allocator$GT$4grow17hd331e5918dd9613aE;
	.scl	3;
	.type	32;
	.endef
	.section	.text,"xr",one_only,_ZN63_$LT$alloc..alloc..Global$u20$as$u20$core..alloc..Allocator$GT$4grow17hd331e5918dd9613aE
	.p2align	4, 0x90
_ZN63_$LT$alloc..alloc..Global$u20$as$u20$core..alloc..Allocator$GT$4grow17hd331e5918dd9613aE:
.Lfunc_begin61:
	.cv_func_id 238
	.cv_loc	238 33 263 0
.seh_proc _ZN63_$LT$alloc..alloc..Global$u20$as$u20$core..alloc..Allocator$GT$4grow17hd331e5918dd9613aE
	subq	$104, %rsp
	.seh_stackalloc 104
	.seh_endprologue
	movq	152(%rsp), %r11
	movq	144(%rsp), %r10
	movq	%rcx, 56(%rsp)
	movq	%rdx, 64(%rsp)
	movq	%r8, 72(%rsp)
	movq	%r9, 80(%rsp)
	movq	%r10, 88(%rsp)
	movq	%r11, 96(%rsp)
.Ltmp577:
	.cv_loc	238 33 270 0
	movq	%rsp, %rax
	movq	%r11, 40(%rax)
	movq	%r10, 32(%rax)
	movb	$0, 48(%rax)
	callq	_ZN5alloc5alloc6Global9grow_impl17h914beb8f04cacfafE
	.cv_loc	238 33 271 0
	nop
	addq	$104, %rsp
	retq
.Ltmp578:
.Lfunc_end61:
	.seh_endproc

	.def	_ZN63_$LT$alloc..alloc..Global$u20$as$u20$core..alloc..Allocator$GT$8allocate17h1a90bc7ce452f7beE;
	.scl	3;
	.type	32;
	.endef
	.section	.text,"xr",one_only,_ZN63_$LT$alloc..alloc..Global$u20$as$u20$core..alloc..Allocator$GT$8allocate17h1a90bc7ce452f7beE
	.p2align	4, 0x90
_ZN63_$LT$alloc..alloc..Global$u20$as$u20$core..alloc..Allocator$GT$8allocate17h1a90bc7ce452f7beE:
.Lfunc_begin62:
	.cv_func_id 239
	.cv_loc	239 33 244 0
.seh_proc _ZN63_$LT$alloc..alloc..Global$u20$as$u20$core..alloc..Allocator$GT$8allocate17h1a90bc7ce452f7beE
	subq	$56, %rsp
	.seh_stackalloc 56
	.seh_endprologue
	movq	%rcx, 32(%rsp)
	movq	%rdx, 40(%rsp)
	movq	%r8, 48(%rsp)
	xorl	%eax, %eax
	movb	%al, %r9b
.Ltmp579:
	.cv_loc	239 33 245 0
	callq	_ZN5alloc5alloc6Global10alloc_impl17h0b6eb089916e3f87E
	.cv_loc	239 33 246 0
	nop
	addq	$56, %rsp
	retq
.Ltmp580:
.Lfunc_end62:
	.seh_endproc

	.def	_ZN66_$LT$i32$u20$as$u20$core..ops..arith..AddAssign$LT$$RF$i32$GT$$GT$10add_assign17hf0ce9f5603ab0f53E;
	.scl	3;
	.type	32;
	.endef
	.section	.text,"xr",one_only,_ZN66_$LT$i32$u20$as$u20$core..ops..arith..AddAssign$LT$$RF$i32$GT$$GT$10add_assign17hf0ce9f5603ab0f53E
	.p2align	4, 0x90
_ZN66_$LT$i32$u20$as$u20$core..ops..arith..AddAssign$LT$$RF$i32$GT$$GT$10add_assign17hf0ce9f5603ab0f53E:
.Lfunc_begin63:
	.cv_func_id 240
	.cv_file	40 "/rustc/5680fa18feaa87f3ff04063800aec256c3d4b4be\\library\\core\\src\\internal_macros.rs" "21DF0670FB6F9AEC8AEDC348EF43B76AEB87F502" 2
	.cv_loc	240 40 72 0
.seh_proc _ZN66_$LT$i32$u20$as$u20$core..ops..arith..AddAssign$LT$$RF$i32$GT$$GT$10add_assign17hf0ce9f5603ab0f53E
	subq	$72, %rsp
	.seh_stackalloc 72
	.seh_endprologue
	movq	%rcx, 32(%rsp)
	movq	%rcx, 48(%rsp)
	movq	%rdx, 56(%rsp)
.Ltmp581:
	.cv_loc	240 40 73 0
	movl	(%rdx), %eax
	movl	%eax, 68(%rsp)
.Ltmp582:
	.cv_file	41 "/rustc/5680fa18feaa87f3ff04063800aec256c3d4b4be\\library\\core\\src\\ops\\arith.rs" "4EAECDFC7B83214AA6FF1787B4AA865A7716DAA1" 2
	.cv_inline_site_id 241 within 240 inlined_at 40 73 0
	.cv_loc	241 41 760 0
	addl	(%rcx), %eax
	movl	%eax, 44(%rsp)
	seto	%al
	testb	$1, %al
	jne	.LBB63_2
	movq	32(%rsp), %rax
	movl	44(%rsp), %ecx
	movl	%ecx, (%rax)
.Ltmp583:
	.cv_loc	240 40 74 0
	addq	$72, %rsp
	retq
.LBB63_2:
.Ltmp584:
	.cv_loc	241 41 760 0
	leaq	str.1(%rip), %rcx
	leaq	__unnamed_9(%rip), %r8
	movl	$28, %edx
	callq	_ZN4core9panicking5panic17hd8fd9a7d9b3c9589E
	ud2
.Ltmp585:
.Lfunc_end63:
	.seh_endproc

	.def	_ZN70_$LT$alloc..vec..Vec$LT$T$C$A$GT$$u20$as$u20$core..ops..drop..Drop$GT$4drop17hffdb0bf63b5d99aaE;
	.scl	3;
	.type	32;
	.endef
	.section	.text,"xr",one_only,_ZN70_$LT$alloc..vec..Vec$LT$T$C$A$GT$$u20$as$u20$core..ops..drop..Drop$GT$4drop17hffdb0bf63b5d99aaE
	.p2align	4, 0x90
_ZN70_$LT$alloc..vec..Vec$LT$T$C$A$GT$$u20$as$u20$core..ops..drop..Drop$GT$4drop17hffdb0bf63b5d99aaE:
.Lfunc_begin64:
	.cv_func_id 242
	.cv_loc	242 11 3008 0
.seh_proc _ZN70_$LT$alloc..vec..Vec$LT$T$C$A$GT$$u20$as$u20$core..ops..drop..Drop$GT$4drop17hffdb0bf63b5d99aaE
	subq	$88, %rsp
	.seh_stackalloc 88
	.seh_endprologue
	movq	%rcx, %rax
	movq	%rax, 32(%rsp)
.Ltmp586:
	.cv_inline_site_id 243 within 242 inlined_at 11 3013 0
	.cv_loc	243 11 1273 0
	movq	%rax, 40(%rsp)
.Ltmp587:
	.cv_inline_site_id 244 within 243 inlined_at 11 1273 0
	.cv_loc	244 12 223 0
	movq	(%rax), %rcx
	movq	%rcx, 48(%rsp)
.Ltmp588:
	.cv_inline_site_id 245 within 244 inlined_at 12 223 0
	.cv_loc	245 13 107 0
	movq	%rcx, 56(%rsp)
.Ltmp589:
	.cv_inline_site_id 246 within 245 inlined_at 13 107 0
	.cv_loc	246 14 326 0
	movq	%rcx, 64(%rsp)
.Ltmp590:
	.cv_loc	242 11 3013 0
	movq	16(%rax), %rax
	movq	%rax, 72(%rsp)
.Ltmp591:
	.cv_inline_site_id 247 within 243 inlined_at 3 774 0
	.cv_loc	247 15 58 0
	movq	%rcx, 80(%rsp)
.Ltmp592:
	.cv_loc	247 4 136 0
	movq	%rcx, 16(%rsp)
	movq	%rax, 24(%rsp)
	movq	16(%rsp), %rcx
	movq	24(%rsp), %rax
	movq	%rcx, (%rsp)
	movq	%rax, 8(%rsp)
.Ltmp593:
	.cv_loc	242 11 3016 0
	addq	$88, %rsp
	retq
.Ltmp594:
.Lfunc_end64:
	.seh_endproc

	.def	_ZN72_$LT$alloc..vec..Vec$LT$T$C$A$GT$$u20$as$u20$core..ops..deref..Deref$GT$5deref17hbeab459497feb974E;
	.scl	3;
	.type	32;
	.endef
	.section	.text,"xr",one_only,_ZN72_$LT$alloc..vec..Vec$LT$T$C$A$GT$$u20$as$u20$core..ops..deref..Deref$GT$5deref17hbeab459497feb974E
	.p2align	4, 0x90
_ZN72_$LT$alloc..vec..Vec$LT$T$C$A$GT$$u20$as$u20$core..ops..deref..Deref$GT$5deref17hbeab459497feb974E:
.Lfunc_begin65:
	.cv_func_id 248
	.cv_loc	248 11 2609 0
.seh_proc _ZN72_$LT$alloc..vec..Vec$LT$T$C$A$GT$$u20$as$u20$core..ops..deref..Deref$GT$5deref17hbeab459497feb974E
	subq	$96, %rsp
	.seh_stackalloc 96
	.seh_endprologue
	movq	%rcx, %rax
	movabsq	$9223372036854775807, %rcx
.Ltmp595:
	.cv_inline_site_id 249 within 248 inlined_at 11 2610 0
	.cv_inline_site_id 250 within 249 inlined_at 6 2536 0
	.cv_inline_site_id 251 within 250 inlined_at 9 99 0
	.cv_loc	251 6 2551 0
	movq	%rcx, (%rsp)
	movq	%rax, 40(%rsp)
.Ltmp596:
	.cv_loc	249 11 1240 0
	movq	%rax, 48(%rsp)
.Ltmp597:
	.cv_inline_site_id 252 within 249 inlined_at 11 1240 0
	.cv_loc	252 12 223 0
	movq	(%rax), %rcx
	movq	%rcx, 56(%rsp)
.Ltmp598:
	.cv_inline_site_id 253 within 252 inlined_at 12 223 0
	.cv_loc	253 13 107 0
	movq	%rcx, 64(%rsp)
.Ltmp599:
	.cv_loc	249 11 1240 0
	movq	%rcx, 72(%rsp)
.Ltmp600:
	.cv_loc	248 11 2610 0
	movq	16(%rax), %rax
	movq	%rax, 80(%rsp)
.Ltmp601:
	.cv_inline_site_id 254 within 249 inlined_at 9 101 0
	.cv_inline_site_id 255 within 254 inlined_at 3 742 0
	.cv_loc	255 2 59 0
	movq	%rcx, 88(%rsp)
.Ltmp602:
	.cv_loc	255 4 119 0
	movq	%rcx, 24(%rsp)
	movq	%rax, 32(%rsp)
	movq	24(%rsp), %rcx
	movq	32(%rsp), %rax
	movq	%rcx, 8(%rsp)
	movq	%rax, 16(%rsp)
	movq	8(%rsp), %rax
	movq	16(%rsp), %rdx
.Ltmp603:
	.cv_loc	248 11 2611 0
	addq	$96, %rsp
	retq
.Ltmp604:
.Lfunc_end65:
	.seh_endproc

	.def	_ZN75_$LT$usize$u20$as$u20$core..slice..index..SliceIndex$LT$$u5b$T$u5d$$GT$$GT$5index17hcd196fb83dfaceafE;
	.scl	3;
	.type	32;
	.endef
	.section	.text,"xr",one_only,_ZN75_$LT$usize$u20$as$u20$core..slice..index..SliceIndex$LT$$u5b$T$u5d$$GT$$GT$5index17hcd196fb83dfaceafE
	.p2align	4, 0x90
_ZN75_$LT$usize$u20$as$u20$core..slice..index..SliceIndex$LT$$u5b$T$u5d$$GT$$GT$5index17hcd196fb83dfaceafE:
.Lfunc_begin66:
	.cv_func_id 256
	.cv_loc	256 1 259 0
.seh_proc _ZN75_$LT$usize$u20$as$u20$core..slice..index..SliceIndex$LT$$u5b$T$u5d$$GT$$GT$5index17hcd196fb83dfaceafE
	subq	$88, %rsp
	.seh_stackalloc 88
	.seh_endprologue
	movq	%r9, 32(%rsp)
	movq	%r8, 40(%rsp)
	movq	%rdx, 48(%rsp)
	movq	%rcx, 56(%rsp)
	movq	%rcx, 64(%rsp)
	movq	%rdx, 72(%rsp)
	movq	%r8, 80(%rsp)
.Ltmp605:
	.cv_loc	256 1 261 0
	cmpq	%r8, %rcx
	setb	%al
	testb	$1, %al
	jne	.LBB66_1
	jmp	.LBB66_2
.LBB66_1:
	movq	56(%rsp), %rcx
	movq	48(%rsp), %rax
	addq	%rcx, %rax
	.cv_loc	256 1 262 0
	addq	$88, %rsp
	retq
.LBB66_2:
	.cv_loc	256 1 261 0
	movq	32(%rsp), %r8
	movq	40(%rsp), %rdx
	movq	56(%rsp), %rcx
	callq	_ZN4core9panicking18panic_bounds_check17h385576742e0462ffE
	ud2
.Ltmp606:
.Lfunc_end66:
	.seh_endproc

	.def	_ZN76_$LT$alloc..string..String$u20$as$u20$core..convert..From$LT$$RF$str$GT$$GT$4from17h9a57d6caf2b4e621E;
	.scl	3;
	.type	32;
	.endef
	.section	.text,"xr",one_only,_ZN76_$LT$alloc..string..String$u20$as$u20$core..convert..From$LT$$RF$str$GT$$GT$4from17h9a57d6caf2b4e621E
	.p2align	4, 0x90
_ZN76_$LT$alloc..string..String$u20$as$u20$core..convert..From$LT$$RF$str$GT$$GT$4from17h9a57d6caf2b4e621E:
.Lfunc_begin67:
	.cv_func_id 257
	.cv_loc	257 37 2667 0
.seh_proc _ZN76_$LT$alloc..string..String$u20$as$u20$core..convert..From$LT$$RF$str$GT$$GT$4from17h9a57d6caf2b4e621E
	subq	$120, %rsp
	.seh_stackalloc 120
	.seh_endprologue
	movq	%rcx, 32(%rsp)
	movq	%rcx, 40(%rsp)
.Ltmp607:
	.cv_inline_site_id 258 within 257 inlined_at 37 2668 0
	.cv_file	42 "/rustc/5680fa18feaa87f3ff04063800aec256c3d4b4be\\library\\alloc\\src\\str.rs" "7FF30F0446D3659F40D8141E25C05C28B2D2408C" 2
	.cv_inline_site_id 259 within 258 inlined_at 42 209 0
	.cv_inline_site_id 260 within 259 inlined_at 30 823 0
	.cv_inline_site_id 261 within 260 inlined_at 30 416 0
	.cv_inline_site_id 262 within 261 inlined_at 30 441 0
	.cv_loc	262 30 110 0
	movq	%rdx, 88(%rsp)
	movq	%r8, 96(%rsp)
.Ltmp608:
	.cv_file	43 "/rustc/5680fa18feaa87f3ff04063800aec256c3d4b4be\\library\\core\\src\\str\\mod.rs" "947774BB74FE562F77CEDDAF12DF69A499F7653D" 2
	.cv_loc	259 43 321 0
	movq	%rdx, 104(%rsp)
	movq	%r8, 112(%rsp)
.Ltmp609:
	.cv_loc	262 30 111 0
	leaq	64(%rsp), %rcx
	callq	_ZN52_$LT$T$u20$as$u20$alloc..slice..hack..ConvertVec$GT$6to_vec17h5d3418fccb3a3c76E
	movq	32(%rsp), %rcx
	movq	40(%rsp), %rax
.Ltmp610:
	.cv_loc	259 37 846 0
	movq	64(%rsp), %rdx
	movq	%rdx, (%rcx)
	movq	72(%rsp), %rdx
	movq	%rdx, 8(%rcx)
	movq	80(%rsp), %rdx
	movq	%rdx, 16(%rcx)
.Ltmp611:
	.cv_loc	257 37 2669 0
	addq	$120, %rsp
	retq
.Ltmp612:
.Lfunc_end67:
	.seh_endproc

	.def	_ZN77_$LT$alloc..raw_vec..RawVec$LT$T$C$A$GT$$u20$as$u20$core..ops..drop..Drop$GT$4drop17h2cb3d0b7f424f791E;
	.scl	3;
	.type	32;
	.endef
	.section	.text,"xr",one_only,_ZN77_$LT$alloc..raw_vec..RawVec$LT$T$C$A$GT$$u20$as$u20$core..ops..drop..Drop$GT$4drop17h2cb3d0b7f424f791E
	.p2align	4, 0x90
_ZN77_$LT$alloc..raw_vec..RawVec$LT$T$C$A$GT$$u20$as$u20$core..ops..drop..Drop$GT$4drop17h2cb3d0b7f424f791E:
.Lfunc_begin68:
	.cv_func_id 263
	.cv_loc	263 12 483 0
.seh_proc _ZN77_$LT$alloc..raw_vec..RawVec$LT$T$C$A$GT$$u20$as$u20$core..ops..drop..Drop$GT$4drop17h2cb3d0b7f424f791E
	subq	$104, %rsp
	.seh_stackalloc 104
	.seh_endprologue
	movq	%rcx, %rdx
	movq	%rdx, 40(%rsp)
	movq	%rdx, 72(%rsp)
.Ltmp613:
	.cv_loc	263 12 484 0
	leaq	48(%rsp), %rcx
	callq	_ZN5alloc7raw_vec19RawVec$LT$T$C$A$GT$14current_memory17hb20741ef8a8ededbE
	movl	$1, %eax
	xorl	%ecx, %ecx
	cmpq	$0, 56(%rsp)
	cmoveq	%rcx, %rax
	cmpq	$1, %rax
	jne	.LBB68_2
	movq	40(%rsp), %rcx
	movq	48(%rsp), %rdx
	movq	%rdx, 80(%rsp)
	movq	56(%rsp), %r8
	movq	64(%rsp), %r9
	movq	%r8, 88(%rsp)
	movq	%r9, 96(%rsp)
	.cv_loc	263 12 485 0
	callq	_ZN63_$LT$alloc..alloc..Global$u20$as$u20$core..alloc..Allocator$GT$10deallocate17hb2db397889d2fae8E
.Ltmp614:
.LBB68_2:
	.cv_loc	263 12 487 0
	nop
	addq	$104, %rsp
	retq
.Ltmp615:
.Lfunc_end68:
	.seh_endproc

	.def	_ZN81_$LT$alloc..vec..Vec$LT$T$C$A$GT$$u20$as$u20$core..ops..index..Index$LT$I$GT$$GT$5index17h389221030373d58bE;
	.scl	3;
	.type	32;
	.endef
	.section	.text,"xr",one_only,_ZN81_$LT$alloc..vec..Vec$LT$T$C$A$GT$$u20$as$u20$core..ops..index..Index$LT$I$GT$$GT$5index17h389221030373d58bE
	.p2align	4, 0x90
_ZN81_$LT$alloc..vec..Vec$LT$T$C$A$GT$$u20$as$u20$core..ops..index..Index$LT$I$GT$$GT$5index17h389221030373d58bE:
.Lfunc_begin69:
	.cv_func_id 264
	.cv_loc	264 11 2674 0
.seh_proc _ZN81_$LT$alloc..vec..Vec$LT$T$C$A$GT$$u20$as$u20$core..ops..index..Index$LT$I$GT$$GT$5index17h389221030373d58bE
	.seh_handler __CxxFrameHandler3, @unwind, @except
	pushq	%rbp
	.seh_pushreg %rbp
	subq	$192, %rsp
	.seh_stackalloc 192
	leaq	128(%rsp), %rbp
	.seh_setframe %rbp, 128
	.seh_endprologue
	movq	$-2, 56(%rbp)
	movq	%r8, %r9
	movq	%rdx, -88(%rbp)
	movq	%rcx, %rax
	movq	-88(%rbp), %rcx
	movabsq	$9223372036854775807, %rdx
.Ltmp618:
	.cv_inline_site_id 265 within 264 inlined_at 11 2675 0
	.cv_inline_site_id 266 within 265 inlined_at 11 2610 0
	.cv_inline_site_id 267 within 266 inlined_at 6 2536 0
	.cv_inline_site_id 268 within 267 inlined_at 9 99 0
	.cv_loc	268 6 2551 0
	movq	%rdx, -72(%rbp)
	movq	%rax, -32(%rbp)
	movq	%rcx, -24(%rbp)
.Ltmp619:
	.cv_loc	266 11 1240 0
	movq	%rax, -16(%rbp)
.Ltmp620:
	.cv_inline_site_id 269 within 266 inlined_at 11 1240 0
	.cv_loc	269 12 223 0
	movq	(%rax), %rdx
	movq	%rdx, -8(%rbp)
.Ltmp621:
	.cv_inline_site_id 270 within 269 inlined_at 12 223 0
	.cv_loc	270 13 107 0
	movq	%rdx, (%rbp)
.Ltmp622:
	.cv_loc	266 11 1240 0
	movq	%rdx, 8(%rbp)
.Ltmp623:
	.cv_loc	265 11 2610 0
	movq	16(%rax), %rax
	movq	%rax, 16(%rbp)
.Ltmp624:
	.cv_inline_site_id 271 within 266 inlined_at 9 101 0
	.cv_inline_site_id 272 within 271 inlined_at 3 742 0
	.cv_loc	272 2 59 0
	movq	%rdx, 24(%rbp)
.Ltmp625:
	.cv_loc	272 4 119 0
	movq	%rdx, -48(%rbp)
	movq	%rax, -40(%rbp)
	movq	-48(%rbp), %rdx
	movq	-40(%rbp), %rax
	movq	%rdx, -64(%rbp)
	movq	%rax, -56(%rbp)
	movq	-64(%rbp), %rdx
	movq	-56(%rbp), %r8
.Ltmp626:
	.cv_loc	266 9 101 0
	movq	%rdx, 32(%rbp)
	movq	%r8, 40(%rbp)
.Ltmp627:
	.cv_loc	264 11 2675 0
	movq	%rcx, 48(%rbp)
	.cv_loc	265 1 18 0
.Ltmp616:
.Ltmp628:
	callq	_ZN75_$LT$usize$u20$as$u20$core..slice..index..SliceIndex$LT$$u5b$T$u5d$$GT$$GT$5index17hcd196fb83dfaceafE
.Ltmp617:
	movq	%rax, -80(%rbp)
	jmp	.LBB69_2
.Ltmp629:
.LBB69_2:
	.cv_loc	264 11 2676 0
	movq	-80(%rbp), %rax
	addq	$192, %rsp
	popq	%rbp
	retq
	.seh_handlerdata
	.long	($cppxdata$_ZN81_$LT$alloc..vec..Vec$LT$T$C$A$GT$$u20$as$u20$core..ops..index..Index$LT$I$GT$$GT$5index17h389221030373d58bE)@IMGREL
	.section	.text,"xr",one_only,_ZN81_$LT$alloc..vec..Vec$LT$T$C$A$GT$$u20$as$u20$core..ops..index..Index$LT$I$GT$$GT$5index17h389221030373d58bE
	.seh_endproc
	.def	"?dtor$1@?0?_ZN81_$LT$alloc..vec..Vec$LT$T$C$A$GT$$u20$as$u20$core..ops..index..Index$LT$I$GT$$GT$5index17h389221030373d58bE@4HA";
	.scl	3;
	.type	32;
	.endef
	.p2align	4, 0x90
"?dtor$1@?0?_ZN81_$LT$alloc..vec..Vec$LT$T$C$A$GT$$u20$as$u20$core..ops..index..Index$LT$I$GT$$GT$5index17h389221030373d58bE@4HA":
.seh_proc "?dtor$1@?0?_ZN81_$LT$alloc..vec..Vec$LT$T$C$A$GT$$u20$as$u20$core..ops..index..Index$LT$I$GT$$GT$5index17h389221030373d58bE@4HA"
.LBB69_1:
	movq	%rdx, 16(%rsp)
	pushq	%rbp
	.seh_pushreg %rbp
	subq	$32, %rsp
	.seh_stackalloc 32
	leaq	128(%rdx), %rbp
	.seh_endprologue
	.cv_loc	264 11 2674 0
	addq	$32, %rsp
	popq	%rbp
	retq
.Ltmp630:
.Lfunc_end69:
	.seh_handlerdata
	.section	.text,"xr",one_only,_ZN81_$LT$alloc..vec..Vec$LT$T$C$A$GT$$u20$as$u20$core..ops..index..Index$LT$I$GT$$GT$5index17h389221030373d58bE
	.seh_endproc
	.section	.xdata,"dr",associative,_ZN81_$LT$alloc..vec..Vec$LT$T$C$A$GT$$u20$as$u20$core..ops..index..Index$LT$I$GT$$GT$5index17h389221030373d58bE
	.p2align	2, 0x0
$cppxdata$_ZN81_$LT$alloc..vec..Vec$LT$T$C$A$GT$$u20$as$u20$core..ops..index..Index$LT$I$GT$$GT$5index17h389221030373d58bE:
	.long	429065506
	.long	1
	.long	($stateUnwindMap$_ZN81_$LT$alloc..vec..Vec$LT$T$C$A$GT$$u20$as$u20$core..ops..index..Index$LT$I$GT$$GT$5index17h389221030373d58bE)@IMGREL
	.long	0
	.long	0
	.long	3
	.long	($ip2state$_ZN81_$LT$alloc..vec..Vec$LT$T$C$A$GT$$u20$as$u20$core..ops..index..Index$LT$I$GT$$GT$5index17h389221030373d58bE)@IMGREL
	.long	184
	.long	0
	.long	1
$stateUnwindMap$_ZN81_$LT$alloc..vec..Vec$LT$T$C$A$GT$$u20$as$u20$core..ops..index..Index$LT$I$GT$$GT$5index17h389221030373d58bE:
	.long	-1
	.long	"?dtor$1@?0?_ZN81_$LT$alloc..vec..Vec$LT$T$C$A$GT$$u20$as$u20$core..ops..index..Index$LT$I$GT$$GT$5index17h389221030373d58bE@4HA"@IMGREL
$ip2state$_ZN81_$LT$alloc..vec..Vec$LT$T$C$A$GT$$u20$as$u20$core..ops..index..Index$LT$I$GT$$GT$5index17h389221030373d58bE:
	.long	.Lfunc_begin69@IMGREL
	.long	-1
	.long	.Ltmp616@IMGREL+1
	.long	0
	.long	.Ltmp617@IMGREL+1
	.long	-1
	.section	.text,"xr",one_only,_ZN81_$LT$alloc..vec..Vec$LT$T$C$A$GT$$u20$as$u20$core..ops..index..Index$LT$I$GT$$GT$5index17h389221030373d58bE

	.def	_ZN81_$LT$alloc..vec..Vec$LT$T$C$A$GT$$u20$as$u20$core..ops..index..Index$LT$I$GT$$GT$5index17hdcfb48bd7539e753E;
	.scl	3;
	.type	32;
	.endef
	.section	.text,"xr",one_only,_ZN81_$LT$alloc..vec..Vec$LT$T$C$A$GT$$u20$as$u20$core..ops..index..Index$LT$I$GT$$GT$5index17hdcfb48bd7539e753E
	.p2align	4, 0x90
_ZN81_$LT$alloc..vec..Vec$LT$T$C$A$GT$$u20$as$u20$core..ops..index..Index$LT$I$GT$$GT$5index17hdcfb48bd7539e753E:
.Lfunc_begin70:
	.cv_func_id 273
	.cv_loc	273 11 2674 0
.seh_proc _ZN81_$LT$alloc..vec..Vec$LT$T$C$A$GT$$u20$as$u20$core..ops..index..Index$LT$I$GT$$GT$5index17hdcfb48bd7539e753E
	.seh_handler __CxxFrameHandler3, @unwind, @except
	pushq	%rbp
	.seh_pushreg %rbp
	subq	$224, %rsp
	.seh_stackalloc 224
	leaq	128(%rsp), %rbp
	.seh_setframe %rbp, 128
	.seh_endprologue
	movq	$-2, 88(%rbp)
	movq	%r9, %r10
	movq	%r8, -88(%rbp)
	movq	%rdx, %rax
	movq	-88(%rbp), %rdx
	movq	%rax, -80(%rbp)
	movq	%rcx, %rax
	movq	-80(%rbp), %rcx
	movabsq	$9223372036854775807, %r8
.Ltmp633:
	.cv_inline_site_id 274 within 273 inlined_at 11 2675 0
	.cv_inline_site_id 275 within 274 inlined_at 11 2610 0
	.cv_inline_site_id 276 within 275 inlined_at 6 2536 0
	.cv_inline_site_id 277 within 276 inlined_at 9 99 0
	.cv_loc	277 6 2551 0
	movq	%r8, -56(%rbp)
	movq	%rax, -16(%rbp)
	movq	%rcx, -8(%rbp)
	movq	%rdx, (%rbp)
.Ltmp634:
	.cv_loc	275 11 1240 0
	movq	%rax, 8(%rbp)
.Ltmp635:
	.cv_inline_site_id 278 within 275 inlined_at 11 1240 0
	.cv_loc	278 12 223 0
	movq	(%rax), %r8
	movq	%r8, 16(%rbp)
.Ltmp636:
	.cv_inline_site_id 279 within 278 inlined_at 12 223 0
	.cv_loc	279 13 107 0
	movq	%r8, 24(%rbp)
.Ltmp637:
	.cv_loc	275 11 1240 0
	movq	%r8, 32(%rbp)
.Ltmp638:
	.cv_loc	274 11 2610 0
	movq	16(%rax), %rax
	movq	%rax, 40(%rbp)
.Ltmp639:
	.cv_inline_site_id 280 within 275 inlined_at 9 101 0
	.cv_inline_site_id 281 within 280 inlined_at 3 742 0
	.cv_loc	281 2 59 0
	movq	%r8, 48(%rbp)
.Ltmp640:
	.cv_loc	281 4 119 0
	movq	%r8, -32(%rbp)
	movq	%rax, -24(%rbp)
	movq	-32(%rbp), %r8
	movq	-24(%rbp), %rax
	movq	%r8, -48(%rbp)
	movq	%rax, -40(%rbp)
	movq	-48(%rbp), %r8
	movq	-40(%rbp), %r9
.Ltmp641:
	.cv_loc	275 9 101 0
	movq	%r8, 56(%rbp)
	movq	%r9, 64(%rbp)
.Ltmp642:
	.cv_loc	273 11 2675 0
	movq	%rcx, 72(%rbp)
	movq	%rdx, 80(%rbp)
	.cv_loc	274 1 18 0
.Ltmp631:
.Ltmp643:
	movq	%rsp, %rax
	movq	%r10, 32(%rax)
	callq	_ZN106_$LT$core..ops..range..Range$LT$usize$GT$$u20$as$u20$core..slice..index..SliceIndex$LT$$u5b$T$u5d$$GT$$GT$5index17h7bcfdb7ad42d42e0E
.Ltmp632:
	movq	%rdx, -72(%rbp)
	movq	%rax, -64(%rbp)
	jmp	.LBB70_2
.Ltmp644:
.LBB70_2:
	.cv_loc	273 11 2676 0
	movq	-72(%rbp), %rdx
	movq	-64(%rbp), %rax
	addq	$224, %rsp
	popq	%rbp
	retq
	.seh_handlerdata
	.long	($cppxdata$_ZN81_$LT$alloc..vec..Vec$LT$T$C$A$GT$$u20$as$u20$core..ops..index..Index$LT$I$GT$$GT$5index17hdcfb48bd7539e753E)@IMGREL
	.section	.text,"xr",one_only,_ZN81_$LT$alloc..vec..Vec$LT$T$C$A$GT$$u20$as$u20$core..ops..index..Index$LT$I$GT$$GT$5index17hdcfb48bd7539e753E
	.seh_endproc
	.def	"?dtor$1@?0?_ZN81_$LT$alloc..vec..Vec$LT$T$C$A$GT$$u20$as$u20$core..ops..index..Index$LT$I$GT$$GT$5index17hdcfb48bd7539e753E@4HA";
	.scl	3;
	.type	32;
	.endef
	.p2align	4, 0x90
"?dtor$1@?0?_ZN81_$LT$alloc..vec..Vec$LT$T$C$A$GT$$u20$as$u20$core..ops..index..Index$LT$I$GT$$GT$5index17hdcfb48bd7539e753E@4HA":
.seh_proc "?dtor$1@?0?_ZN81_$LT$alloc..vec..Vec$LT$T$C$A$GT$$u20$as$u20$core..ops..index..Index$LT$I$GT$$GT$5index17hdcfb48bd7539e753E@4HA"
.LBB70_1:
	movq	%rdx, 16(%rsp)
	pushq	%rbp
	.seh_pushreg %rbp
	subq	$48, %rsp
	.seh_stackalloc 48
	leaq	128(%rdx), %rbp
	.seh_endprologue
	.cv_loc	273 11 2674 0
	addq	$48, %rsp
	popq	%rbp
	retq
.Ltmp645:
.Lfunc_end70:
	.seh_handlerdata
	.section	.text,"xr",one_only,_ZN81_$LT$alloc..vec..Vec$LT$T$C$A$GT$$u20$as$u20$core..ops..index..Index$LT$I$GT$$GT$5index17hdcfb48bd7539e753E
	.seh_endproc
	.section	.xdata,"dr",associative,_ZN81_$LT$alloc..vec..Vec$LT$T$C$A$GT$$u20$as$u20$core..ops..index..Index$LT$I$GT$$GT$5index17hdcfb48bd7539e753E
	.p2align	2, 0x0
$cppxdata$_ZN81_$LT$alloc..vec..Vec$LT$T$C$A$GT$$u20$as$u20$core..ops..index..Index$LT$I$GT$$GT$5index17hdcfb48bd7539e753E:
	.long	429065506
	.long	1
	.long	($stateUnwindMap$_ZN81_$LT$alloc..vec..Vec$LT$T$C$A$GT$$u20$as$u20$core..ops..index..Index$LT$I$GT$$GT$5index17hdcfb48bd7539e753E)@IMGREL
	.long	0
	.long	0
	.long	3
	.long	($ip2state$_ZN81_$LT$alloc..vec..Vec$LT$T$C$A$GT$$u20$as$u20$core..ops..index..Index$LT$I$GT$$GT$5index17hdcfb48bd7539e753E)@IMGREL
	.long	216
	.long	0
	.long	1
$stateUnwindMap$_ZN81_$LT$alloc..vec..Vec$LT$T$C$A$GT$$u20$as$u20$core..ops..index..Index$LT$I$GT$$GT$5index17hdcfb48bd7539e753E:
	.long	-1
	.long	"?dtor$1@?0?_ZN81_$LT$alloc..vec..Vec$LT$T$C$A$GT$$u20$as$u20$core..ops..index..Index$LT$I$GT$$GT$5index17hdcfb48bd7539e753E@4HA"@IMGREL
$ip2state$_ZN81_$LT$alloc..vec..Vec$LT$T$C$A$GT$$u20$as$u20$core..ops..index..Index$LT$I$GT$$GT$5index17hdcfb48bd7539e753E:
	.long	.Lfunc_begin70@IMGREL
	.long	-1
	.long	.Ltmp631@IMGREL+1
	.long	0
	.long	.Ltmp632@IMGREL+1
	.long	-1
	.section	.text,"xr",one_only,_ZN81_$LT$alloc..vec..Vec$LT$T$C$A$GT$$u20$as$u20$core..ops..index..Index$LT$I$GT$$GT$5index17hdcfb48bd7539e753E

	.def	_ZN12reach_server6packet6Packet3new17h17af4caf771709bcE;
	.scl	3;
	.type	32;
	.endef
	.section	.text,"xr",one_only,_ZN12reach_server6packet6Packet3new17h17af4caf771709bcE
	.p2align	4, 0x90
_ZN12reach_server6packet6Packet3new17h17af4caf771709bcE:
.Lfunc_begin71:
	.cv_func_id 282
	.cv_file	44 "D:\\Reach\\Server\\reach_server\\src\\packet.rs" "FC8571BB92E8962A8896210132191CFB394DF62B" 2
	.cv_loc	282 44 10 0
.seh_proc _ZN12reach_server6packet6Packet3new17h17af4caf771709bcE
	subq	$72, %rsp
	.seh_stackalloc 72
	.seh_endprologue
	movq	%rcx, 32(%rsp)
	movq	%rcx, 40(%rsp)
.Ltmp646:
	.cv_loc	282 44 12 0
	leaq	48(%rsp), %rcx
	movl	$1024, %edx
	callq	_ZN5alloc3vec12Vec$LT$T$GT$13with_capacity17h9f1256617f73ffb9E
	movq	32(%rsp), %rcx
	movq	40(%rsp), %rax
	.cv_loc	282 44 11 0
	movq	48(%rsp), %rdx
	movq	%rdx, (%rcx)
	movq	56(%rsp), %rdx
	movq	%rdx, 8(%rcx)
	movq	64(%rsp), %rdx
	movq	%rdx, 16(%rcx)
	movl	$0, 24(%rcx)
	.cv_loc	282 44 15 0
	addq	$72, %rsp
	retq
.Ltmp647:
.Lfunc_end71:
	.seh_endproc

	.def	_ZN12reach_server6packet6Packet11write_bytes17h912d9f6578fa8f15E;
	.scl	3;
	.type	32;
	.endef
	.section	.text,"xr",one_only,_ZN12reach_server6packet6Packet11write_bytes17h912d9f6578fa8f15E
	.p2align	4, 0x90
_ZN12reach_server6packet6Packet11write_bytes17h912d9f6578fa8f15E:
.Lfunc_begin72:
	.cv_func_id 283
	.cv_loc	283 44 18 0
.seh_proc _ZN12reach_server6packet6Packet11write_bytes17h912d9f6578fa8f15E
	subq	$120, %rsp
	.seh_stackalloc 120
	.seh_endprologue
	movq	%rcx, 64(%rsp)
	movq	%rdx, 88(%rsp)
	movq	%r8, 96(%rsp)
	movq	%rcx, 112(%rsp)
.Ltmp648:
	.cv_loc	283 44 19 0
	movq	96(%rsp), %rax
	movq	%rax, 72(%rsp)
	callq	_ZN5alloc3vec16Vec$LT$T$C$A$GT$3len17h29ff393bccd3698eE
	movq	%rax, %rcx
	movl	$1024, %eax
	subq	%rcx, %rax
	movq	%rax, 80(%rsp)
	movl	$1024, %eax
	cmpq	%rcx, %rax
	setb	%al
	testb	$1, %al
	jne	.LBB72_2
	movq	72(%rsp), %rax
	movq	80(%rsp), %rcx
	cmpq	%rcx, %rax
	jbe	.LBB72_4
	jmp	.LBB72_3
.LBB72_2:
	leaq	str.2(%rip), %rcx
	leaq	__unnamed_10(%rip), %r8
	movl	$33, %edx
	callq	_ZN4core9panicking5panic17hd8fd9a7d9b3c9589E
	ud2
.LBB72_3:
	.cv_loc	283 44 22 0
	movq	64(%rsp), %rcx
	movq	88(%rsp), %rax
	movq	%rax, 40(%rsp)
	movq	96(%rsp), %rax
	movq	%rax, 48(%rsp)
	callq	_ZN5alloc3vec16Vec$LT$T$C$A$GT$3len17h29ff393bccd3698eE
	movq	%rax, %rcx
	movl	$1024, %eax
	subq	%rcx, %rax
	movq	%rax, 56(%rsp)
	movl	$1024, %eax
	cmpq	%rcx, %rax
	setb	%al
	testb	$1, %al
	jne	.LBB72_6
	jmp	.LBB72_5
.LBB72_4:
	.cv_loc	283 44 20 0
	movq	64(%rsp), %rcx
	movq	88(%rsp), %rdx
	movq	96(%rsp), %r8
	callq	_ZN5alloc3vec16Vec$LT$T$C$A$GT$17extend_from_slice17ha52634c16467510aE
	jmp	.LBB72_7
.LBB72_5:
	.cv_loc	283 44 22 0
	movq	48(%rsp), %rdx
	movq	40(%rsp), %rcx
	movq	56(%rsp), %rax
	movq	%rax, 104(%rsp)
	movq	104(%rsp), %r8
	leaq	__unnamed_11(%rip), %r9
	callq	_ZN4core5slice5index74_$LT$impl$u20$core..ops..index..Index$LT$I$GT$$u20$for$u20$$u5b$T$u5d$$GT$5index17h60b42e98e8f455faE
	movq	64(%rsp), %rcx
	movq	%rax, 32(%rsp)
	movq	%rdx, %r8
	movq	32(%rsp), %rdx
	callq	_ZN5alloc3vec16Vec$LT$T$C$A$GT$17extend_from_slice17ha52634c16467510aE
	jmp	.LBB72_7
.LBB72_6:
	leaq	str.2(%rip), %rcx
	leaq	__unnamed_12(%rip), %r8
	movl	$33, %edx
	callq	_ZN4core9panicking5panic17hd8fd9a7d9b3c9589E
	ud2
.LBB72_7:
	.cv_loc	283 44 24 0
	addq	$120, %rsp
	retq
.Ltmp649:
.Lfunc_end72:
	.seh_endproc

	.def	_ZN12reach_server6packet6Packet9write_i3217h8f0b66ca232aa791E;
	.scl	3;
	.type	32;
	.endef
	.section	.text,"xr",one_only,_ZN12reach_server6packet6Packet9write_i3217h8f0b66ca232aa791E
	.p2align	4, 0x90
_ZN12reach_server6packet6Packet9write_i3217h8f0b66ca232aa791E:
.Lfunc_begin73:
	.cv_func_id 284
	.cv_loc	284 44 26 0
.seh_proc _ZN12reach_server6packet6Packet9write_i3217h8f0b66ca232aa791E
	subq	$88, %rsp
	.seh_stackalloc 88
	.seh_endprologue
	movq	%rcx, 40(%rsp)
	movq	%rcx, 56(%rsp)
	movq	%rdx, 64(%rsp)
.Ltmp650:
	.cv_loc	284 44 27 0
	movl	(%rdx), %ecx
	callq	_ZN4core3num21_$LT$impl$u20$i32$GT$11to_le_bytes17hc6cdf2719840f696E
	movq	40(%rsp), %rcx
	movl	%eax, 76(%rsp)
	movl	76(%rsp), %eax
	movl	%eax, 52(%rsp)
	leaq	52(%rsp), %rax
	movq	%rax, 80(%rsp)
.Ltmp651:
	.cv_loc	284 44 28 0
	leaq	52(%rsp), %rdx
	movl	$4, %r8d
	callq	_ZN12reach_server6packet6Packet11write_bytes17h912d9f6578fa8f15E
.Ltmp652:
	.cv_loc	284 44 29 0
	nop
	addq	$88, %rsp
	retq
.Ltmp653:
.Lfunc_end73:
	.seh_endproc

	.def	_ZN12reach_server6packet6Packet12write_string17h842da340f4b5c0b1E;
	.scl	3;
	.type	32;
	.endef
	.section	.text,"xr",one_only,_ZN12reach_server6packet6Packet12write_string17h842da340f4b5c0b1E
	.p2align	4, 0x90
_ZN12reach_server6packet6Packet12write_string17h842da340f4b5c0b1E:
.Lfunc_begin74:
	.cv_func_id 285
	.cv_loc	285 44 31 0
.seh_proc _ZN12reach_server6packet6Packet12write_string17h842da340f4b5c0b1E
	subq	$104, %rsp
	.seh_stackalloc 104
	.seh_endprologue
	movq	%rdx, 32(%rsp)
	movq	%rcx, %rax
	movq	32(%rsp), %rcx
	movq	%rax, 40(%rsp)
	movq	%rax, 72(%rsp)
	movq	%rcx, 80(%rsp)
.Ltmp654:
	.cv_loc	285 44 32 0
	callq	_ZN5alloc6string6String8as_bytes17hedf32a197147c022E
	movq	40(%rsp), %rcx
	movq	%rax, 48(%rsp)
	movq	%rdx, 56(%rsp)
	movq	%rax, 88(%rsp)
	movq	%rdx, 96(%rsp)
.Ltmp655:
	.cv_loc	285 44 33 0
	movl	%edx, %eax
	movl	%eax, 68(%rsp)
	leaq	68(%rsp), %rdx
	callq	_ZN12reach_server6packet6Packet9write_i3217h8f0b66ca232aa791E
	movq	40(%rsp), %rcx
	movq	48(%rsp), %rdx
	movq	56(%rsp), %r8
	.cv_loc	285 44 34 0
	callq	_ZN12reach_server6packet6Packet11write_bytes17h912d9f6578fa8f15E
.Ltmp656:
	.cv_loc	285 44 35 0
	nop
	addq	$104, %rsp
	retq
.Ltmp657:
.Lfunc_end74:
	.seh_endproc

	.def	_ZN12reach_server6packet6Packet10write_bool17h1618c0463d4b7690E;
	.scl	3;
	.type	32;
	.endef
	.section	.text,"xr",one_only,_ZN12reach_server6packet6Packet10write_bool17h1618c0463d4b7690E
	.p2align	4, 0x90
_ZN12reach_server6packet6Packet10write_bool17h1618c0463d4b7690E:
.Lfunc_begin75:
	.cv_func_id 286
	.cv_loc	286 44 37 0
.seh_proc _ZN12reach_server6packet6Packet10write_bool17h1618c0463d4b7690E
	subq	$56, %rsp
	.seh_stackalloc 56
	.seh_endprologue
	movq	%rcx, 32(%rsp)
	movq	%rcx, 40(%rsp)
	movq	%rdx, 48(%rsp)
.Ltmp658:
	.cv_loc	286 44 38 0
	testb	$1, (%rdx)
	jne	.LBB75_2
	.cv_loc	286 44 41 0
	movq	32(%rsp), %rcx
	leaq	__unnamed_13(%rip), %rdx
	movl	$1, %r8d
	callq	_ZN12reach_server6packet6Packet11write_bytes17h912d9f6578fa8f15E
	jmp	.LBB75_3
.LBB75_2:
	.cv_loc	286 44 39 0
	movq	32(%rsp), %rcx
	leaq	__unnamed_14(%rip), %rdx
	movl	$1, %r8d
	callq	_ZN12reach_server6packet6Packet11write_bytes17h912d9f6578fa8f15E
.LBB75_3:
	.cv_loc	286 44 43 0
	nop
	addq	$56, %rsp
	retq
.Ltmp659:
.Lfunc_end75:
	.seh_endproc

	.def	_ZN12reach_server6packet6Packet9write_i6417h96341643823e5fbcE;
	.scl	3;
	.type	32;
	.endef
	.section	.text,"xr",one_only,_ZN12reach_server6packet6Packet9write_i6417h96341643823e5fbcE
	.p2align	4, 0x90
_ZN12reach_server6packet6Packet9write_i6417h96341643823e5fbcE:
.Lfunc_begin76:
	.cv_func_id 287
	.cv_loc	287 44 45 0
.seh_proc _ZN12reach_server6packet6Packet9write_i6417h96341643823e5fbcE
	subq	$88, %rsp
	.seh_stackalloc 88
	.seh_endprologue
	movq	%rcx, 40(%rsp)
	movq	%rcx, 56(%rsp)
	movq	%rdx, 64(%rsp)
.Ltmp660:
	.cv_loc	287 44 46 0
	movq	(%rdx), %rcx
	callq	_ZN4core3num21_$LT$impl$u20$i64$GT$11to_le_bytes17hed58e725281b60faE
	movq	40(%rsp), %rcx
	movq	%rax, 72(%rsp)
	movq	72(%rsp), %rax
	movq	%rax, 48(%rsp)
	leaq	48(%rsp), %rax
	movq	%rax, 80(%rsp)
.Ltmp661:
	.cv_loc	287 44 47 0
	leaq	48(%rsp), %rdx
	movl	$8, %r8d
	callq	_ZN12reach_server6packet6Packet11write_bytes17h912d9f6578fa8f15E
.Ltmp662:
	.cv_loc	287 44 48 0
	nop
	addq	$88, %rsp
	retq
.Ltmp663:
.Lfunc_end76:
	.seh_endproc

	.def	_ZN12reach_server6packet6Packet10read_bytes17h55ae86e8cedd117cE;
	.scl	3;
	.type	32;
	.endef
	.section	.text,"xr",one_only,_ZN12reach_server6packet6Packet10read_bytes17h55ae86e8cedd117cE
	.p2align	4, 0x90
_ZN12reach_server6packet6Packet10read_bytes17h55ae86e8cedd117cE:
.Lfunc_begin77:
	.cv_func_id 288
	.cv_loc	288 44 50 0
.seh_proc _ZN12reach_server6packet6Packet10read_bytes17h55ae86e8cedd117cE
	.seh_handler __CxxFrameHandler3, @unwind, @except
	pushq	%rbp
	.seh_pushreg %rbp
	subq	$160, %rsp
	.seh_stackalloc 160
	leaq	128(%rsp), %rbp
	.seh_setframe %rbp, 128
	.seh_endprologue
	movq	$-2, 24(%rbp)
	movq	%r8, -80(%rbp)
	movq	%rdx, -72(%rbp)
	movq	%rcx, -64(%rbp)
	movq	%rcx, -56(%rbp)
	movq	%rdx, 8(%rbp)
	movq	%r8, 16(%rbp)
.Ltmp666:
	.cv_loc	288 44 51 0
	movslq	24(%rdx), %rax
	movq	%rax, -48(%rbp)
	movl	24(%rdx), %eax
	addl	(%r8), %eax
	movl	%eax, -36(%rbp)
	seto	%al
	testb	$1, %al
	jne	.LBB77_2
	movq	-72(%rbp), %rcx
	movq	-48(%rbp), %rdx
	movl	-36(%rbp), %eax
	cltq
	movq	%rdx, -8(%rbp)
	movq	%rax, (%rbp)
	movq	-8(%rbp), %rdx
	movq	(%rbp), %r8
	leaq	__unnamed_15(%rip), %r9
	callq	_ZN81_$LT$alloc..vec..Vec$LT$T$C$A$GT$$u20$as$u20$core..ops..index..Index$LT$I$GT$$GT$5index17hdcfb48bd7539e753E
	movq	%rax, -88(%rbp)
	movq	%rdx, %r8
	movq	-88(%rbp), %rdx
	leaq	-32(%rbp), %rcx
	callq	_ZN5alloc5slice29_$LT$impl$u20$$u5b$T$u5d$$GT$6to_vec17h9a170942c802be6aE
	movq	-72(%rbp), %rcx
	movq	-80(%rbp), %rdx
.Ltmp667:
	.cv_loc	288 44 52 0
	addq	$24, %rcx
.Ltmp664:
	callq	_ZN66_$LT$i32$u20$as$u20$core..ops..arith..AddAssign$LT$$RF$i32$GT$$GT$10add_assign17hf0ce9f5603ab0f53E
.Ltmp665:
	jmp	.LBB77_4
.Ltmp668:
.LBB77_2:
	.cv_loc	288 44 51 0
	leaq	str.1(%rip), %rcx
	leaq	__unnamed_16(%rip), %r8
	movl	$28, %edx
	callq	_ZN4core9panicking5panic17hd8fd9a7d9b3c9589E
	ud2
.LBB77_4:
	.cv_loc	288 44 53 0
	movq	-56(%rbp), %rax
	movq	-64(%rbp), %rcx
.Ltmp669:
	movq	-32(%rbp), %rdx
	movq	%rdx, (%rcx)
	movq	-24(%rbp), %rdx
	movq	%rdx, 8(%rcx)
	movq	-16(%rbp), %rdx
	movq	%rdx, 16(%rcx)
.Ltmp670:
	.cv_loc	288 44 54 0
	addq	$160, %rsp
	popq	%rbp
	retq
	.seh_handlerdata
	.long	($cppxdata$_ZN12reach_server6packet6Packet10read_bytes17h55ae86e8cedd117cE)@IMGREL
	.section	.text,"xr",one_only,_ZN12reach_server6packet6Packet10read_bytes17h55ae86e8cedd117cE
	.seh_endproc
	.def	"?dtor$3@?0?_ZN12reach_server6packet6Packet10read_bytes17h55ae86e8cedd117cE@4HA";
	.scl	3;
	.type	32;
	.endef
	.p2align	4, 0x90
"?dtor$3@?0?_ZN12reach_server6packet6Packet10read_bytes17h55ae86e8cedd117cE@4HA":
.seh_proc "?dtor$3@?0?_ZN12reach_server6packet6Packet10read_bytes17h55ae86e8cedd117cE@4HA"
.LBB77_3:
	movq	%rdx, 16(%rsp)
	pushq	%rbp
	.seh_pushreg %rbp
	subq	$32, %rsp
	.seh_stackalloc 32
	leaq	128(%rdx), %rbp
	.seh_endprologue
	leaq	-32(%rbp), %rcx
	callq	_ZN4core3ptr46drop_in_place$LT$alloc..vec..Vec$LT$u8$GT$$GT$17h34e35bca2e3e41daE
	.cv_loc	288 44 50 0
	nop
	addq	$32, %rsp
	popq	%rbp
	retq
.Ltmp671:
.Lfunc_end77:
	.seh_handlerdata
	.section	.text,"xr",one_only,_ZN12reach_server6packet6Packet10read_bytes17h55ae86e8cedd117cE
	.seh_endproc
	.section	.xdata,"dr",associative,_ZN12reach_server6packet6Packet10read_bytes17h55ae86e8cedd117cE
	.p2align	2, 0x0
$cppxdata$_ZN12reach_server6packet6Packet10read_bytes17h55ae86e8cedd117cE:
	.long	429065506
	.long	1
	.long	($stateUnwindMap$_ZN12reach_server6packet6Packet10read_bytes17h55ae86e8cedd117cE)@IMGREL
	.long	0
	.long	0
	.long	3
	.long	($ip2state$_ZN12reach_server6packet6Packet10read_bytes17h55ae86e8cedd117cE)@IMGREL
	.long	152
	.long	0
	.long	1
$stateUnwindMap$_ZN12reach_server6packet6Packet10read_bytes17h55ae86e8cedd117cE:
	.long	-1
	.long	"?dtor$3@?0?_ZN12reach_server6packet6Packet10read_bytes17h55ae86e8cedd117cE@4HA"@IMGREL
$ip2state$_ZN12reach_server6packet6Packet10read_bytes17h55ae86e8cedd117cE:
	.long	.Lfunc_begin77@IMGREL
	.long	-1
	.long	.Ltmp664@IMGREL+1
	.long	0
	.long	.Ltmp665@IMGREL+1
	.long	-1
	.section	.text,"xr",one_only,_ZN12reach_server6packet6Packet10read_bytes17h55ae86e8cedd117cE

	.def	_ZN12reach_server6packet6Packet8read_i3217h54c5809db3fbf5bcE;
	.scl	3;
	.type	32;
	.endef
	.section	.text,"xr",one_only,_ZN12reach_server6packet6Packet8read_i3217h54c5809db3fbf5bcE
	.p2align	4, 0x90
_ZN12reach_server6packet6Packet8read_i3217h54c5809db3fbf5bcE:
.Lfunc_begin78:
	.cv_func_id 289
	.cv_loc	289 44 56 0
.seh_proc _ZN12reach_server6packet6Packet8read_i3217h54c5809db3fbf5bcE
	.seh_handler __CxxFrameHandler3, @unwind, @except
	pushq	%rbp
	.seh_pushreg %rbp
	subq	$160, %rsp
	.seh_stackalloc 160
	leaq	128(%rsp), %rbp
	.seh_setframe %rbp, 128
	.seh_endprologue
	movq	$-2, 24(%rbp)
	movq	%rcx, %rdx
	movq	%rdx, -16(%rbp)
.Ltmp680:
	.cv_loc	289 44 57 0
	leaq	__unnamed_17(%rip), %r8
	leaq	-56(%rbp), %rcx
	movq	%rcx, -80(%rbp)
	callq	_ZN12reach_server6packet6Packet10read_bytes17h55ae86e8cedd117cE
	movq	-80(%rbp), %rcx
.Ltmp672:
	callq	_ZN72_$LT$alloc..vec..Vec$LT$T$C$A$GT$$u20$as$u20$core..ops..deref..Deref$GT$5deref17hbeab459497feb974E
.Ltmp673:
	movq	%rdx, -72(%rbp)
	movq	%rax, -64(%rbp)
	jmp	.LBB78_2
.LBB78_2:
	movq	-72(%rbp), %rdx
	movq	-64(%rbp), %rcx
	movq	%rcx, -8(%rbp)
	movq	%rdx, (%rbp)
	.cv_loc	289 44 58 0
.Ltmp674:
.Ltmp681:
	callq	_ZN4core5array98_$LT$impl$u20$core..convert..TryFrom$LT$$RF$$u5b$T$u5d$$GT$$u20$for$u20$$u5b$T$u3b$$u20$N$u5d$$GT$8try_from17h62b9e8a1a3349c1fE
.Ltmp675:
	movq	%rax, -88(%rbp)
	jmp	.LBB78_3
.LBB78_3:
	movq	-88(%rbp), %rax
	movl	%eax, %ecx
	movl	%ecx, 8(%rbp)
	shrq	$32, %rax
	movb	%al, 12(%rbp)
	movb	12(%rbp), %al
	movb	%al, -20(%rbp)
	movl	8(%rbp), %eax
	movl	%eax, -24(%rbp)
	movl	-24(%rbp), %eax
	movl	%eax, %ecx
	movzbl	-20(%rbp), %eax
	shlq	$32, %rax
	orq	%rax, %rcx
.Ltmp676:
	leaq	__unnamed_18(%rip), %rdx
	leaq	__unnamed_19(%rip), %r9
	movl	$30, %r8d
	callq	_ZN4core6result19Result$LT$T$C$E$GT$6expect17h2f1a2f499414f0ddE
.Ltmp677:
	movl	%eax, -92(%rbp)
	jmp	.LBB78_4
.LBB78_4:
	movl	-92(%rbp), %eax
	movl	%eax, 20(%rbp)
	movl	20(%rbp), %eax
	movl	%eax, -28(%rbp)
	movl	-28(%rbp), %ecx
.Ltmp678:
	callq	_ZN4core3num21_$LT$impl$u20$i32$GT$13from_le_bytes17h05f14929675412f5E
.Ltmp679:
	movl	%eax, -96(%rbp)
	jmp	.LBB78_5
.Ltmp682:
.LBB78_5:
	.cv_loc	289 44 59 0
	leaq	-56(%rbp), %rcx
	callq	_ZN4core3ptr46drop_in_place$LT$alloc..vec..Vec$LT$u8$GT$$GT$17h34e35bca2e3e41daE
	movl	-96(%rbp), %eax
	addq	$160, %rsp
	popq	%rbp
	retq
	.seh_handlerdata
	.long	($cppxdata$_ZN12reach_server6packet6Packet8read_i3217h54c5809db3fbf5bcE)@IMGREL
	.section	.text,"xr",one_only,_ZN12reach_server6packet6Packet8read_i3217h54c5809db3fbf5bcE
	.seh_endproc
	.def	"?dtor$1@?0?_ZN12reach_server6packet6Packet8read_i3217h54c5809db3fbf5bcE@4HA";
	.scl	3;
	.type	32;
	.endef
	.p2align	4, 0x90
"?dtor$1@?0?_ZN12reach_server6packet6Packet8read_i3217h54c5809db3fbf5bcE@4HA":
.seh_proc "?dtor$1@?0?_ZN12reach_server6packet6Packet8read_i3217h54c5809db3fbf5bcE@4HA"
.LBB78_1:
	movq	%rdx, 16(%rsp)
	pushq	%rbp
	.seh_pushreg %rbp
	subq	$32, %rsp
	.seh_stackalloc 32
	leaq	128(%rdx), %rbp
	.seh_endprologue
	leaq	-56(%rbp), %rcx
	callq	_ZN4core3ptr46drop_in_place$LT$alloc..vec..Vec$LT$u8$GT$$GT$17h34e35bca2e3e41daE
	.cv_loc	289 44 56 0
	nop
	addq	$32, %rsp
	popq	%rbp
	retq
.Ltmp683:
.Lfunc_end78:
	.seh_handlerdata
	.section	.text,"xr",one_only,_ZN12reach_server6packet6Packet8read_i3217h54c5809db3fbf5bcE
	.seh_endproc
	.section	.xdata,"dr",associative,_ZN12reach_server6packet6Packet8read_i3217h54c5809db3fbf5bcE
	.p2align	2, 0x0
$cppxdata$_ZN12reach_server6packet6Packet8read_i3217h54c5809db3fbf5bcE:
	.long	429065506
	.long	1
	.long	($stateUnwindMap$_ZN12reach_server6packet6Packet8read_i3217h54c5809db3fbf5bcE)@IMGREL
	.long	0
	.long	0
	.long	3
	.long	($ip2state$_ZN12reach_server6packet6Packet8read_i3217h54c5809db3fbf5bcE)@IMGREL
	.long	152
	.long	0
	.long	1
$stateUnwindMap$_ZN12reach_server6packet6Packet8read_i3217h54c5809db3fbf5bcE:
	.long	-1
	.long	"?dtor$1@?0?_ZN12reach_server6packet6Packet8read_i3217h54c5809db3fbf5bcE@4HA"@IMGREL
$ip2state$_ZN12reach_server6packet6Packet8read_i3217h54c5809db3fbf5bcE:
	.long	.Lfunc_begin78@IMGREL
	.long	-1
	.long	.Ltmp672@IMGREL+1
	.long	0
	.long	.Ltmp679@IMGREL+1
	.long	-1
	.section	.text,"xr",one_only,_ZN12reach_server6packet6Packet8read_i3217h54c5809db3fbf5bcE

	.def	_ZN12reach_server6packet6Packet11read_string17he2a082ea4e515ca5E;
	.scl	3;
	.type	32;
	.endef
	.section	.text,"xr",one_only,_ZN12reach_server6packet6Packet11read_string17he2a082ea4e515ca5E
	.p2align	4, 0x90
_ZN12reach_server6packet6Packet11read_string17he2a082ea4e515ca5E:
.Lfunc_begin79:
	.cv_func_id 290
	.cv_loc	290 44 61 0
.seh_proc _ZN12reach_server6packet6Packet11read_string17he2a082ea4e515ca5E
	.seh_handler __CxxFrameHandler3, @unwind, @except
	pushq	%rbp
	.seh_pushreg %rbp
	subq	$224, %rsp
	.seh_stackalloc 224
	leaq	128(%rsp), %rbp
	.seh_setframe %rbp, 128
	.seh_endprologue
	movq	$-2, 88(%rbp)
	movq	%rdx, -72(%rbp)
	movq	%rcx, %rax
	movq	-72(%rbp), %rcx
	movq	%rax, -88(%rbp)
	movq	%rax, -80(%rbp)
	movq	%rcx, 80(%rbp)
.Ltmp686:
	.cv_loc	290 44 62 0
	callq	_ZN12reach_server6packet6Packet8read_i3217h54c5809db3fbf5bcE
	movq	-72(%rbp), %rdx
	movl	%eax, -60(%rbp)
.Ltmp687:
	.cv_loc	290 44 63 0
	leaq	-16(%rbp), %rcx
	leaq	-60(%rbp), %r8
	callq	_ZN12reach_server6packet6Packet10read_bytes17h55ae86e8cedd117cE
	leaq	-56(%rbp), %rcx
	leaq	-16(%rbp), %rdx
	callq	_ZN5alloc6string6String9from_utf817h43a39be481b38bf6E
	cmpb	$2, -24(%rbp)
	sete	%al
	testb	$1, %al
	jne	.LBB79_1
	jmp	.LBB79_2
.LBB79_1:
	.cv_loc	290 44 64 0
	movq	-88(%rbp), %rax
	movq	-56(%rbp), %rcx
	movq	%rcx, 8(%rbp)
	movq	-48(%rbp), %rcx
	movq	%rcx, 16(%rbp)
	movq	-40(%rbp), %rcx
	movq	%rcx, 24(%rbp)
.Ltmp688:
	.cv_loc	290 44 65 0
	movq	8(%rbp), %rcx
	movq	%rcx, (%rax)
	movq	16(%rbp), %rcx
	movq	%rcx, 8(%rax)
	movq	24(%rbp), %rcx
	movq	%rcx, 16(%rax)
.Ltmp689:
	.cv_loc	290 36 1 0
	jmp	.LBB79_3
.LBB79_2:
	.cv_loc	290 44 67 0
	movq	-88(%rbp), %rcx
	movq	-24(%rbp), %rax
	movq	%rax, 64(%rbp)
	movups	-56(%rbp), %xmm0
	movups	-40(%rbp), %xmm1
	movaps	%xmm1, 48(%rbp)
	movaps	%xmm0, 32(%rbp)
	.cv_loc	290 44 68 0
.Ltmp684:
.Ltmp690:
	leaq	__unnamed_20(%rip), %rdx
	movl	$5, %r8d
	callq	_ZN76_$LT$alloc..string..String$u20$as$u20$core..convert..From$LT$$RF$str$GT$$GT$4from17h9a57d6caf2b4e621E
.Ltmp685:
	jmp	.LBB79_5
.Ltmp691:
.LBB79_3:
	.cv_loc	290 44 71 0
	movq	-80(%rbp), %rax
	addq	$224, %rsp
	popq	%rbp
	retq
.LBB79_5:
.Ltmp692:
	.cv_loc	290 44 69 0
	leaq	32(%rbp), %rcx
	callq	_ZN4core3ptr49drop_in_place$LT$alloc..string..FromUtf8Error$GT$17h35bfcf49a3873531E
	jmp	.LBB79_3
	.seh_handlerdata
	.long	($cppxdata$_ZN12reach_server6packet6Packet11read_string17he2a082ea4e515ca5E)@IMGREL
	.section	.text,"xr",one_only,_ZN12reach_server6packet6Packet11read_string17he2a082ea4e515ca5E
	.seh_endproc
	.def	"?dtor$4@?0?_ZN12reach_server6packet6Packet11read_string17he2a082ea4e515ca5E@4HA";
	.scl	3;
	.type	32;
	.endef
	.p2align	4, 0x90
"?dtor$4@?0?_ZN12reach_server6packet6Packet11read_string17he2a082ea4e515ca5E@4HA":
.seh_proc "?dtor$4@?0?_ZN12reach_server6packet6Packet11read_string17he2a082ea4e515ca5E@4HA"
.LBB79_4:
	movq	%rdx, 16(%rsp)
	pushq	%rbp
	.seh_pushreg %rbp
	subq	$32, %rsp
	.seh_stackalloc 32
	leaq	128(%rdx), %rbp
	.seh_endprologue
	leaq	32(%rbp), %rcx
	callq	_ZN4core3ptr49drop_in_place$LT$alloc..string..FromUtf8Error$GT$17h35bfcf49a3873531E
.Ltmp693:
	.cv_loc	290 44 61 0
	nop
	addq	$32, %rsp
	popq	%rbp
	retq
.Ltmp694:
.Lfunc_end79:
	.seh_handlerdata
	.section	.text,"xr",one_only,_ZN12reach_server6packet6Packet11read_string17he2a082ea4e515ca5E
	.seh_endproc
	.section	.xdata,"dr",associative,_ZN12reach_server6packet6Packet11read_string17he2a082ea4e515ca5E
	.p2align	2, 0x0
$cppxdata$_ZN12reach_server6packet6Packet11read_string17he2a082ea4e515ca5E:
	.long	429065506
	.long	1
	.long	($stateUnwindMap$_ZN12reach_server6packet6Packet11read_string17he2a082ea4e515ca5E)@IMGREL
	.long	0
	.long	0
	.long	3
	.long	($ip2state$_ZN12reach_server6packet6Packet11read_string17he2a082ea4e515ca5E)@IMGREL
	.long	216
	.long	0
	.long	1
$stateUnwindMap$_ZN12reach_server6packet6Packet11read_string17he2a082ea4e515ca5E:
	.long	-1
	.long	"?dtor$4@?0?_ZN12reach_server6packet6Packet11read_string17he2a082ea4e515ca5E@4HA"@IMGREL
$ip2state$_ZN12reach_server6packet6Packet11read_string17he2a082ea4e515ca5E:
	.long	.Lfunc_begin79@IMGREL
	.long	-1
	.long	.Ltmp684@IMGREL+1
	.long	0
	.long	.Ltmp685@IMGREL+1
	.long	-1
	.section	.text,"xr",one_only,_ZN12reach_server6packet6Packet11read_string17he2a082ea4e515ca5E

	.def	_ZN12reach_server6packet6Packet9read_bool17h970dd44d863e5010E;
	.scl	3;
	.type	32;
	.endef
	.section	.text,"xr",one_only,_ZN12reach_server6packet6Packet9read_bool17h970dd44d863e5010E
	.p2align	4, 0x90
_ZN12reach_server6packet6Packet9read_bool17h970dd44d863e5010E:
.Lfunc_begin80:
	.cv_func_id 291
	.cv_loc	291 44 73 0
.seh_proc _ZN12reach_server6packet6Packet9read_bool17h970dd44d863e5010E
	.seh_handler __CxxFrameHandler3, @unwind, @except
	pushq	%rbp
	.seh_pushreg %rbp
	subq	$112, %rsp
	.seh_stackalloc 112
	leaq	112(%rsp), %rbp
	.seh_setframe %rbp, 112
	.seh_endprologue
	movq	$-2, -8(%rbp)
	movq	%rcx, %rdx
	movq	%rdx, -24(%rbp)
.Ltmp697:
	.cv_loc	291 44 74 0
	leaq	__unnamed_21(%rip), %r8
	leaq	-48(%rbp), %rcx
	movq	%rcx, -72(%rbp)
	callq	_ZN12reach_server6packet6Packet10read_bytes17h55ae86e8cedd117cE
	movq	-72(%rbp), %rcx
.Ltmp695:
	leaq	__unnamed_22(%rip), %r8
	xorl	%eax, %eax
	movl	%eax, %edx
	callq	_ZN81_$LT$alloc..vec..Vec$LT$T$C$A$GT$$u20$as$u20$core..ops..index..Index$LT$I$GT$$GT$5index17h389221030373d58bE
.Ltmp696:
	movq	%rax, -64(%rbp)
	jmp	.LBB80_2
.LBB80_2:
	movq	-64(%rbp), %rax
	movb	(%rax), %al
	movb	%al, -73(%rbp)
	testb	%al, %al
	je	.LBB80_4
	jmp	.LBB80_10
.LBB80_10:
	movb	-73(%rbp), %al
	subb	$1, %al
	je	.LBB80_5
	jmp	.LBB80_3
.LBB80_3:
	.cv_loc	291 44 77 0
	movb	$2, -49(%rbp)
	jmp	.LBB80_6
.LBB80_4:
	.cv_loc	291 44 75 0
	movb	$0, -49(%rbp)
	jmp	.LBB80_6
.LBB80_5:
	.cv_loc	291 44 76 0
	movb	$1, -49(%rbp)
.LBB80_6:
	.cv_loc	291 44 74 0
	movl	$1, %eax
	xorl	%ecx, %ecx
	cmpb	$2, -49(%rbp)
	cmoveq	%rcx, %rax
	cmpq	$1, %rax
	jne	.LBB80_8
	movb	-49(%rbp), %al
	movb	%al, %cl
	andb	$1, %cl
	movb	%cl, -9(%rbp)
	.cv_loc	291 44 79 0
	andb	$1, %al
	movb	%al, -50(%rbp)
.Ltmp698:
	.cv_loc	291 44 74 0
	jmp	.LBB80_9
.LBB80_8:
	.cv_loc	291 44 81 0
	movb	$0, -50(%rbp)
.LBB80_9:
	.cv_loc	291 44 83 0
	leaq	-48(%rbp), %rcx
	callq	_ZN4core3ptr46drop_in_place$LT$alloc..vec..Vec$LT$u8$GT$$GT$17h34e35bca2e3e41daE
	movb	-50(%rbp), %al
	andb	$1, %al
	movzbl	%al, %eax
	addq	$112, %rsp
	popq	%rbp
	retq
	.seh_handlerdata
	.long	($cppxdata$_ZN12reach_server6packet6Packet9read_bool17h970dd44d863e5010E)@IMGREL
	.section	.text,"xr",one_only,_ZN12reach_server6packet6Packet9read_bool17h970dd44d863e5010E
	.seh_endproc
	.def	"?dtor$1@?0?_ZN12reach_server6packet6Packet9read_bool17h970dd44d863e5010E@4HA";
	.scl	3;
	.type	32;
	.endef
	.p2align	4, 0x90
"?dtor$1@?0?_ZN12reach_server6packet6Packet9read_bool17h970dd44d863e5010E@4HA":
.seh_proc "?dtor$1@?0?_ZN12reach_server6packet6Packet9read_bool17h970dd44d863e5010E@4HA"
.LBB80_1:
	movq	%rdx, 16(%rsp)
	pushq	%rbp
	.seh_pushreg %rbp
	subq	$32, %rsp
	.seh_stackalloc 32
	leaq	112(%rdx), %rbp
	.seh_endprologue
	leaq	-48(%rbp), %rcx
	callq	_ZN4core3ptr46drop_in_place$LT$alloc..vec..Vec$LT$u8$GT$$GT$17h34e35bca2e3e41daE
	.cv_loc	291 44 73 0
	nop
	addq	$32, %rsp
	popq	%rbp
	retq
.Ltmp699:
.Lfunc_end80:
	.seh_handlerdata
	.section	.text,"xr",one_only,_ZN12reach_server6packet6Packet9read_bool17h970dd44d863e5010E
	.seh_endproc
	.section	.xdata,"dr",associative,_ZN12reach_server6packet6Packet9read_bool17h970dd44d863e5010E
	.p2align	2, 0x0
$cppxdata$_ZN12reach_server6packet6Packet9read_bool17h970dd44d863e5010E:
	.long	429065506
	.long	1
	.long	($stateUnwindMap$_ZN12reach_server6packet6Packet9read_bool17h970dd44d863e5010E)@IMGREL
	.long	0
	.long	0
	.long	3
	.long	($ip2state$_ZN12reach_server6packet6Packet9read_bool17h970dd44d863e5010E)@IMGREL
	.long	104
	.long	0
	.long	1
$stateUnwindMap$_ZN12reach_server6packet6Packet9read_bool17h970dd44d863e5010E:
	.long	-1
	.long	"?dtor$1@?0?_ZN12reach_server6packet6Packet9read_bool17h970dd44d863e5010E@4HA"@IMGREL
$ip2state$_ZN12reach_server6packet6Packet9read_bool17h970dd44d863e5010E:
	.long	.Lfunc_begin80@IMGREL
	.long	-1
	.long	.Ltmp695@IMGREL+1
	.long	0
	.long	.Ltmp696@IMGREL+1
	.long	-1
	.section	.text,"xr",one_only,_ZN12reach_server6packet6Packet9read_bool17h970dd44d863e5010E

	.def	_ZN12reach_server6packet6Packet8read_i6417hfe97838342e4e32dE;
	.scl	3;
	.type	32;
	.endef
	.section	.text,"xr",one_only,_ZN12reach_server6packet6Packet8read_i6417hfe97838342e4e32dE
	.p2align	4, 0x90
_ZN12reach_server6packet6Packet8read_i6417hfe97838342e4e32dE:
.Lfunc_begin81:
	.cv_func_id 292
	.cv_loc	292 44 85 0
.seh_proc _ZN12reach_server6packet6Packet8read_i6417hfe97838342e4e32dE
	.seh_handler __CxxFrameHandler3, @unwind, @except
	pushq	%rbp
	.seh_pushreg %rbp
	subq	$160, %rsp
	.seh_stackalloc 160
	leaq	128(%rsp), %rbp
	.seh_setframe %rbp, 128
	.seh_endprologue
	movq	$-2, 24(%rbp)
	movq	%rcx, %rdx
	movq	%rdx, -8(%rbp)
.Ltmp708:
	.cv_loc	292 44 86 0
	leaq	__unnamed_23(%rip), %r8
	leaq	-56(%rbp), %rcx
	movq	%rcx, -80(%rbp)
	callq	_ZN12reach_server6packet6Packet10read_bytes17h55ae86e8cedd117cE
	movq	-80(%rbp), %rcx
.Ltmp700:
	callq	_ZN72_$LT$alloc..vec..Vec$LT$T$C$A$GT$$u20$as$u20$core..ops..deref..Deref$GT$5deref17hbeab459497feb974E
.Ltmp701:
	movq	%rdx, -72(%rbp)
	movq	%rax, -64(%rbp)
	jmp	.LBB81_2
.LBB81_2:
	movq	-72(%rbp), %r8
	movq	-64(%rbp), %rdx
	movq	%rdx, (%rbp)
	movq	%r8, 8(%rbp)
	.cv_loc	292 44 87 0
.Ltmp702:
	leaq	-24(%rbp), %rcx
.Ltmp709:
	callq	_ZN4core5array98_$LT$impl$u20$core..convert..TryFrom$LT$$RF$$u5b$T$u5d$$GT$$u20$for$u20$$u5b$T$u3b$$u20$N$u5d$$GT$8try_from17ha16156b13d07fa79E
.Ltmp703:
	jmp	.LBB81_3
.LBB81_3:
.Ltmp704:
	leaq	__unnamed_24(%rip), %rdx
	leaq	__unnamed_25(%rip), %r9
	leaq	-24(%rbp), %rcx
	movl	$30, %r8d
	callq	_ZN4core6result19Result$LT$T$C$E$GT$6expect17h6fe686c637bfd8d5E
.Ltmp705:
	movq	%rax, -88(%rbp)
	jmp	.LBB81_4
.LBB81_4:
	movq	-88(%rbp), %rax
	movq	%rax, 16(%rbp)
	movq	16(%rbp), %rax
	movq	%rax, -32(%rbp)
	movq	-32(%rbp), %rcx
.Ltmp706:
	callq	_ZN4core3num21_$LT$impl$u20$i64$GT$13from_le_bytes17h8c9d2498811a4fcbE
.Ltmp707:
	movq	%rax, -96(%rbp)
	jmp	.LBB81_5
.Ltmp710:
.LBB81_5:
	.cv_loc	292 44 88 0
	leaq	-56(%rbp), %rcx
	callq	_ZN4core3ptr46drop_in_place$LT$alloc..vec..Vec$LT$u8$GT$$GT$17h34e35bca2e3e41daE
	movq	-96(%rbp), %rax
	addq	$160, %rsp
	popq	%rbp
	retq
	.seh_handlerdata
	.long	($cppxdata$_ZN12reach_server6packet6Packet8read_i6417hfe97838342e4e32dE)@IMGREL
	.section	.text,"xr",one_only,_ZN12reach_server6packet6Packet8read_i6417hfe97838342e4e32dE
	.seh_endproc
	.def	"?dtor$1@?0?_ZN12reach_server6packet6Packet8read_i6417hfe97838342e4e32dE@4HA";
	.scl	3;
	.type	32;
	.endef
	.p2align	4, 0x90
"?dtor$1@?0?_ZN12reach_server6packet6Packet8read_i6417hfe97838342e4e32dE@4HA":
.seh_proc "?dtor$1@?0?_ZN12reach_server6packet6Packet8read_i6417hfe97838342e4e32dE@4HA"
.LBB81_1:
	movq	%rdx, 16(%rsp)
	pushq	%rbp
	.seh_pushreg %rbp
	subq	$32, %rsp
	.seh_stackalloc 32
	leaq	128(%rdx), %rbp
	.seh_endprologue
	leaq	-56(%rbp), %rcx
	callq	_ZN4core3ptr46drop_in_place$LT$alloc..vec..Vec$LT$u8$GT$$GT$17h34e35bca2e3e41daE
	.cv_loc	292 44 85 0
	nop
	addq	$32, %rsp
	popq	%rbp
	retq
.Ltmp711:
.Lfunc_end81:
	.seh_handlerdata
	.section	.text,"xr",one_only,_ZN12reach_server6packet6Packet8read_i6417hfe97838342e4e32dE
	.seh_endproc
	.section	.xdata,"dr",associative,_ZN12reach_server6packet6Packet8read_i6417hfe97838342e4e32dE
	.p2align	2, 0x0
$cppxdata$_ZN12reach_server6packet6Packet8read_i6417hfe97838342e4e32dE:
	.long	429065506
	.long	1
	.long	($stateUnwindMap$_ZN12reach_server6packet6Packet8read_i6417hfe97838342e4e32dE)@IMGREL
	.long	0
	.long	0
	.long	3
	.long	($ip2state$_ZN12reach_server6packet6Packet8read_i6417hfe97838342e4e32dE)@IMGREL
	.long	152
	.long	0
	.long	1
$stateUnwindMap$_ZN12reach_server6packet6Packet8read_i6417hfe97838342e4e32dE:
	.long	-1
	.long	"?dtor$1@?0?_ZN12reach_server6packet6Packet8read_i6417hfe97838342e4e32dE@4HA"@IMGREL
$ip2state$_ZN12reach_server6packet6Packet8read_i6417hfe97838342e4e32dE:
	.long	.Lfunc_begin81@IMGREL
	.long	-1
	.long	.Ltmp700@IMGREL+1
	.long	0
	.long	.Ltmp707@IMGREL+1
	.long	-1
	.section	.text,"xr",one_only,_ZN12reach_server6packet6Packet8read_i6417hfe97838342e4e32dE

	.def	_ZN12reach_server6packet6Packet6length17h7b14c5878d1ef0f1E;
	.scl	3;
	.type	32;
	.endef
	.section	.text,"xr",one_only,_ZN12reach_server6packet6Packet6length17h7b14c5878d1ef0f1E
	.p2align	4, 0x90
_ZN12reach_server6packet6Packet6length17h7b14c5878d1ef0f1E:
.Lfunc_begin82:
	.cv_func_id 293
	.cv_loc	293 44 90 0
.seh_proc _ZN12reach_server6packet6Packet6length17h7b14c5878d1ef0f1E
	subq	$40, %rsp
	.seh_stackalloc 40
	.seh_endprologue
	movq	%rcx, 32(%rsp)
.Ltmp712:
	.cv_loc	293 44 91 0
	callq	_ZN5alloc3vec16Vec$LT$T$C$A$GT$3len17h29ff393bccd3698eE
	.cv_loc	293 44 92 0
	nop
	addq	$40, %rsp
	retq
.Ltmp713:
.Lfunc_end82:
	.seh_endproc

	.def	_ZN12reach_server4main17hce49b58fe55d678cE;
	.scl	3;
	.type	32;
	.endef
	.section	.text,"xr",one_only,_ZN12reach_server4main17hce49b58fe55d678cE
	.p2align	4, 0x90
_ZN12reach_server4main17hce49b58fe55d678cE:
.Lfunc_begin83:
	.cv_func_id 294
	.cv_loc	294 36 5 0
.seh_proc _ZN12reach_server4main17hce49b58fe55d678cE
	.seh_handler __CxxFrameHandler3, @unwind, @except
	pushq	%rbp
	.seh_pushreg %rbp
	subq	$768, %rsp
	.seh_stackalloc 768
	leaq	128(%rsp), %rbp
	.seh_setframe %rbp, 128
	.seh_endprologue
	movq	$-2, 632(%rbp)
	leaq	-56(%rbp), %rcx
.Ltmp762:
	.cv_loc	294 36 6 0
	callq	_ZN12reach_server6packet6Packet3new17h17af4caf771709bcE
	.cv_loc	294 36 7 0
.Ltmp714:
.Ltmp763:
	leaq	__unnamed_26(%rip), %rdx
	leaq	-24(%rbp), %rcx
	movl	$11, %r8d
	callq	_ZN76_$LT$alloc..string..String$u20$as$u20$core..convert..From$LT$$RF$str$GT$$GT$4from17h9a57d6caf2b4e621E
.Ltmp715:
	jmp	.LBB83_2
.LBB83_2:
.Ltmp716:
	leaq	-56(%rbp), %rcx
	leaq	-24(%rbp), %rdx
	callq	_ZN12reach_server6packet6Packet12write_string17h842da340f4b5c0b1E
.Ltmp717:
	jmp	.LBB83_4
.LBB83_4:
.Ltmp718:
	leaq	-24(%rbp), %rcx
	callq	_ZN4core3ptr42drop_in_place$LT$alloc..string..String$GT$17h8970eedf29492940E
.Ltmp719:
	jmp	.LBB83_5
.LBB83_5:
	.cv_loc	294 36 8 0
.Ltmp720:
	leaq	__unnamed_14(%rip), %rdx
	leaq	-56(%rbp), %rcx
	callq	_ZN12reach_server6packet6Packet10write_bool17h1618c0463d4b7690E
.Ltmp721:
	jmp	.LBB83_6
.LBB83_6:
	.cv_loc	294 36 9 0
.Ltmp722:
	leaq	__unnamed_27(%rip), %rdx
	leaq	-56(%rbp), %rcx
	callq	_ZN12reach_server6packet6Packet9write_i3217h8f0b66ca232aa791E
.Ltmp723:
	jmp	.LBB83_7
.LBB83_7:
	.cv_loc	294 36 10 0
.Ltmp724:
	leaq	__unnamed_28(%rip), %rdx
	leaq	-56(%rbp), %rcx
	callq	_ZN12reach_server6packet6Packet9write_i6417h96341643823e5fbcE
.Ltmp725:
	jmp	.LBB83_8
.LBB83_8:
	.cv_loc	294 36 12 0
.Ltmp726:
	leaq	64(%rbp), %rcx
	leaq	-56(%rbp), %rdx
	callq	_ZN12reach_server6packet6Packet11read_string17he2a082ea4e515ca5E
.Ltmp727:
	jmp	.LBB83_9
.LBB83_9:
	.cv_file	45 "/rustc/5680fa18feaa87f3ff04063800aec256c3d4b4be\\library\\core\\src\\fmt\\rt.rs" "E5C9A7985A89D38CE8720692F00752481D3ED390" 2
	.cv_inline_site_id 295 within 294 inlined_at 36 12 0
	.cv_loc	295 45 97 0
	leaq	64(%rbp), %rcx
	movq	%rcx, 616(%rbp)
.Ltmp764:
	leaq	_ZN60_$LT$alloc..string..String$u20$as$u20$core..fmt..Display$GT$3fmt17h9402919fde075591E(%rip), %rax
	movq	%rax, 624(%rbp)
.Ltmp765:
	.cv_inline_site_id 296 within 295 inlined_at 45 97 0
	.cv_loc	296 45 92 0
	movq	%rcx, 600(%rbp)
	movq	%rax, 608(%rbp)
.Ltmp766:
	.cv_loc	295 45 98 0
	movq	600(%rbp), %rcx
	movq	608(%rbp), %rax
.Ltmp767:
	.cv_loc	294 36 12 0
	movq	%rcx, 48(%rbp)
	movq	%rax, 56(%rbp)
.Ltmp728:
	movq	%rsp, %rax
	movq	$1, 32(%rax)
	leaq	__unnamed_29(%rip), %rdx
	movq	%rbp, %rcx
	movl	$2, %r8d
	leaq	48(%rbp), %r9
	callq	_ZN4core3fmt9Arguments6new_v117hda4e38d781299d07E
.Ltmp729:
	jmp	.LBB83_11
.LBB83_11:
.Ltmp730:
	movq	%rbp, %rcx
	callq	_ZN3std2io5stdio6_print17h0a875cebfdb10772E
.Ltmp731:
	jmp	.LBB83_12
.LBB83_12:
.Ltmp732:
	leaq	64(%rbp), %rcx
	callq	_ZN4core3ptr42drop_in_place$LT$alloc..string..String$GT$17h8970eedf29492940E
.Ltmp733:
	jmp	.LBB83_13
.LBB83_13:
	.cv_loc	294 36 13 0
.Ltmp734:
	leaq	-56(%rbp), %rcx
	callq	_ZN12reach_server6packet6Packet9read_bool17h970dd44d863e5010E
.Ltmp735:
	movb	%al, -57(%rbp)
	jmp	.LBB83_14
.LBB83_14:
	movb	-57(%rbp), %al
	andb	$1, %al
	movb	%al, 159(%rbp)
	leaq	159(%rbp), %rcx
	movq	%rcx, 584(%rbp)
.Ltmp768:
	.cv_inline_site_id 297 within 294 inlined_at 36 13 0
	.cv_loc	297 45 97 0
	leaq	_ZN43_$LT$bool$u20$as$u20$core..fmt..Display$GT$3fmt17h8b5363fe71703623E(%rip), %rax
	movq	%rax, 592(%rbp)
.Ltmp769:
	.cv_inline_site_id 298 within 297 inlined_at 45 97 0
	.cv_loc	298 45 92 0
	movq	%rcx, 568(%rbp)
	movq	%rax, 576(%rbp)
.Ltmp770:
	.cv_loc	297 45 98 0
	movq	568(%rbp), %rcx
	movq	576(%rbp), %rax
.Ltmp771:
	.cv_loc	294 36 13 0
	movq	%rcx, 136(%rbp)
	movq	%rax, 144(%rbp)
.Ltmp736:
	movq	%rsp, %rax
	movq	$1, 32(%rax)
	leaq	__unnamed_29(%rip), %rdx
	leaq	88(%rbp), %rcx
	movl	$2, %r8d
	leaq	136(%rbp), %r9
	callq	_ZN4core3fmt9Arguments6new_v117hda4e38d781299d07E
.Ltmp737:
	jmp	.LBB83_15
.LBB83_15:
.Ltmp738:
	leaq	88(%rbp), %rcx
	callq	_ZN3std2io5stdio6_print17h0a875cebfdb10772E
.Ltmp739:
	jmp	.LBB83_16
.LBB83_16:
	.cv_loc	294 36 14 0
.Ltmp740:
	leaq	-56(%rbp), %rcx
	callq	_ZN12reach_server6packet6Packet8read_i3217h54c5809db3fbf5bcE
.Ltmp741:
	movl	%eax, -64(%rbp)
	jmp	.LBB83_17
.LBB83_17:
	movl	-64(%rbp), %eax
	movl	%eax, 228(%rbp)
	leaq	228(%rbp), %rcx
	movq	%rcx, 552(%rbp)
.Ltmp772:
	.cv_inline_site_id 299 within 294 inlined_at 36 14 0
	.cv_loc	299 45 97 0
	leaq	_ZN4core3fmt3num3imp52_$LT$impl$u20$core..fmt..Display$u20$for$u20$i32$GT$3fmt17h93d0d857c4b6302aE(%rip), %rax
	movq	%rax, 560(%rbp)
.Ltmp773:
	.cv_inline_site_id 300 within 299 inlined_at 45 97 0
	.cv_loc	300 45 92 0
	movq	%rcx, 536(%rbp)
	movq	%rax, 544(%rbp)
.Ltmp774:
	.cv_loc	299 45 98 0
	movq	536(%rbp), %rcx
	movq	544(%rbp), %rax
.Ltmp775:
	.cv_loc	294 36 14 0
	movq	%rcx, 208(%rbp)
	movq	%rax, 216(%rbp)
.Ltmp742:
	movq	%rsp, %rax
	movq	$1, 32(%rax)
	leaq	__unnamed_29(%rip), %rdx
	leaq	160(%rbp), %rcx
	movl	$2, %r8d
	leaq	208(%rbp), %r9
	callq	_ZN4core3fmt9Arguments6new_v117hda4e38d781299d07E
.Ltmp743:
	jmp	.LBB83_18
.LBB83_18:
.Ltmp744:
	leaq	160(%rbp), %rcx
	callq	_ZN3std2io5stdio6_print17h0a875cebfdb10772E
.Ltmp745:
	jmp	.LBB83_19
.LBB83_19:
	.cv_loc	294 36 15 0
.Ltmp746:
	leaq	-56(%rbp), %rcx
	callq	_ZN12reach_server6packet6Packet8read_i6417hfe97838342e4e32dE
.Ltmp747:
	movq	%rax, -72(%rbp)
	jmp	.LBB83_20
.LBB83_20:
	movq	-72(%rbp), %rax
	movq	%rax, 296(%rbp)
	leaq	296(%rbp), %rcx
	movq	%rcx, 456(%rbp)
.Ltmp776:
	.cv_inline_site_id 301 within 294 inlined_at 36 15 0
	.cv_loc	301 45 97 0
	leaq	_ZN4core3fmt3num3imp52_$LT$impl$u20$core..fmt..Display$u20$for$u20$i64$GT$3fmt17ha146ec2dbf8256d3E(%rip), %rax
	movq	%rax, 464(%rbp)
.Ltmp777:
	.cv_inline_site_id 302 within 301 inlined_at 45 97 0
	.cv_loc	302 45 92 0
	movq	%rcx, 440(%rbp)
	movq	%rax, 448(%rbp)
.Ltmp778:
	.cv_loc	301 45 98 0
	movq	440(%rbp), %rcx
	movq	448(%rbp), %rax
.Ltmp779:
	.cv_loc	294 36 15 0
	movq	%rcx, 280(%rbp)
	movq	%rax, 288(%rbp)
.Ltmp748:
	movq	%rsp, %rax
	movq	$1, 32(%rax)
	leaq	__unnamed_29(%rip), %rdx
	leaq	232(%rbp), %rcx
	movl	$2, %r8d
	leaq	280(%rbp), %r9
	callq	_ZN4core3fmt9Arguments6new_v117hda4e38d781299d07E
.Ltmp749:
	jmp	.LBB83_21
.LBB83_21:
.Ltmp750:
	leaq	232(%rbp), %rcx
	callq	_ZN3std2io5stdio6_print17h0a875cebfdb10772E
.Ltmp751:
	jmp	.LBB83_22
.LBB83_22:
	.cv_loc	294 36 16 0
.Ltmp752:
	leaq	-56(%rbp), %rcx
	callq	_ZN12reach_server6packet6Packet6length17h7b14c5878d1ef0f1E
.Ltmp753:
	movl	%eax, -76(%rbp)
	jmp	.LBB83_23
.LBB83_23:
	movl	-76(%rbp), %eax
	movl	%eax, 372(%rbp)
	leaq	372(%rbp), %rcx
	movq	%rcx, 520(%rbp)
.Ltmp780:
	.cv_inline_site_id 303 within 294 inlined_at 36 16 0
	.cv_loc	303 45 97 0
	leaq	_ZN4core3fmt3num3imp52_$LT$impl$u20$core..fmt..Display$u20$for$u20$i32$GT$3fmt17h93d0d857c4b6302aE(%rip), %rax
	movq	%rax, 528(%rbp)
.Ltmp781:
	.cv_inline_site_id 304 within 303 inlined_at 45 97 0
	.cv_loc	304 45 92 0
	movq	%rcx, 504(%rbp)
	movq	%rax, 512(%rbp)
.Ltmp782:
	.cv_loc	303 45 98 0
	movq	504(%rbp), %rcx
	movq	512(%rbp), %rax
.Ltmp783:
	.cv_loc	294 36 16 0
	movq	%rcx, 352(%rbp)
	movq	%rax, 360(%rbp)
.Ltmp754:
	movq	%rsp, %rax
	movq	$1, 32(%rax)
	leaq	__unnamed_29(%rip), %rdx
	leaq	304(%rbp), %rcx
	movl	$2, %r8d
	leaq	352(%rbp), %r9
	callq	_ZN4core3fmt9Arguments6new_v117hda4e38d781299d07E
.Ltmp755:
	jmp	.LBB83_24
.LBB83_24:
.Ltmp756:
	leaq	304(%rbp), %rcx
	callq	_ZN3std2io5stdio6_print17h0a875cebfdb10772E
.Ltmp757:
	jmp	.LBB83_25
.LBB83_25:
	.cv_loc	294 36 17 0
	leaq	-32(%rbp), %rcx
	movq	%rcx, 488(%rbp)
.Ltmp784:
	.cv_inline_site_id 305 within 294 inlined_at 36 17 0
	.cv_loc	305 45 97 0
	leaq	_ZN4core3fmt3num3imp52_$LT$impl$u20$core..fmt..Display$u20$for$u20$i32$GT$3fmt17h93d0d857c4b6302aE(%rip), %rax
	movq	%rax, 496(%rbp)
.Ltmp785:
	.cv_inline_site_id 306 within 305 inlined_at 45 97 0
	.cv_loc	306 45 92 0
	movq	%rcx, 472(%rbp)
	movq	%rax, 480(%rbp)
.Ltmp786:
	.cv_loc	305 45 98 0
	movq	472(%rbp), %rcx
	movq	480(%rbp), %rax
.Ltmp787:
	.cv_loc	294 36 17 0
	movq	%rcx, 424(%rbp)
	movq	%rax, 432(%rbp)
.Ltmp758:
	movq	%rsp, %rax
	movq	$1, 32(%rax)
	leaq	__unnamed_29(%rip), %rdx
	leaq	376(%rbp), %rcx
	movl	$2, %r8d
	leaq	424(%rbp), %r9
	callq	_ZN4core3fmt9Arguments6new_v117hda4e38d781299d07E
.Ltmp759:
	jmp	.LBB83_26
.LBB83_26:
.Ltmp760:
	leaq	376(%rbp), %rcx
	callq	_ZN3std2io5stdio6_print17h0a875cebfdb10772E
.Ltmp761:
	jmp	.LBB83_27
.Ltmp788:
.LBB83_27:
	.cv_loc	294 36 18 0
	leaq	-56(%rbp), %rcx
	callq	_ZN4core3ptr49drop_in_place$LT$reach_server..packet..Packet$GT$17hda6930a0ae8445ffE
	nop
	addq	$768, %rsp
	popq	%rbp
	retq
	.seh_handlerdata
	.long	($cppxdata$_ZN12reach_server4main17hce49b58fe55d678cE)@IMGREL
	.section	.text,"xr",one_only,_ZN12reach_server4main17hce49b58fe55d678cE
	.seh_endproc
	.def	"?dtor$1@?0?_ZN12reach_server4main17hce49b58fe55d678cE@4HA";
	.scl	3;
	.type	32;
	.endef
	.p2align	4, 0x90
"?dtor$1@?0?_ZN12reach_server4main17hce49b58fe55d678cE@4HA":
.seh_proc "?dtor$1@?0?_ZN12reach_server4main17hce49b58fe55d678cE@4HA"
.LBB83_1:
	movq	%rdx, 16(%rsp)
	pushq	%rbp
	.seh_pushreg %rbp
	subq	$48, %rsp
	.seh_stackalloc 48
	leaq	128(%rdx), %rbp
	.seh_endprologue
	leaq	-56(%rbp), %rcx
	callq	_ZN4core3ptr49drop_in_place$LT$reach_server..packet..Packet$GT$17hda6930a0ae8445ffE
	.cv_loc	294 36 5 0
	nop
	addq	$48, %rsp
	popq	%rbp
	retq
	.seh_handlerdata
	.section	.text,"xr",one_only,_ZN12reach_server4main17hce49b58fe55d678cE
	.seh_endproc
	.def	"?dtor$3@?0?_ZN12reach_server4main17hce49b58fe55d678cE@4HA";
	.scl	3;
	.type	32;
	.endef
	.p2align	4, 0x90
"?dtor$3@?0?_ZN12reach_server4main17hce49b58fe55d678cE@4HA":
.seh_proc "?dtor$3@?0?_ZN12reach_server4main17hce49b58fe55d678cE@4HA"
.LBB83_3:
	movq	%rdx, 16(%rsp)
	pushq	%rbp
	.seh_pushreg %rbp
	subq	$48, %rsp
	.seh_stackalloc 48
	leaq	128(%rdx), %rbp
	.seh_endprologue
	leaq	-24(%rbp), %rcx
.Ltmp789:
	.cv_loc	294 36 7 0
	callq	_ZN4core3ptr42drop_in_place$LT$alloc..string..String$GT$17h8970eedf29492940E
	nop
	addq	$48, %rsp
	popq	%rbp
	retq
	.seh_handlerdata
	.section	.text,"xr",one_only,_ZN12reach_server4main17hce49b58fe55d678cE
	.seh_endproc
	.def	"?dtor$10@?0?_ZN12reach_server4main17hce49b58fe55d678cE@4HA";
	.scl	3;
	.type	32;
	.endef
	.p2align	4, 0x90
"?dtor$10@?0?_ZN12reach_server4main17hce49b58fe55d678cE@4HA":
.seh_proc "?dtor$10@?0?_ZN12reach_server4main17hce49b58fe55d678cE@4HA"
.LBB83_10:
	movq	%rdx, 16(%rsp)
	pushq	%rbp
	.seh_pushreg %rbp
	subq	$48, %rsp
	.seh_stackalloc 48
	leaq	128(%rdx), %rbp
	.seh_endprologue
	leaq	64(%rbp), %rcx
	.cv_loc	294 36 12 0
	callq	_ZN4core3ptr42drop_in_place$LT$alloc..string..String$GT$17h8970eedf29492940E
	nop
	addq	$48, %rsp
	popq	%rbp
	retq
.Ltmp790:
.Lfunc_end83:
	.seh_handlerdata
	.section	.text,"xr",one_only,_ZN12reach_server4main17hce49b58fe55d678cE
	.seh_endproc
	.section	.xdata,"dr",associative,_ZN12reach_server4main17hce49b58fe55d678cE
	.p2align	2, 0x0
$cppxdata$_ZN12reach_server4main17hce49b58fe55d678cE:
	.long	429065506
	.long	3
	.long	($stateUnwindMap$_ZN12reach_server4main17hce49b58fe55d678cE)@IMGREL
	.long	0
	.long	0
	.long	7
	.long	($ip2state$_ZN12reach_server4main17hce49b58fe55d678cE)@IMGREL
	.long	760
	.long	0
	.long	1
$stateUnwindMap$_ZN12reach_server4main17hce49b58fe55d678cE:
	.long	-1
	.long	"?dtor$1@?0?_ZN12reach_server4main17hce49b58fe55d678cE@4HA"@IMGREL
	.long	0
	.long	"?dtor$10@?0?_ZN12reach_server4main17hce49b58fe55d678cE@4HA"@IMGREL
	.long	0
	.long	"?dtor$3@?0?_ZN12reach_server4main17hce49b58fe55d678cE@4HA"@IMGREL
$ip2state$_ZN12reach_server4main17hce49b58fe55d678cE:
	.long	.Lfunc_begin83@IMGREL
	.long	-1
	.long	.Ltmp714@IMGREL+1
	.long	0
	.long	.Ltmp716@IMGREL+1
	.long	2
	.long	.Ltmp718@IMGREL+1
	.long	0
	.long	.Ltmp728@IMGREL+1
	.long	1
	.long	.Ltmp732@IMGREL+1
	.long	0
	.long	.Ltmp761@IMGREL+1
	.long	-1
	.section	.text,"xr",one_only,_ZN12reach_server4main17hce49b58fe55d678cE

	.def	main;
	.scl	2;
	.type	32;
	.endef
	.section	.text,"xr",one_only,main
	.globl	main
	.p2align	4, 0x90
main:
.Lfunc_begin84:
.seh_proc main
	subq	$40, %rsp
	.seh_stackalloc 40
	.seh_endprologue
	movq	%rdx, %r8
	movslq	%ecx, %rdx
	leaq	_ZN12reach_server4main17hce49b58fe55d678cE(%rip), %rcx
	xorl	%r9d, %r9d
	callq	_ZN3std2rt10lang_start17h186781de945c9aabE
	nop
	addq	$40, %rsp
	retq
.Lfunc_end84:
	.seh_endproc

	.section	.rdata,"dr",one_only,__unnamed_3
	.p2align	3, 0x0
__unnamed_3:
	.quad	_ZN4core3ptr85drop_in_place$LT$std..rt..lang_start$LT$$LP$$RP$$GT$..$u7b$$u7b$closure$u7d$$u7d$$GT$17h474c652f5b92a8caE
	.asciz	"\b\000\000\000\000\000\000\000\b\000\000\000\000\000\000"
	.quad	_ZN4core3ops8function6FnOnce40call_once$u7b$$u7b$vtable.shim$u7d$$u7d$17hff5a4aa31cd174dcE
	.quad	_ZN3std2rt10lang_start28_$u7b$$u7b$closure$u7d$$u7d$17h5e3718a8ed784203E
	.quad	_ZN3std2rt10lang_start28_$u7b$$u7b$closure$u7d$$u7d$17h5e3718a8ed784203E

	.section	.rdata,"dr",one_only,__unnamed_30
__unnamed_30:
	.ascii	"invalid args"

	.section	.rdata,"dr",one_only,__unnamed_4
	.p2align	3, 0x0
__unnamed_4:
	.quad	__unnamed_30
	.asciz	"\f\000\000\000\000\000\000"

	.section	.rdata,"dr",one_only,__unnamed_5
	.p2align	3, 0x0
__unnamed_5:

	.section	.rdata,"dr",one_only,__unnamed_31
__unnamed_31:
	.ascii	"/rustc/5680fa18feaa87f3ff04063800aec256c3d4b4be\\library\\core\\src\\fmt\\mod.rs"

	.section	.rdata,"dr",one_only,__unnamed_6
	.p2align	3, 0x0
__unnamed_6:
	.quad	__unnamed_31
	.asciz	"K\000\000\000\000\000\000\0005\001\000\000\r\000\000"

	.section	.rdata,"dr",one_only,__unnamed_32
__unnamed_32:
	.ascii	"/rustc/5680fa18feaa87f3ff04063800aec256c3d4b4be\\library\\core\\src\\alloc\\layout.rs"

	.section	.rdata,"dr",one_only,__unnamed_7
	.p2align	3, 0x0
__unnamed_7:
	.quad	__unnamed_32
	.asciz	"P\000\000\000\000\000\000\000\277\001\000\000)\000\000"

	.section	.rdata,"dr",one_only,str.0
	.p2align	4, 0x0
str.0:
	.ascii	"attempt to divide by zero"

	.section	.rdata,"dr",one_only,__unnamed_1
__unnamed_1:
	.ascii	"assertion failed: 0 < pointee_size && pointee_size <= isize::MAX as usize"

	.section	.rdata,"dr",one_only,__unnamed_33
__unnamed_33:
	.ascii	"/rustc/5680fa18feaa87f3ff04063800aec256c3d4b4be\\library\\core\\src\\ptr\\const_ptr.rs"

	.section	.rdata,"dr",one_only,__unnamed_2
	.p2align	3, 0x0
__unnamed_2:
	.quad	__unnamed_33
	.asciz	"Q\000\000\000\000\000\000\000\035\003\000\000\t\000\000"

	.section	.rdata,"dr",one_only,__unnamed_8
	.p2align	3, 0x0
__unnamed_8:
	.quad	_ZN4core3ptr51drop_in_place$LT$core..array..TryFromSliceError$GT$17hc1153dc051a166c7E
	.asciz	"\000\000\000\000\000\000\000\000\001\000\000\000\000\000\000"
	.quad	_ZN67_$LT$core..array..TryFromSliceError$u20$as$u20$core..fmt..Debug$GT$3fmt17h797a8f4de0cfa71cE

	.section	.rdata,"dr",one_only,__unnamed_34
__unnamed_34:
	.ascii	"/rustc/5680fa18feaa87f3ff04063800aec256c3d4b4be\\library\\core\\src\\ops\\arith.rs"

	.section	.rdata,"dr",one_only,__unnamed_9
	.p2align	3, 0x0
__unnamed_9:
	.quad	__unnamed_34
	.asciz	"M\000\000\000\000\000\000\000\370\002\000\000\001\000\000"

	.section	.rdata,"dr",one_only,str.1
	.p2align	4, 0x0
str.1:
	.ascii	"attempt to add with overflow"

	.section	.rdata,"dr",one_only,__unnamed_35
__unnamed_35:
	.ascii	"src\\packet.rs"

	.section	.rdata,"dr",one_only,__unnamed_10
	.p2align	3, 0x0
__unnamed_10:
	.quad	__unnamed_35
	.asciz	"\r\000\000\000\000\000\000\000\023\000\000\000\032\000\000"

	.section	.rdata,"dr",one_only,str.2
	.p2align	4, 0x0
str.2:
	.ascii	"attempt to subtract with overflow"

	.section	.rdata,"dr",one_only,__unnamed_12
	.p2align	3, 0x0
__unnamed_12:
	.quad	__unnamed_35
	.asciz	"\r\000\000\000\000\000\000\000\026\000\000\0000\000\000"

	.section	.rdata,"dr",one_only,__unnamed_11
	.p2align	3, 0x0
__unnamed_11:
	.quad	__unnamed_35
	.asciz	"\r\000\000\000\000\000\000\000\026\000\000\000)\000\000"

	.section	.rdata,"dr",one_only,__unnamed_13
__unnamed_13:
	.zero	1

	.section	.rdata,"dr",one_only,__unnamed_14
__unnamed_14:
	.byte	1

	.section	.rdata,"dr",one_only,__unnamed_16
	.p2align	3, 0x0
__unnamed_16:
	.quad	__unnamed_35
	.asciz	"\r\000\000\000\000\000\000\0003\000\000\000C\000\000"

	.section	.rdata,"dr",one_only,__unnamed_15
	.p2align	3, 0x0
__unnamed_15:
	.quad	__unnamed_35
	.asciz	"\r\000\000\000\000\000\000\0003\000\000\000#\000\000"

	.section	.rdata,"dr",one_only,__unnamed_17
	.p2align	2, 0x0
__unnamed_17:
	.asciz	"\004\000\000"

	.section	.rdata,"dr",one_only,__unnamed_18
__unnamed_18:
	.ascii	"cannot convert [u8] to [u8, 4]"

	.section	.rdata,"dr",one_only,__unnamed_19
	.p2align	3, 0x0
__unnamed_19:
	.quad	__unnamed_35
	.asciz	"\r\000\000\000\000\000\000\000:\000\000\000B\000\000"

	.section	.rdata,"dr",one_only,__unnamed_20
__unnamed_20:
	.ascii	"Error"

	.section	.rdata,"dr",one_only,__unnamed_21
	.p2align	2, 0x0
__unnamed_21:
	.asciz	"\001\000\000"

	.section	.rdata,"dr",one_only,__unnamed_22
	.p2align	3, 0x0
__unnamed_22:
	.quad	__unnamed_35
	.asciz	"\r\000\000\000\000\000\000\000J\000\000\000&\000\000"

	.section	.rdata,"dr",one_only,__unnamed_23
	.p2align	2, 0x0
__unnamed_23:
	.asciz	"\b\000\000"

	.section	.rdata,"dr",one_only,__unnamed_24
__unnamed_24:
	.ascii	"cannot convert [u8] to [u8, 8]"

	.section	.rdata,"dr",one_only,__unnamed_25
	.p2align	3, 0x0
__unnamed_25:
	.quad	__unnamed_35
	.asciz	"\r\000\000\000\000\000\000\000W\000\000\000B\000\000"

	.section	.rdata,"dr",one_only,__unnamed_26
__unnamed_26:
	.ascii	"aaaawdadaaa"

	.section	.rdata,"dr",one_only,__unnamed_27
	.p2align	2, 0x0
__unnamed_27:
	.asciz	"\005\000\000"

	.section	.rdata,"dr",one_only,__unnamed_28
	.p2align	3, 0x0
__unnamed_28:
	.asciz	"\n\000\000\000\000\000\000"

	.section	.rdata,"dr",one_only,__unnamed_36
__unnamed_36:
	.byte	10

	.section	.rdata,"dr",one_only,__unnamed_29
	.p2align	3, 0x0
__unnamed_29:
	.quad	__unnamed_5
	.zero	8
	.quad	__unnamed_36
	.asciz	"\001\000\000\000\000\000\000"
