	.text
	.def	@feat.00;
	.scl	3;
	.type	0;
	.endef
	.globl	@feat.00
.set @feat.00, 0
	.file	"reach_server.ff8b900f4cef6ab9-cgu.0"
	.def	_ZN3std10sys_common9backtrace28__rust_begin_short_backtrace17h4ac9774b815ef76cE;
	.scl	3;
	.type	32;
	.endef
	.section	.text,"xr",one_only,_ZN3std10sys_common9backtrace28__rust_begin_short_backtrace17h4ac9774b815ef76cE
	.p2align	4, 0x90
_ZN3std10sys_common9backtrace28__rust_begin_short_backtrace17h4ac9774b815ef76cE:
.seh_proc _ZN3std10sys_common9backtrace28__rust_begin_short_backtrace17h4ac9774b815ef76cE
	subq	$40, %rsp
	.seh_stackalloc 40
	.seh_endprologue
	callq	*%rcx
	#APP
	#NO_APP
	nop
	addq	$40, %rsp
	retq
	.seh_endproc

	.def	_ZN3std11collections4hash3map24HashMap$LT$K$C$V$C$S$GT$3get17h5c4fb210ba29e8a3E;
	.scl	3;
	.type	32;
	.endef
	.section	.text,"xr",one_only,_ZN3std11collections4hash3map24HashMap$LT$K$C$V$C$S$GT$3get17h5c4fb210ba29e8a3E
	.p2align	4, 0x90
_ZN3std11collections4hash3map24HashMap$LT$K$C$V$C$S$GT$3get17h5c4fb210ba29e8a3E:
.seh_proc _ZN3std11collections4hash3map24HashMap$LT$K$C$V$C$S$GT$3get17h5c4fb210ba29e8a3E
	pushq	%r14
	.seh_pushreg %r14
	pushq	%rsi
	.seh_pushreg %rsi
	pushq	%rdi
	.seh_pushreg %rdi
	pushq	%rbx
	.seh_pushreg %rbx
	.seh_endprologue
	cmpq	$0, 24(%rcx)
	je	.LBB1_1
	movq	32(%rcx), %r10
	movq	40(%rcx), %rsi
	movabsq	$8317987319222330741, %r9
	xorq	%r10, %r9
	movabsq	$7237128888997146477, %rax
	xorq	%rsi, %rax
	movabsq	$7816392313619706465, %r8
	xorq	%r10, %r8
	movabsq	$8387220255154660723, %r11
	addq	%rax, %r9
	rolq	$13, %rax
	xorq	%rdx, %r11
	xorq	%r9, %rax
	rolq	$32, %r9
	xorq	%rsi, %r11
	addq	%r11, %r8
	rolq	$16, %r11
	xorq	%r8, %r11
	addq	%r11, %r9
	rolq	$21, %r11
	xorq	%r9, %r11
	addq	%rax, %r8
	rolq	$17, %rax
	xorq	%r8, %rax
	rolq	$32, %r8
	xorq	%rdx, %r9
	movabsq	$576460752303423488, %rsi
	addq	%rax, %r9
	rolq	$13, %rax
	movq	%r11, %r10
	xorq	%r9, %rax
	rolq	$32, %r9
	xorq	%rsi, %r10
	addq	%r10, %r8
	shrdq	$48, %r11, %r10
	xorq	%r8, %r10
	addq	%r10, %r9
	rolq	$21, %r10
	addq	%rax, %r8
	rolq	$17, %rax
	xorq	%r9, %r10
	xorq	%r8, %rax
	rolq	$32, %r8
	xorq	%rsi, %r9
	addq	%rax, %r9
	rolq	$13, %rax
	xorq	%r9, %rax
	rolq	$32, %r9
	xorq	$255, %r8
	addq	%r10, %r8
	rolq	$16, %r10
	xorq	%r8, %r10
	addq	%r10, %r9
	rolq	$21, %r10
	addq	%rax, %r8
	rolq	$17, %rax
	xorq	%r8, %rax
	rolq	$32, %r8
	xorq	%r9, %r10
	addq	%rax, %r9
	rolq	$13, %rax
	xorq	%r9, %rax
	rolq	$32, %r9
	addq	%r10, %r8
	rolq	$16, %r10
	xorq	%r8, %r10
	addq	%r10, %r9
	rolq	$21, %r10
	addq	%rax, %r8
	rolq	$17, %rax
	xorq	%r8, %rax
	rolq	$32, %r8
	xorq	%r9, %r10
	addq	%rax, %r9
	rolq	$13, %rax
	addq	%r10, %r8
	rolq	$16, %r10
	xorq	%r9, %rax
	xorq	%r8, %r10
	rolq	$21, %r10
	addq	%rax, %r8
	rolq	$17, %rax
	xorq	%r10, %rax
	movq	%r8, %r9
	rolq	$32, %r9
	xorq	%r8, %r9
	xorq	%rax, %r9
	movq	(%rcx), %r8
	movq	8(%rcx), %rax
	movq	%r9, %rcx
	shrq	$57, %rcx
	movd	%ecx, %xmm0
	punpcklbw	%xmm0, %xmm0
	pshuflw	$0, %xmm0, %xmm0
	pshufd	$0, %xmm0, %xmm0
	leaq	-16(%r8), %rcx
	xorl	%r10d, %r10d
	pcmpeqd	%xmm1, %xmm1
.LBB1_3:
	andq	%rax, %r9
	movdqu	(%r8,%r9), %xmm2
	movdqa	%xmm0, %xmm3
	pcmpeqb	%xmm2, %xmm3
	pmovmskb	%xmm3, %esi
	.p2align	4, 0x90
.LBB1_4:
	movl	%esi, %r11d
	testw	%si, %si
	je	.LBB1_5
	leal	-1(%r11), %esi
	andl	%r11d, %esi
	rep		bsfl	%r11d, %edi
	addq	%r9, %rdi
	andq	%rax, %rdi
	movq	%rdi, %rbx
	shlq	$4, %rbx
	movq	%rcx, %r14
	subq	%rbx, %r14
	cmpq	%rdx, (%r14)
	jne	.LBB1_4
	jmp	.LBB1_8
	.p2align	4, 0x90
.LBB1_5:
	pcmpeqb	%xmm1, %xmm2
	pmovmskb	%xmm2, %esi
	testl	%esi, %esi
	jne	.LBB1_8
	addq	%r10, %r9
	addq	$16, %r9
	addq	$16, %r10
	jmp	.LBB1_3
.LBB1_8:
	shlq	$4, %rdi
	subq	%rdi, %r8
	xorl	%eax, %eax
	testw	%r11w, %r11w
	cmoveq	%rax, %r8
	addq	$-16, %r8
	testw	%r11w, %r11w
	cmoveq	%rax, %r8
	jmp	.LBB1_9
.LBB1_1:
	xorl	%r8d, %r8d
.LBB1_9:
	leaq	8(%r8), %rax
	testq	%r8, %r8
	cmoveq	%r8, %rax
	popq	%rbx
	popq	%rdi
	popq	%rsi
	popq	%r14
	retq
	.seh_endproc

	.def	_ZN3std2rt10lang_start17h3dca20599d96faabE;
	.scl	2;
	.type	32;
	.endef
	.section	.text,"xr",one_only,_ZN3std2rt10lang_start17h3dca20599d96faabE
	.globl	_ZN3std2rt10lang_start17h3dca20599d96faabE
	.p2align	4, 0x90
_ZN3std2rt10lang_start17h3dca20599d96faabE:
.seh_proc _ZN3std2rt10lang_start17h3dca20599d96faabE
	subq	$56, %rsp
	.seh_stackalloc 56
	.seh_endprologue
	movq	%r8, %rax
	movq	%rdx, %r8
	movq	%rcx, 48(%rsp)
	movb	%r9b, 32(%rsp)
	leaq	__unnamed_1(%rip), %rdx
	leaq	48(%rsp), %rcx
	movq	%rax, %r9
	callq	_ZN3std2rt19lang_start_internal17h0386057d0589e4c8E
	nop
	addq	$56, %rsp
	retq
	.seh_endproc

	.def	_ZN3std2rt10lang_start28_$u7b$$u7b$closure$u7d$$u7d$17h34265bed75d40865E;
	.scl	3;
	.type	32;
	.endef
	.section	.text,"xr",one_only,_ZN3std2rt10lang_start28_$u7b$$u7b$closure$u7d$$u7d$17h34265bed75d40865E
	.p2align	4, 0x90
_ZN3std2rt10lang_start28_$u7b$$u7b$closure$u7d$$u7d$17h34265bed75d40865E:
.Lfunc_begin0:
.seh_proc _ZN3std2rt10lang_start28_$u7b$$u7b$closure$u7d$$u7d$17h34265bed75d40865E
	.seh_handler __CxxFrameHandler3, @unwind, @except
	pushq	%rbp
	.seh_pushreg %rbp
	subq	$144, %rsp
	.seh_stackalloc 144
	leaq	128(%rsp), %rbp
	.seh_setframe %rbp, 128
	.seh_endprologue
	movq	$-2, 8(%rbp)
	movq	(%rcx), %rcx
	callq	_ZN3std10sys_common9backtrace28__rust_begin_short_backtrace17h4ac9774b815ef76cE
	testq	%rax, %rax
	je	.LBB3_1
	movq	%rax, -8(%rbp)
	movq	%rdx, (%rbp)
	leaq	-8(%rbp), %rax
	movq	%rax, -40(%rbp)
	leaq	_ZN67_$LT$alloc..boxed..Box$LT$T$C$A$GT$$u20$as$u20$core..fmt..Debug$GT$3fmt17h5fcd333b3f99f838E(%rip), %rax
	movq	%rax, -32(%rbp)
	leaq	__unnamed_2(%rip), %rax
	movq	%rax, -88(%rbp)
	movq	$2, -80(%rbp)
	movq	$0, -56(%rbp)
	leaq	-40(%rbp), %rax
	movq	%rax, -72(%rbp)
	movq	$1, -64(%rbp)
.Ltmp0:
	leaq	-88(%rbp), %rcx
	callq	_ZN3std2io5stdio23attempt_print_to_stderr17h2f0e04db2ab82dcaE
.Ltmp1:
	movq	-8(%rbp), %rcx
	movq	(%rbp), %rax
.Ltmp2:
	movq	%rcx, -16(%rbp)
	movq	%rax, -24(%rbp)
	callq	*(%rax)
.Ltmp3:
	movq	-24(%rbp), %rax
	movq	8(%rax), %rdx
	testq	%rdx, %rdx
	je	.LBB3_7
	movq	16(%rax), %r8
	movq	-16(%rbp), %rcx
	callq	__rust_dealloc
.LBB3_7:
	movl	$1, %eax
	addq	$144, %rsp
	popq	%rbp
	retq
.LBB3_1:
	xorl	%eax, %eax
	addq	$144, %rsp
	popq	%rbp
	retq
	.seh_handlerdata
	.long	($cppxdata$_ZN3std2rt10lang_start28_$u7b$$u7b$closure$u7d$$u7d$17h34265bed75d40865E)@IMGREL
	.section	.text,"xr",one_only,_ZN3std2rt10lang_start28_$u7b$$u7b$closure$u7d$$u7d$17h34265bed75d40865E
	.seh_endproc
	.def	"?dtor$2@?0?_ZN3std2rt10lang_start28_$u7b$$u7b$closure$u7d$$u7d$17h34265bed75d40865E@4HA";
	.scl	3;
	.type	32;
	.endef
	.p2align	4, 0x90
"?dtor$2@?0?_ZN3std2rt10lang_start28_$u7b$$u7b$closure$u7d$$u7d$17h34265bed75d40865E@4HA":
.seh_proc "?dtor$2@?0?_ZN3std2rt10lang_start28_$u7b$$u7b$closure$u7d$$u7d$17h34265bed75d40865E@4HA"
.LBB3_2:
	movq	%rdx, 16(%rsp)
	pushq	%rbp
	.seh_pushreg %rbp
	subq	$32, %rsp
	.seh_stackalloc 32
	leaq	128(%rdx), %rbp
	.seh_endprologue
	movq	-8(%rbp), %rcx
	movq	(%rbp), %rdx
	callq	_ZN4core3ptr72drop_in_place$LT$alloc..boxed..Box$LT$dyn$u20$core..error..Error$GT$$GT$17hc9c24300310c084aE
	nop
	addq	$32, %rsp
	popq	%rbp
	retq
	.seh_handlerdata
	.section	.text,"xr",one_only,_ZN3std2rt10lang_start28_$u7b$$u7b$closure$u7d$$u7d$17h34265bed75d40865E
	.seh_endproc
	.def	"?dtor$9@?0?_ZN3std2rt10lang_start28_$u7b$$u7b$closure$u7d$$u7d$17h34265bed75d40865E@4HA";
	.scl	3;
	.type	32;
	.endef
	.p2align	4, 0x90
"?dtor$9@?0?_ZN3std2rt10lang_start28_$u7b$$u7b$closure$u7d$$u7d$17h34265bed75d40865E@4HA":
.seh_proc "?dtor$9@?0?_ZN3std2rt10lang_start28_$u7b$$u7b$closure$u7d$$u7d$17h34265bed75d40865E@4HA"
.LBB3_9:
	movq	%rdx, 16(%rsp)
	pushq	%rbp
	.seh_pushreg %rbp
	subq	$32, %rsp
	.seh_stackalloc 32
	leaq	128(%rdx), %rbp
	.seh_endprologue
	movq	-16(%rbp), %rcx
	movq	-24(%rbp), %rdx
	callq	_ZN72_$LT$alloc..boxed..Box$LT$T$C$A$GT$$u20$as$u20$core..ops..drop..Drop$GT$4drop17h4e15c87e5099ad14E
	nop
	addq	$32, %rsp
	popq	%rbp
	retq
.Lfunc_end0:
	.seh_handlerdata
	.section	.text,"xr",one_only,_ZN3std2rt10lang_start28_$u7b$$u7b$closure$u7d$$u7d$17h34265bed75d40865E
	.seh_endproc
	.section	.xdata,"dr",associative,_ZN3std2rt10lang_start28_$u7b$$u7b$closure$u7d$$u7d$17h34265bed75d40865E
	.p2align	2, 0x0
$cppxdata$_ZN3std2rt10lang_start28_$u7b$$u7b$closure$u7d$$u7d$17h34265bed75d40865E:
	.long	429065506
	.long	2
	.long	($stateUnwindMap$_ZN3std2rt10lang_start28_$u7b$$u7b$closure$u7d$$u7d$17h34265bed75d40865E)@IMGREL
	.long	0
	.long	0
	.long	4
	.long	($ip2state$_ZN3std2rt10lang_start28_$u7b$$u7b$closure$u7d$$u7d$17h34265bed75d40865E)@IMGREL
	.long	136
	.long	0
	.long	1
$stateUnwindMap$_ZN3std2rt10lang_start28_$u7b$$u7b$closure$u7d$$u7d$17h34265bed75d40865E:
	.long	-1
	.long	"?dtor$2@?0?_ZN3std2rt10lang_start28_$u7b$$u7b$closure$u7d$$u7d$17h34265bed75d40865E@4HA"@IMGREL
	.long	-1
	.long	"?dtor$9@?0?_ZN3std2rt10lang_start28_$u7b$$u7b$closure$u7d$$u7d$17h34265bed75d40865E@4HA"@IMGREL
$ip2state$_ZN3std2rt10lang_start28_$u7b$$u7b$closure$u7d$$u7d$17h34265bed75d40865E:
	.long	.Lfunc_begin0@IMGREL
	.long	-1
	.long	.Ltmp0@IMGREL+1
	.long	0
	.long	.Ltmp2@IMGREL+1
	.long	1
	.long	.Ltmp3@IMGREL+1
	.long	-1
	.section	.text,"xr",one_only,_ZN3std2rt10lang_start28_$u7b$$u7b$closure$u7d$$u7d$17h34265bed75d40865E

	.def	_ZN3std3sys6common12thread_local10fast_local12Key$LT$T$GT$14try_initialize17he3462f2c002f6c27E;
	.scl	3;
	.type	32;
	.endef
	.section	.text,"xr",one_only,_ZN3std3sys6common12thread_local10fast_local12Key$LT$T$GT$14try_initialize17he3462f2c002f6c27E
	.p2align	4, 0x90
_ZN3std3sys6common12thread_local10fast_local12Key$LT$T$GT$14try_initialize17he3462f2c002f6c27E:
.seh_proc _ZN3std3sys6common12thread_local10fast_local12Key$LT$T$GT$14try_initialize17he3462f2c002f6c27E
	pushq	%rsi
	.seh_pushreg %rsi
	subq	$32, %rsp
	.seh_stackalloc 32
	.seh_endprologue
	movq	%rcx, %rsi
	testq	%rdx, %rdx
	je	.LBB4_2
	movq	%rdx, %r8
	movq	(%rdx), %rcx
	movq	8(%rdx), %rax
	movq	16(%rdx), %rdx
	movq	$0, (%r8)
	cmpq	$1, %rcx
	je	.LBB4_3
.LBB4_2:
	callq	_ZN3std3sys7windows4rand19hashmap_random_keys17ha96d7123507b6f3aE
.LBB4_3:
	movq	$1, (%rsi)
	leaq	8(%rsi), %rcx
	movq	%rax, 8(%rsi)
	movq	%rdx, 16(%rsi)
	movq	%rcx, %rax
	addq	$32, %rsp
	popq	%rsi
	retq
	.seh_endproc

	.def	_ZN3std4sync4once4Once9call_once28_$u7b$$u7b$closure$u7d$$u7d$17h541a64c2a579f898E;
	.scl	3;
	.type	32;
	.endef
	.section	.text,"xr",one_only,_ZN3std4sync4once4Once9call_once28_$u7b$$u7b$closure$u7d$$u7d$17h541a64c2a579f898E
	.p2align	4, 0x90
_ZN3std4sync4once4Once9call_once28_$u7b$$u7b$closure$u7d$$u7d$17h541a64c2a579f898E:
.Lfunc_begin1:
.seh_proc _ZN3std4sync4once4Once9call_once28_$u7b$$u7b$closure$u7d$$u7d$17h541a64c2a579f898E
	.seh_handler __CxxFrameHandler3, @unwind, @except
	pushq	%rbp
	.seh_pushreg %rbp
	pushq	%r15
	.seh_pushreg %r15
	pushq	%r14
	.seh_pushreg %r14
	pushq	%r12
	.seh_pushreg %r12
	pushq	%rsi
	.seh_pushreg %rsi
	pushq	%rdi
	.seh_pushreg %rdi
	pushq	%rbx
	.seh_pushreg %rbx
	subq	$272, %rsp
	.seh_stackalloc 272
	leaq	128(%rsp), %rbp
	.seh_setframe %rbp, 128
	.seh_endprologue
	movq	$-2, 136(%rbp)
	movq	(%rcx), %rcx
	movq	(%rcx), %rax
	movq	$0, (%rcx)
	testq	%rax, %rax
	je	.LBB5_17
	movq	(%rax), %r14
	callq	_ZN3std11collections4hash3map11RandomState3new4KEYS7__getit33__KEY$u7b$$u7b$tls.shim$u7d$$u7d$17h6f125bb9bc557efaE
	cmpq	$0, (%rax)
	je	.LBB5_3
	addq	$8, %rax
	jmp	.LBB5_4
.LBB5_3:
	movq	%rax, %rcx
	xorl	%edx, %edx
	callq	_ZN3std3sys6common12thread_local10fast_local12Key$LT$T$GT$14try_initialize17he3462f2c002f6c27E
.LBB5_4:
	leaq	__unnamed_3(%rip), %rcx
	movq	%rcx, 48(%rbp)
	xorps	%xmm0, %xmm0
	movups	%xmm0, 56(%rbp)
	movq	$0, 72(%rbp)
	movups	(%rax), %xmm0
	incq	(%rax)
	movups	%xmm0, 80(%rbp)
.Ltmp4:
	leaq	-88(%rbp), %rcx
	movl	$1, %edx
	callq	_ZN5tokio4sync15batch_semaphore9Semaphore3new17h85991d63701db81bE
.Ltmp5:
	movups	48(%rbp), %xmm0
	movups	64(%rbp), %xmm1
	movups	80(%rbp), %xmm2
	movups	%xmm2, 24(%rbp)
	movups	%xmm1, 8(%rbp)
	movups	%xmm0, -8(%rbp)
	movq	-56(%rbp), %rax
	movq	%rax, -16(%rbp)
	movups	-88(%rbp), %xmm0
	movups	-72(%rbp), %xmm1
	movaps	%xmm0, 48(%rbp)
	movaps	%xmm1, 64(%rbp)
	movq	-16(%rbp), %rax
	movq	%rax, 80(%rbp)
	movq	-8(%rbp), %rax
	movq	%rax, 88(%rbp)
	movaps	(%rbp), %xmm0
	movaps	%xmm0, 96(%rbp)
	movaps	16(%rbp), %xmm0
	movaps	%xmm0, 112(%rbp)
	movq	32(%rbp), %rax
	movq	%rax, 128(%rbp)
	movq	48(%r14), %rsi
	movq	56(%r14), %rdi
	cmpq	$0, (%r14)
	movq	72(%r14), %rbx
	movq	$1, (%r14)
	movaps	48(%rbp), %xmm0
	movaps	64(%rbp), %xmm1
	movq	80(%rbp), %rax
	movq	88(%rbp), %rcx
	movaps	96(%rbp), %xmm2
	movups	%xmm0, 8(%r14)
	movups	%xmm1, 24(%r14)
	movq	%rax, 40(%r14)
	movq	%rcx, 48(%r14)
	movups	%xmm2, 56(%r14)
	movdqa	112(%rbp), %xmm0
	movdqu	%xmm0, 72(%r14)
	movq	128(%rbp), %rax
	movq	%rax, 88(%r14)
	je	.LBB5_16
	testq	%rdi, %rdi
	je	.LBB5_16
	testq	%rbx, %rbx
	je	.LBB5_15
	movdqa	(%rsi), %xmm0
	pmovmskb	%xmm0, %eax
	notl	%eax
	leaq	16(%rsi), %r14
	movq	%rsi, %r15
	jmp	.LBB5_9
	.p2align	4, 0x90
.LBB5_14:
	movl	%r12d, %eax
	testq	%rbx, %rbx
	je	.LBB5_15
.LBB5_9:
	testw	%ax, %ax
	jne	.LBB5_12
	.p2align	4, 0x90
.LBB5_10:
	movdqa	(%r14), %xmm0
	pmovmskb	%xmm0, %eax
	addq	$-256, %r15
	addq	$16, %r14
	cmpw	$-1, %ax
	je	.LBB5_10
	notl	%eax
.LBB5_12:
	leal	-1(%rax), %r12d
	andl	%eax, %r12d
	decq	%rbx
	rep		bsfl	%eax, %eax
	shlq	$4, %rax
	movq	%r15, %rcx
	subq	%rax, %rcx
	movq	-8(%rcx), %rcx
	lock		decq	(%rcx)
	jne	.LBB5_14
	#MEMBARRIER
	callq	_ZN5alloc4sync12Arc$LT$T$GT$9drop_slow17h1439be88e92d2793E
	jmp	.LBB5_14
.LBB5_15:
	movq	%rdi, %rax
	shlq	$4, %rax
	addq	%rax, %rdi
	addq	$33, %rdi
	je	.LBB5_16
	subq	%rax, %rsi
	addq	$-16, %rsi
	movl	$16, %r8d
	movq	%rsi, %rcx
	movq	%rdi, %rdx
	addq	$272, %rsp
	popq	%rbx
	popq	%rdi
	popq	%rsi
	popq	%r12
	popq	%r14
	popq	%r15
	popq	%rbp
	jmp	__rust_dealloc
.LBB5_16:
	nop
	addq	$272, %rsp
	popq	%rbx
	popq	%rdi
	popq	%rsi
	popq	%r12
	popq	%r14
	popq	%r15
	popq	%rbp
	retq
.LBB5_17:
	leaq	__unnamed_4(%rip), %rcx
	leaq	__unnamed_5(%rip), %r8
	movl	$43, %edx
	callq	_ZN4core9panicking5panic17hd8fd9a7d9b3c9589E
	ud2
	.seh_handlerdata
	.long	($cppxdata$_ZN3std4sync4once4Once9call_once28_$u7b$$u7b$closure$u7d$$u7d$17h541a64c2a579f898E)@IMGREL
	.section	.text,"xr",one_only,_ZN3std4sync4once4Once9call_once28_$u7b$$u7b$closure$u7d$$u7d$17h541a64c2a579f898E
	.seh_endproc
	.def	"?dtor$18@?0?_ZN3std4sync4once4Once9call_once28_$u7b$$u7b$closure$u7d$$u7d$17h541a64c2a579f898E@4HA";
	.scl	3;
	.type	32;
	.endef
	.p2align	4, 0x90
"?dtor$18@?0?_ZN3std4sync4once4Once9call_once28_$u7b$$u7b$closure$u7d$$u7d$17h541a64c2a579f898E@4HA":
.seh_proc "?dtor$18@?0?_ZN3std4sync4once4Once9call_once28_$u7b$$u7b$closure$u7d$$u7d$17h541a64c2a579f898E@4HA"
.LBB5_18:
	movq	%rdx, 16(%rsp)
	pushq	%rbp
	.seh_pushreg %rbp
	pushq	%r15
	.seh_pushreg %r15
	pushq	%r14
	.seh_pushreg %r14
	pushq	%r12
	.seh_pushreg %r12
	pushq	%rsi
	.seh_pushreg %rsi
	pushq	%rdi
	.seh_pushreg %rdi
	pushq	%rbx
	.seh_pushreg %rbx
	subq	$32, %rsp
	.seh_stackalloc 32
	leaq	128(%rdx), %rbp
	.seh_endprologue
	leaq	48(%rbp), %rcx
	callq	_ZN4core3ptr203drop_in_place$LT$std..collections..hash..map..HashMap$LT$i64$C$alloc..sync..Arc$LT$tokio..sync..mutex..Mutex$LT$tokio..sync..mpsc..bounded..Receiver$LT$reach_server..enums..C2SCommand$GT$$GT$$GT$$GT$$GT$17h9120b6b608d00c44E
	nop
	addq	$32, %rsp
	popq	%rbx
	popq	%rdi
	popq	%rsi
	popq	%r12
	popq	%r14
	popq	%r15
	popq	%rbp
	retq
.Lfunc_end1:
	.seh_handlerdata
	.section	.text,"xr",one_only,_ZN3std4sync4once4Once9call_once28_$u7b$$u7b$closure$u7d$$u7d$17h541a64c2a579f898E
	.seh_endproc
	.section	.xdata,"dr",associative,_ZN3std4sync4once4Once9call_once28_$u7b$$u7b$closure$u7d$$u7d$17h541a64c2a579f898E
	.p2align	2, 0x0
$cppxdata$_ZN3std4sync4once4Once9call_once28_$u7b$$u7b$closure$u7d$$u7d$17h541a64c2a579f898E:
	.long	429065506
	.long	1
	.long	($stateUnwindMap$_ZN3std4sync4once4Once9call_once28_$u7b$$u7b$closure$u7d$$u7d$17h541a64c2a579f898E)@IMGREL
	.long	0
	.long	0
	.long	3
	.long	($ip2state$_ZN3std4sync4once4Once9call_once28_$u7b$$u7b$closure$u7d$$u7d$17h541a64c2a579f898E)@IMGREL
	.long	264
	.long	0
	.long	1
$stateUnwindMap$_ZN3std4sync4once4Once9call_once28_$u7b$$u7b$closure$u7d$$u7d$17h541a64c2a579f898E:
	.long	-1
	.long	"?dtor$18@?0?_ZN3std4sync4once4Once9call_once28_$u7b$$u7b$closure$u7d$$u7d$17h541a64c2a579f898E@4HA"@IMGREL
$ip2state$_ZN3std4sync4once4Once9call_once28_$u7b$$u7b$closure$u7d$$u7d$17h541a64c2a579f898E:
	.long	.Lfunc_begin1@IMGREL
	.long	-1
	.long	.Ltmp4@IMGREL+1
	.long	0
	.long	.Ltmp5@IMGREL+1
	.long	-1
	.section	.text,"xr",one_only,_ZN3std4sync4once4Once9call_once28_$u7b$$u7b$closure$u7d$$u7d$17h541a64c2a579f898E

	.def	_ZN3std4sync4once4Once9call_once28_$u7b$$u7b$closure$u7d$$u7d$17h87b113e8514cf1efE;
	.scl	3;
	.type	32;
	.endef
	.section	.text,"xr",one_only,_ZN3std4sync4once4Once9call_once28_$u7b$$u7b$closure$u7d$$u7d$17h87b113e8514cf1efE
	.p2align	4, 0x90
_ZN3std4sync4once4Once9call_once28_$u7b$$u7b$closure$u7d$$u7d$17h87b113e8514cf1efE:
.Lfunc_begin2:
.seh_proc _ZN3std4sync4once4Once9call_once28_$u7b$$u7b$closure$u7d$$u7d$17h87b113e8514cf1efE
	.seh_handler __CxxFrameHandler3, @unwind, @except
	pushq	%rbp
	.seh_pushreg %rbp
	pushq	%r15
	.seh_pushreg %r15
	pushq	%r14
	.seh_pushreg %r14
	pushq	%r12
	.seh_pushreg %r12
	pushq	%rsi
	.seh_pushreg %rsi
	pushq	%rdi
	.seh_pushreg %rdi
	pushq	%rbx
	.seh_pushreg %rbx
	subq	$272, %rsp
	.seh_stackalloc 272
	leaq	128(%rsp), %rbp
	.seh_setframe %rbp, 128
	.seh_endprologue
	movq	$-2, 136(%rbp)
	movq	(%rcx), %rcx
	movq	(%rcx), %rax
	movq	$0, (%rcx)
	testq	%rax, %rax
	je	.LBB6_15
	movq	(%rax), %r14
	callq	_ZN3std11collections4hash3map11RandomState3new4KEYS7__getit33__KEY$u7b$$u7b$tls.shim$u7d$$u7d$17h6f125bb9bc557efaE
	cmpq	$0, (%rax)
	je	.LBB6_3
	addq	$8, %rax
	jmp	.LBB6_4
.LBB6_3:
	movq	%rax, %rcx
	xorl	%edx, %edx
	callq	_ZN3std3sys6common12thread_local10fast_local12Key$LT$T$GT$14try_initialize17he3462f2c002f6c27E
.LBB6_4:
	leaq	__unnamed_3(%rip), %rcx
	movq	%rcx, 48(%rbp)
	xorps	%xmm0, %xmm0
	movups	%xmm0, 56(%rbp)
	movq	$0, 72(%rbp)
	movups	(%rax), %xmm0
	incq	(%rax)
	movups	%xmm0, 80(%rbp)
.Ltmp6:
	leaq	-88(%rbp), %rcx
	movl	$1, %edx
	callq	_ZN5tokio4sync15batch_semaphore9Semaphore3new17h85991d63701db81bE
.Ltmp7:
	movups	48(%rbp), %xmm0
	movups	64(%rbp), %xmm1
	movups	80(%rbp), %xmm2
	movups	%xmm2, 24(%rbp)
	movups	%xmm1, 8(%rbp)
	movups	%xmm0, -8(%rbp)
	movq	-56(%rbp), %rax
	movq	%rax, -16(%rbp)
	movups	-88(%rbp), %xmm0
	movups	-72(%rbp), %xmm1
	movaps	%xmm0, 48(%rbp)
	movaps	%xmm1, 64(%rbp)
	movq	-16(%rbp), %rax
	movq	%rax, 80(%rbp)
	movq	-8(%rbp), %rax
	movq	%rax, 88(%rbp)
	movaps	(%rbp), %xmm0
	movaps	%xmm0, 96(%rbp)
	movaps	16(%rbp), %xmm0
	movaps	%xmm0, 112(%rbp)
	movq	32(%rbp), %rax
	movq	%rax, 128(%rbp)
	movq	48(%r14), %rsi
	movq	56(%r14), %rdi
	cmpq	$0, (%r14)
	movq	72(%r14), %rbx
	movq	$1, (%r14)
	movaps	48(%rbp), %xmm0
	movaps	64(%rbp), %xmm1
	movq	80(%rbp), %rax
	movq	88(%rbp), %rcx
	movaps	96(%rbp), %xmm2
	movups	%xmm0, 8(%r14)
	movups	%xmm1, 24(%r14)
	movq	%rax, 40(%r14)
	movq	%rcx, 48(%r14)
	movups	%xmm2, 56(%r14)
	movdqa	112(%rbp), %xmm0
	movdqu	%xmm0, 72(%r14)
	movq	128(%rbp), %rax
	movq	%rax, 88(%r14)
	je	.LBB6_14
	testq	%rdi, %rdi
	je	.LBB6_14
	testq	%rbx, %rbx
	je	.LBB6_13
	movdqa	(%rsi), %xmm0
	pmovmskb	%xmm0, %eax
	notl	%eax
	leaq	16(%rsi), %r14
	movq	%rsi, %r15
	jmp	.LBB6_9
	.p2align	4, 0x90
.LBB6_12:
	rep		bsfl	%eax, %ecx
	shlq	$4, %rcx
	movq	%r15, %rdx
	subq	%rcx, %rdx
	leal	-1(%rax), %r12d
	andl	%eax, %r12d
	movq	-8(%rdx), %rcx
	callq	_ZN4core3ptr94drop_in_place$LT$tokio..sync..mpsc..bounded..Sender$LT$reach_server..enums..S2CCommand$GT$$GT$17h7e43226cbf6a5788E
	movl	%r12d, %eax
	decq	%rbx
	je	.LBB6_13
.LBB6_9:
	testw	%ax, %ax
	jne	.LBB6_12
	.p2align	4, 0x90
.LBB6_10:
	movdqa	(%r14), %xmm0
	pmovmskb	%xmm0, %eax
	addq	$-256, %r15
	addq	$16, %r14
	cmpw	$-1, %ax
	je	.LBB6_10
	notl	%eax
	jmp	.LBB6_12
.LBB6_13:
	movq	%rdi, %rax
	shlq	$4, %rax
	addq	%rax, %rdi
	addq	$33, %rdi
	je	.LBB6_14
	subq	%rax, %rsi
	addq	$-16, %rsi
	movl	$16, %r8d
	movq	%rsi, %rcx
	movq	%rdi, %rdx
	addq	$272, %rsp
	popq	%rbx
	popq	%rdi
	popq	%rsi
	popq	%r12
	popq	%r14
	popq	%r15
	popq	%rbp
	jmp	__rust_dealloc
.LBB6_14:
	nop
	addq	$272, %rsp
	popq	%rbx
	popq	%rdi
	popq	%rsi
	popq	%r12
	popq	%r14
	popq	%r15
	popq	%rbp
	retq
.LBB6_15:
	leaq	__unnamed_4(%rip), %rcx
	leaq	__unnamed_5(%rip), %r8
	movl	$43, %edx
	callq	_ZN4core9panicking5panic17hd8fd9a7d9b3c9589E
	ud2
	.seh_handlerdata
	.long	($cppxdata$_ZN3std4sync4once4Once9call_once28_$u7b$$u7b$closure$u7d$$u7d$17h87b113e8514cf1efE)@IMGREL
	.section	.text,"xr",one_only,_ZN3std4sync4once4Once9call_once28_$u7b$$u7b$closure$u7d$$u7d$17h87b113e8514cf1efE
	.seh_endproc
	.def	"?dtor$16@?0?_ZN3std4sync4once4Once9call_once28_$u7b$$u7b$closure$u7d$$u7d$17h87b113e8514cf1efE@4HA";
	.scl	3;
	.type	32;
	.endef
	.p2align	4, 0x90
"?dtor$16@?0?_ZN3std4sync4once4Once9call_once28_$u7b$$u7b$closure$u7d$$u7d$17h87b113e8514cf1efE@4HA":
.seh_proc "?dtor$16@?0?_ZN3std4sync4once4Once9call_once28_$u7b$$u7b$closure$u7d$$u7d$17h87b113e8514cf1efE@4HA"
.LBB6_16:
	movq	%rdx, 16(%rsp)
	pushq	%rbp
	.seh_pushreg %rbp
	pushq	%r15
	.seh_pushreg %r15
	pushq	%r14
	.seh_pushreg %r14
	pushq	%r12
	.seh_pushreg %r12
	pushq	%rsi
	.seh_pushreg %rsi
	pushq	%rdi
	.seh_pushreg %rdi
	pushq	%rbx
	.seh_pushreg %rbx
	subq	$32, %rsp
	.seh_stackalloc 32
	leaq	128(%rdx), %rbp
	.seh_endprologue
	leaq	48(%rbp), %rcx
	callq	_ZN4core3ptr144drop_in_place$LT$std..collections..hash..map..HashMap$LT$i64$C$tokio..sync..mpsc..bounded..Sender$LT$reach_server..enums..S2CCommand$GT$$GT$$GT$17h27a2bd911a0478cdE
	nop
	addq	$32, %rsp
	popq	%rbx
	popq	%rdi
	popq	%rsi
	popq	%r12
	popq	%r14
	popq	%r15
	popq	%rbp
	retq
.Lfunc_end2:
	.seh_handlerdata
	.section	.text,"xr",one_only,_ZN3std4sync4once4Once9call_once28_$u7b$$u7b$closure$u7d$$u7d$17h87b113e8514cf1efE
	.seh_endproc
	.section	.xdata,"dr",associative,_ZN3std4sync4once4Once9call_once28_$u7b$$u7b$closure$u7d$$u7d$17h87b113e8514cf1efE
	.p2align	2, 0x0
$cppxdata$_ZN3std4sync4once4Once9call_once28_$u7b$$u7b$closure$u7d$$u7d$17h87b113e8514cf1efE:
	.long	429065506
	.long	1
	.long	($stateUnwindMap$_ZN3std4sync4once4Once9call_once28_$u7b$$u7b$closure$u7d$$u7d$17h87b113e8514cf1efE)@IMGREL
	.long	0
	.long	0
	.long	3
	.long	($ip2state$_ZN3std4sync4once4Once9call_once28_$u7b$$u7b$closure$u7d$$u7d$17h87b113e8514cf1efE)@IMGREL
	.long	264
	.long	0
	.long	1
$stateUnwindMap$_ZN3std4sync4once4Once9call_once28_$u7b$$u7b$closure$u7d$$u7d$17h87b113e8514cf1efE:
	.long	-1
	.long	"?dtor$16@?0?_ZN3std4sync4once4Once9call_once28_$u7b$$u7b$closure$u7d$$u7d$17h87b113e8514cf1efE@4HA"@IMGREL
$ip2state$_ZN3std4sync4once4Once9call_once28_$u7b$$u7b$closure$u7d$$u7d$17h87b113e8514cf1efE:
	.long	.Lfunc_begin2@IMGREL
	.long	-1
	.long	.Ltmp6@IMGREL+1
	.long	0
	.long	.Ltmp7@IMGREL+1
	.long	-1
	.section	.text,"xr",one_only,_ZN3std4sync4once4Once9call_once28_$u7b$$u7b$closure$u7d$$u7d$17h87b113e8514cf1efE

	.def	_ZN42_$LT$$RF$T$u20$as$u20$core..fmt..Debug$GT$3fmt17h7d9338eb95558390E;
	.scl	3;
	.type	32;
	.endef
	.section	.text,"xr",one_only,_ZN42_$LT$$RF$T$u20$as$u20$core..fmt..Debug$GT$3fmt17h7d9338eb95558390E
	.p2align	4, 0x90
_ZN42_$LT$$RF$T$u20$as$u20$core..fmt..Debug$GT$3fmt17h7d9338eb95558390E:
.seh_proc _ZN42_$LT$$RF$T$u20$as$u20$core..fmt..Debug$GT$3fmt17h7d9338eb95558390E
	subq	$56, %rsp
	.seh_stackalloc 56
	.seh_endprologue
	movq	%rdx, %rax
	movq	(%rcx), %rcx
	cmpq	$0, (%rcx)
	je	.LBB7_2
	movq	%rcx, 48(%rsp)
	leaq	__unnamed_6(%rip), %rcx
	movq	%rcx, 32(%rsp)
	leaq	__unnamed_7(%rip), %rdx
	leaq	48(%rsp), %r9
	movl	$4, %r8d
	movq	%rax, %rcx
	callq	_ZN4core3fmt9Formatter25debug_tuple_field1_finish17hea1e4457540afd86E
	nop
	addq	$56, %rsp
	retq
.LBB7_2:
	leaq	__unnamed_8(%rip), %rdx
	movl	$4, %r8d
	movq	%rax, %rcx
	addq	$56, %rsp
	jmp	_ZN4core3fmt9Formatter9write_str17h9c0ba4c18646ed9fE
	.seh_endproc

	.def	_ZN42_$LT$$RF$T$u20$as$u20$core..fmt..Debug$GT$3fmt17he6d03831fc55bc0dE;
	.scl	3;
	.type	32;
	.endef
	.section	.text,"xr",one_only,_ZN42_$LT$$RF$T$u20$as$u20$core..fmt..Debug$GT$3fmt17he6d03831fc55bc0dE
	.p2align	4, 0x90
_ZN42_$LT$$RF$T$u20$as$u20$core..fmt..Debug$GT$3fmt17he6d03831fc55bc0dE:
	movq	(%rcx), %rax
	movq	(%rax), %rcx
	jmp	_ZN4core3fmt17pointer_fmt_inner17h441c8ea2712decfaE

	.def	_ZN42_$LT$$RF$T$u20$as$u20$core..fmt..Debug$GT$3fmt17hfc646ab4866a9028E;
	.scl	3;
	.type	32;
	.endef
	.section	.text,"xr",one_only,_ZN42_$LT$$RF$T$u20$as$u20$core..fmt..Debug$GT$3fmt17hfc646ab4866a9028E
	.p2align	4, 0x90
_ZN42_$LT$$RF$T$u20$as$u20$core..fmt..Debug$GT$3fmt17hfc646ab4866a9028E:
.seh_proc _ZN42_$LT$$RF$T$u20$as$u20$core..fmt..Debug$GT$3fmt17hfc646ab4866a9028E
	pushq	%rsi
	.seh_pushreg %rsi
	pushq	%rdi
	.seh_pushreg %rdi
	subq	$40, %rsp
	.seh_stackalloc 40
	.seh_endprologue
	movq	%rdx, %rsi
	movq	(%rcx), %rdi
	movq	%rdx, %rcx
	callq	_ZN4core3fmt9Formatter15debug_lower_hex17h9edc1ddb7b581be6E
	testb	%al, %al
	je	.LBB9_1
	movq	%rdi, %rcx
	movq	%rsi, %rdx
	addq	$40, %rsp
	popq	%rdi
	popq	%rsi
	jmp	_ZN4core3fmt3num53_$LT$impl$u20$core..fmt..LowerHex$u20$for$u20$u32$GT$3fmt17h976fa62eddf4c999E
.LBB9_1:
	movq	%rsi, %rcx
	callq	_ZN4core3fmt9Formatter15debug_upper_hex17h80c8a53e7a03fc9cE
	movq	%rdi, %rcx
	movq	%rsi, %rdx
	testb	%al, %al
	je	.LBB9_4
	addq	$40, %rsp
	popq	%rdi
	popq	%rsi
	jmp	_ZN4core3fmt3num53_$LT$impl$u20$core..fmt..UpperHex$u20$for$u20$u32$GT$3fmt17hee1b60a5e3543241E
.LBB9_4:
	nop
	addq	$40, %rsp
	popq	%rdi
	popq	%rsi
	jmp	_ZN4core3fmt3num3imp52_$LT$impl$u20$core..fmt..Display$u20$for$u20$u32$GT$3fmt17h80e6f9143ffd382bE
	.seh_endproc

	.def	_ZN44_$LT$$RF$T$u20$as$u20$core..fmt..Display$GT$3fmt17h90c4f8a0d28ff6c3E;
	.scl	3;
	.type	32;
	.endef
	.section	.text,"xr",one_only,_ZN44_$LT$$RF$T$u20$as$u20$core..fmt..Display$GT$3fmt17h90c4f8a0d28ff6c3E
	.p2align	4, 0x90
_ZN44_$LT$$RF$T$u20$as$u20$core..fmt..Display$GT$3fmt17h90c4f8a0d28ff6c3E:
	movq	(%rcx), %rcx
	jmp	_ZN4core3fmt3num3imp52_$LT$impl$u20$core..fmt..Display$u20$for$u20$i64$GT$3fmt17ha146ec2dbf8256d3E

	.def	_ZN44_$LT$$RF$T$u20$as$u20$core..fmt..Display$GT$3fmt17hcb14b0b9675ae812E;
	.scl	3;
	.type	32;
	.endef
	.section	.text,"xr",one_only,_ZN44_$LT$$RF$T$u20$as$u20$core..fmt..Display$GT$3fmt17hcb14b0b9675ae812E
	.p2align	4, 0x90
_ZN44_$LT$$RF$T$u20$as$u20$core..fmt..Display$GT$3fmt17hcb14b0b9675ae812E:
	movq	%rdx, %r8
	movq	(%rcx), %rax
	movq	8(%rcx), %rdx
	movq	%rax, %rcx
	jmp	_ZN42_$LT$str$u20$as$u20$core..fmt..Display$GT$3fmt17h976a9fa57201259cE

	.def	_ZN4core3fmt5Write10write_char17h8ef11fd50fb524d1E;
	.scl	3;
	.type	32;
	.endef
	.section	.text,"xr",one_only,_ZN4core3fmt5Write10write_char17h8ef11fd50fb524d1E
	.p2align	4, 0x90
_ZN4core3fmt5Write10write_char17h8ef11fd50fb524d1E:
.seh_proc _ZN4core3fmt5Write10write_char17h8ef11fd50fb524d1E
	subq	$40, %rsp
	.seh_stackalloc 40
	.seh_endprologue
	movl	$0, 36(%rsp)
	cmpl	$128, %edx
	jae	.LBB12_1
	movb	%dl, 36(%rsp)
	movl	$1, %r8d
	jmp	.LBB12_7
.LBB12_1:
	movl	%edx, %eax
	cmpl	$2048, %edx
	jae	.LBB12_2
	shrl	$6, %eax
	orb	$-64, %al
	movb	%al, 36(%rsp)
	andb	$63, %dl
	orb	$-128, %dl
	movb	%dl, 37(%rsp)
	movl	$2, %r8d
	jmp	.LBB12_7
.LBB12_2:
	cmpl	$65536, %edx
	jae	.LBB12_6
	shrl	$12, %eax
	orb	$-32, %al
	movb	%al, 36(%rsp)
	movl	%edx, %eax
	shrl	$6, %eax
	andb	$63, %al
	orb	$-128, %al
	movb	%al, 37(%rsp)
	andb	$63, %dl
	orb	$-128, %dl
	movb	%dl, 38(%rsp)
	movl	$3, %r8d
	jmp	.LBB12_7
.LBB12_6:
	shrl	$18, %eax
	andb	$7, %al
	orb	$-16, %al
	movb	%al, 36(%rsp)
	movl	%edx, %eax
	shrl	$12, %eax
	andb	$63, %al
	orb	$-128, %al
	movb	%al, 37(%rsp)
	movl	%edx, %eax
	shrl	$6, %eax
	andb	$63, %al
	orb	$-128, %al
	movb	%al, 38(%rsp)
	andb	$63, %dl
	orb	$-128, %dl
	movb	%dl, 39(%rsp)
	movl	$4, %r8d
.LBB12_7:
	leaq	36(%rsp), %rdx
	callq	_ZN80_$LT$std..io..Write..write_fmt..Adapter$LT$T$GT$$u20$as$u20$core..fmt..Write$GT$9write_str17hadd1c4de6c2f4824E
	nop
	addq	$40, %rsp
	retq
	.seh_endproc

	.def	_ZN4core3fmt5Write9write_fmt17h7b21bad1068df0f8E;
	.scl	3;
	.type	32;
	.endef
	.section	.text,"xr",one_only,_ZN4core3fmt5Write9write_fmt17h7b21bad1068df0f8E
	.p2align	4, 0x90
_ZN4core3fmt5Write9write_fmt17h7b21bad1068df0f8E:
.seh_proc _ZN4core3fmt5Write9write_fmt17h7b21bad1068df0f8E
	subq	$104, %rsp
	.seh_stackalloc 104
	.seh_endprologue
	movq	%rcx, 40(%rsp)
	movups	(%rdx), %xmm0
	movups	16(%rdx), %xmm1
	movups	32(%rdx), %xmm2
	movaps	%xmm2, 80(%rsp)
	movaps	%xmm1, 64(%rsp)
	movaps	%xmm0, 48(%rsp)
	leaq	__unnamed_9(%rip), %rdx
	leaq	40(%rsp), %rcx
	leaq	48(%rsp), %r8
	callq	_ZN4core3fmt5write17h1f35b1184ff0f480E
	nop
	addq	$104, %rsp
	retq
	.seh_endproc

	.def	_ZN4core3ops8function6FnOnce40call_once$u7b$$u7b$vtable.shim$u7d$$u7d$17h3ddf69995341a2bdE;
	.scl	3;
	.type	32;
	.endef
	.section	.text,"xr",one_only,_ZN4core3ops8function6FnOnce40call_once$u7b$$u7b$vtable.shim$u7d$$u7d$17h3ddf69995341a2bdE
	.p2align	4, 0x90
_ZN4core3ops8function6FnOnce40call_once$u7b$$u7b$vtable.shim$u7d$$u7d$17h3ddf69995341a2bdE:
.seh_proc _ZN4core3ops8function6FnOnce40call_once$u7b$$u7b$vtable.shim$u7d$$u7d$17h3ddf69995341a2bdE
	subq	$40, %rsp
	.seh_stackalloc 40
	.seh_endprologue
	movq	(%rcx), %rax
	movq	%rax, 32(%rsp)
	leaq	32(%rsp), %rcx
	callq	_ZN3std4sync4once4Once9call_once28_$u7b$$u7b$closure$u7d$$u7d$17h87b113e8514cf1efE
	nop
	addq	$40, %rsp
	retq
	.seh_endproc

	.def	_ZN4core3ops8function6FnOnce40call_once$u7b$$u7b$vtable.shim$u7d$$u7d$17h4f1ce1ea97f4abdcE;
	.scl	3;
	.type	32;
	.endef
	.section	.text,"xr",one_only,_ZN4core3ops8function6FnOnce40call_once$u7b$$u7b$vtable.shim$u7d$$u7d$17h4f1ce1ea97f4abdcE
	.p2align	4, 0x90
_ZN4core3ops8function6FnOnce40call_once$u7b$$u7b$vtable.shim$u7d$$u7d$17h4f1ce1ea97f4abdcE:
.Lfunc_begin3:
.seh_proc _ZN4core3ops8function6FnOnce40call_once$u7b$$u7b$vtable.shim$u7d$$u7d$17h4f1ce1ea97f4abdcE
	.seh_handler __CxxFrameHandler3, @unwind, @except
	pushq	%rbp
	.seh_pushreg %rbp
	pushq	%rsi
	.seh_pushreg %rsi
	subq	$248, %rsp
	.seh_stackalloc 248
	leaq	128(%rsp), %rbp
	.seh_setframe %rbp, 128
	.seh_endprologue
	movq	$-2, 112(%rbp)
	movq	%rcx, %rsi
	movq	(%rcx), %rax
	movq	(%rax), %rcx
	movq	$0, (%rax)
	movq	208(%rcx), %rax
	movq	$0, 208(%rcx)
	testq	%rax, %rax
	je	.LBB15_5
	leaq	-88(%rbp), %rcx
	callq	*%rax
	movq	8(%rsi), %rax
	movq	(%rax), %rcx
	cmpq	$0, (%rcx)
	je	.LBB15_4
	movq	%rax, 104(%rbp)
	addq	$48, %rcx
.Ltmp8:
	callq	_ZN4core3ptr49drop_in_place$LT$reach_server..server..Server$GT$17h8b2643df58c07a82E
.Ltmp9:
	movq	104(%rbp), %rax
	movq	(%rax), %rcx
.LBB15_4:
	movq	$1, (%rcx)
	addq	$8, %rcx
	leaq	-88(%rbp), %rdx
	movl	$192, %r8d
	callq	memcpy
	movb	$1, %al
	addq	$248, %rsp
	popq	%rsi
	popq	%rbp
	retq
.LBB15_5:
	leaq	__unnamed_10(%rip), %rax
	movq	%rax, -88(%rbp)
	movq	$1, -80(%rbp)
	leaq	__unnamed_11(%rip), %rax
	movq	%rax, -72(%rbp)
	xorps	%xmm0, %xmm0
	movups	%xmm0, -64(%rbp)
	leaq	__unnamed_12(%rip), %rdx
	leaq	-88(%rbp), %rcx
	callq	_ZN4core9panicking9panic_fmt17hab6278d82627a88aE
	ud2
	.seh_handlerdata
	.long	($cppxdata$_ZN4core3ops8function6FnOnce40call_once$u7b$$u7b$vtable.shim$u7d$$u7d$17h4f1ce1ea97f4abdcE)@IMGREL
	.section	.text,"xr",one_only,_ZN4core3ops8function6FnOnce40call_once$u7b$$u7b$vtable.shim$u7d$$u7d$17h4f1ce1ea97f4abdcE
	.seh_endproc
	.def	"?dtor$6@?0?_ZN4core3ops8function6FnOnce40call_once$u7b$$u7b$vtable.shim$u7d$$u7d$17h4f1ce1ea97f4abdcE@4HA";
	.scl	3;
	.type	32;
	.endef
	.p2align	4, 0x90
"?dtor$6@?0?_ZN4core3ops8function6FnOnce40call_once$u7b$$u7b$vtable.shim$u7d$$u7d$17h4f1ce1ea97f4abdcE@4HA":
.seh_proc "?dtor$6@?0?_ZN4core3ops8function6FnOnce40call_once$u7b$$u7b$vtable.shim$u7d$$u7d$17h4f1ce1ea97f4abdcE@4HA"
.LBB15_6:
	movq	%rdx, 16(%rsp)
	pushq	%rbp
	.seh_pushreg %rbp
	pushq	%rsi
	.seh_pushreg %rsi
	subq	$40, %rsp
	.seh_stackalloc 40
	leaq	128(%rdx), %rbp
	.seh_endprologue
	movq	104(%rbp), %rax
	movq	(%rax), %rcx
	movq	$1, (%rcx)
	addq	$8, %rcx
	leaq	-88(%rbp), %rdx
	movl	$192, %r8d
	callq	memcpy
	nop
	addq	$40, %rsp
	popq	%rsi
	popq	%rbp
	retq
.Lfunc_end3:
	.seh_handlerdata
	.section	.text,"xr",one_only,_ZN4core3ops8function6FnOnce40call_once$u7b$$u7b$vtable.shim$u7d$$u7d$17h4f1ce1ea97f4abdcE
	.seh_endproc
	.section	.xdata,"dr",associative,_ZN4core3ops8function6FnOnce40call_once$u7b$$u7b$vtable.shim$u7d$$u7d$17h4f1ce1ea97f4abdcE
	.p2align	2, 0x0
$cppxdata$_ZN4core3ops8function6FnOnce40call_once$u7b$$u7b$vtable.shim$u7d$$u7d$17h4f1ce1ea97f4abdcE:
	.long	429065506
	.long	1
	.long	($stateUnwindMap$_ZN4core3ops8function6FnOnce40call_once$u7b$$u7b$vtable.shim$u7d$$u7d$17h4f1ce1ea97f4abdcE)@IMGREL
	.long	0
	.long	0
	.long	3
	.long	($ip2state$_ZN4core3ops8function6FnOnce40call_once$u7b$$u7b$vtable.shim$u7d$$u7d$17h4f1ce1ea97f4abdcE)@IMGREL
	.long	240
	.long	0
	.long	1
$stateUnwindMap$_ZN4core3ops8function6FnOnce40call_once$u7b$$u7b$vtable.shim$u7d$$u7d$17h4f1ce1ea97f4abdcE:
	.long	-1
	.long	"?dtor$6@?0?_ZN4core3ops8function6FnOnce40call_once$u7b$$u7b$vtable.shim$u7d$$u7d$17h4f1ce1ea97f4abdcE@4HA"@IMGREL
$ip2state$_ZN4core3ops8function6FnOnce40call_once$u7b$$u7b$vtable.shim$u7d$$u7d$17h4f1ce1ea97f4abdcE:
	.long	.Lfunc_begin3@IMGREL
	.long	-1
	.long	.Ltmp8@IMGREL+1
	.long	0
	.long	.Ltmp9@IMGREL+1
	.long	-1
	.section	.text,"xr",one_only,_ZN4core3ops8function6FnOnce40call_once$u7b$$u7b$vtable.shim$u7d$$u7d$17h4f1ce1ea97f4abdcE

	.def	_ZN4core3ops8function6FnOnce40call_once$u7b$$u7b$vtable.shim$u7d$$u7d$17h5aa094463e14808bE;
	.scl	3;
	.type	32;
	.endef
	.section	.text,"xr",one_only,_ZN4core3ops8function6FnOnce40call_once$u7b$$u7b$vtable.shim$u7d$$u7d$17h5aa094463e14808bE
	.p2align	4, 0x90
_ZN4core3ops8function6FnOnce40call_once$u7b$$u7b$vtable.shim$u7d$$u7d$17h5aa094463e14808bE:
.seh_proc _ZN4core3ops8function6FnOnce40call_once$u7b$$u7b$vtable.shim$u7d$$u7d$17h5aa094463e14808bE
	subq	$40, %rsp
	.seh_stackalloc 40
	.seh_endprologue
	movq	(%rcx), %rax
	movq	%rax, 32(%rsp)
	leaq	32(%rsp), %rcx
	callq	_ZN3std4sync4once4Once9call_once28_$u7b$$u7b$closure$u7d$$u7d$17h541a64c2a579f898E
	nop
	addq	$40, %rsp
	retq
	.seh_endproc

	.def	_ZN4core3ops8function6FnOnce40call_once$u7b$$u7b$vtable.shim$u7d$$u7d$17h8356ecbe7e6e7378E;
	.scl	3;
	.type	32;
	.endef
	.section	.text,"xr",one_only,_ZN4core3ops8function6FnOnce40call_once$u7b$$u7b$vtable.shim$u7d$$u7d$17h8356ecbe7e6e7378E
	.p2align	4, 0x90
_ZN4core3ops8function6FnOnce40call_once$u7b$$u7b$vtable.shim$u7d$$u7d$17h8356ecbe7e6e7378E:
.Lfunc_begin4:
.seh_proc _ZN4core3ops8function6FnOnce40call_once$u7b$$u7b$vtable.shim$u7d$$u7d$17h8356ecbe7e6e7378E
	.seh_handler __CxxFrameHandler3, @unwind, @except
	pushq	%rbp
	.seh_pushreg %rbp
	subq	$144, %rsp
	.seh_stackalloc 144
	leaq	128(%rsp), %rbp
	.seh_setframe %rbp, 128
	.seh_endprologue
	movq	$-2, 8(%rbp)
	movq	(%rcx), %rcx
	callq	_ZN3std10sys_common9backtrace28__rust_begin_short_backtrace17h4ac9774b815ef76cE
	testq	%rax, %rax
	je	.LBB17_1
	movq	%rax, -8(%rbp)
	movq	%rdx, (%rbp)
	leaq	-8(%rbp), %rax
	movq	%rax, -40(%rbp)
	leaq	_ZN67_$LT$alloc..boxed..Box$LT$T$C$A$GT$$u20$as$u20$core..fmt..Debug$GT$3fmt17h5fcd333b3f99f838E(%rip), %rax
	movq	%rax, -32(%rbp)
	leaq	__unnamed_2(%rip), %rax
	movq	%rax, -88(%rbp)
	movq	$2, -80(%rbp)
	movq	$0, -56(%rbp)
	leaq	-40(%rbp), %rax
	movq	%rax, -72(%rbp)
	movq	$1, -64(%rbp)
.Ltmp10:
	leaq	-88(%rbp), %rcx
	callq	_ZN3std2io5stdio23attempt_print_to_stderr17h2f0e04db2ab82dcaE
.Ltmp11:
	movq	-8(%rbp), %rcx
	movq	(%rbp), %rax
.Ltmp12:
	movq	%rcx, -16(%rbp)
	movq	%rax, -24(%rbp)
	callq	*(%rax)
.Ltmp13:
	movq	-24(%rbp), %rax
	movq	8(%rax), %rdx
	testq	%rdx, %rdx
	je	.LBB17_7
	movq	16(%rax), %r8
	movq	-16(%rbp), %rcx
	callq	__rust_dealloc
.LBB17_7:
	movl	$1, %eax
	addq	$144, %rsp
	popq	%rbp
	retq
.LBB17_1:
	xorl	%eax, %eax
	addq	$144, %rsp
	popq	%rbp
	retq
	.seh_handlerdata
	.long	($cppxdata$_ZN4core3ops8function6FnOnce40call_once$u7b$$u7b$vtable.shim$u7d$$u7d$17h8356ecbe7e6e7378E)@IMGREL
	.section	.text,"xr",one_only,_ZN4core3ops8function6FnOnce40call_once$u7b$$u7b$vtable.shim$u7d$$u7d$17h8356ecbe7e6e7378E
	.seh_endproc
	.def	"?dtor$2@?0?_ZN4core3ops8function6FnOnce40call_once$u7b$$u7b$vtable.shim$u7d$$u7d$17h8356ecbe7e6e7378E@4HA";
	.scl	3;
	.type	32;
	.endef
	.p2align	4, 0x90
"?dtor$2@?0?_ZN4core3ops8function6FnOnce40call_once$u7b$$u7b$vtable.shim$u7d$$u7d$17h8356ecbe7e6e7378E@4HA":
.seh_proc "?dtor$2@?0?_ZN4core3ops8function6FnOnce40call_once$u7b$$u7b$vtable.shim$u7d$$u7d$17h8356ecbe7e6e7378E@4HA"
.LBB17_2:
	movq	%rdx, 16(%rsp)
	pushq	%rbp
	.seh_pushreg %rbp
	subq	$32, %rsp
	.seh_stackalloc 32
	leaq	128(%rdx), %rbp
	.seh_endprologue
	movq	-8(%rbp), %rcx
	movq	(%rbp), %rdx
	callq	_ZN4core3ptr72drop_in_place$LT$alloc..boxed..Box$LT$dyn$u20$core..error..Error$GT$$GT$17hc9c24300310c084aE
	nop
	addq	$32, %rsp
	popq	%rbp
	retq
	.seh_handlerdata
	.section	.text,"xr",one_only,_ZN4core3ops8function6FnOnce40call_once$u7b$$u7b$vtable.shim$u7d$$u7d$17h8356ecbe7e6e7378E
	.seh_endproc
	.def	"?dtor$9@?0?_ZN4core3ops8function6FnOnce40call_once$u7b$$u7b$vtable.shim$u7d$$u7d$17h8356ecbe7e6e7378E@4HA";
	.scl	3;
	.type	32;
	.endef
	.p2align	4, 0x90
"?dtor$9@?0?_ZN4core3ops8function6FnOnce40call_once$u7b$$u7b$vtable.shim$u7d$$u7d$17h8356ecbe7e6e7378E@4HA":
.seh_proc "?dtor$9@?0?_ZN4core3ops8function6FnOnce40call_once$u7b$$u7b$vtable.shim$u7d$$u7d$17h8356ecbe7e6e7378E@4HA"
.LBB17_9:
	movq	%rdx, 16(%rsp)
	pushq	%rbp
	.seh_pushreg %rbp
	subq	$32, %rsp
	.seh_stackalloc 32
	leaq	128(%rdx), %rbp
	.seh_endprologue
	movq	-16(%rbp), %rcx
	movq	-24(%rbp), %rdx
	callq	_ZN72_$LT$alloc..boxed..Box$LT$T$C$A$GT$$u20$as$u20$core..ops..drop..Drop$GT$4drop17h4e15c87e5099ad14E
	nop
	addq	$32, %rsp
	popq	%rbp
	retq
.Lfunc_end4:
	.seh_handlerdata
	.section	.text,"xr",one_only,_ZN4core3ops8function6FnOnce40call_once$u7b$$u7b$vtable.shim$u7d$$u7d$17h8356ecbe7e6e7378E
	.seh_endproc
	.section	.xdata,"dr",associative,_ZN4core3ops8function6FnOnce40call_once$u7b$$u7b$vtable.shim$u7d$$u7d$17h8356ecbe7e6e7378E
	.p2align	2, 0x0
$cppxdata$_ZN4core3ops8function6FnOnce40call_once$u7b$$u7b$vtable.shim$u7d$$u7d$17h8356ecbe7e6e7378E:
	.long	429065506
	.long	2
	.long	($stateUnwindMap$_ZN4core3ops8function6FnOnce40call_once$u7b$$u7b$vtable.shim$u7d$$u7d$17h8356ecbe7e6e7378E)@IMGREL
	.long	0
	.long	0
	.long	4
	.long	($ip2state$_ZN4core3ops8function6FnOnce40call_once$u7b$$u7b$vtable.shim$u7d$$u7d$17h8356ecbe7e6e7378E)@IMGREL
	.long	136
	.long	0
	.long	1
$stateUnwindMap$_ZN4core3ops8function6FnOnce40call_once$u7b$$u7b$vtable.shim$u7d$$u7d$17h8356ecbe7e6e7378E:
	.long	-1
	.long	"?dtor$2@?0?_ZN4core3ops8function6FnOnce40call_once$u7b$$u7b$vtable.shim$u7d$$u7d$17h8356ecbe7e6e7378E@4HA"@IMGREL
	.long	-1
	.long	"?dtor$9@?0?_ZN4core3ops8function6FnOnce40call_once$u7b$$u7b$vtable.shim$u7d$$u7d$17h8356ecbe7e6e7378E@4HA"@IMGREL
$ip2state$_ZN4core3ops8function6FnOnce40call_once$u7b$$u7b$vtable.shim$u7d$$u7d$17h8356ecbe7e6e7378E:
	.long	.Lfunc_begin4@IMGREL
	.long	-1
	.long	.Ltmp10@IMGREL+1
	.long	0
	.long	.Ltmp12@IMGREL+1
	.long	1
	.long	.Ltmp13@IMGREL+1
	.long	-1
	.section	.text,"xr",one_only,_ZN4core3ops8function6FnOnce40call_once$u7b$$u7b$vtable.shim$u7d$$u7d$17h8356ecbe7e6e7378E

	.def	_ZN4core3ops8function6FnOnce9call_once17h84f96dd283ad7361E;
	.scl	3;
	.type	32;
	.endef
	.section	.text,"xr",one_only,_ZN4core3ops8function6FnOnce9call_once17h84f96dd283ad7361E
	.p2align	4, 0x90
_ZN4core3ops8function6FnOnce9call_once17h84f96dd283ad7361E:
.Lfunc_begin5:
.seh_proc _ZN4core3ops8function6FnOnce9call_once17h84f96dd283ad7361E
	.seh_handler __CxxFrameHandler3, @unwind, @except
	pushq	%rbp
	.seh_pushreg %rbp
	pushq	%rsi
	.seh_pushreg %rsi
	pushq	%rdi
	.seh_pushreg %rdi
	subq	$400, %rsp
	.seh_stackalloc 400
	leaq	128(%rsp), %rbp
	.seh_setframe %rbp, 128
	movaps	%xmm6, 256(%rbp)
	.seh_savexmm %xmm6, 384
	.seh_endprologue
	movq	$-2, 248(%rbp)
	movq	%rcx, %rsi
	callq	_ZN3std11collections4hash3map11RandomState3new4KEYS7__getit33__KEY$u7b$$u7b$tls.shim$u7d$$u7d$17h6f125bb9bc557efaE
	cmpq	$0, (%rax)
	je	.LBB18_2
	addq	$8, %rax
	jmp	.LBB18_3
.LBB18_2:
	movq	%rax, %rcx
	xorl	%edx, %edx
	callq	_ZN3std3sys6common12thread_local10fast_local12Key$LT$T$GT$14try_initialize17he3462f2c002f6c27E
.LBB18_3:
	leaq	__unnamed_3(%rip), %rdi
	movq	%rdi, 152(%rbp)
	xorps	%xmm6, %xmm6
	movups	%xmm6, 160(%rbp)
	movq	$0, 176(%rbp)
	movups	(%rax), %xmm0
	incq	(%rax)
	movups	%xmm0, 184(%rbp)
	callq	_ZN3std11collections4hash3map11RandomState3new4KEYS7__getit33__KEY$u7b$$u7b$tls.shim$u7d$$u7d$17h6f125bb9bc557efaE
	cmpq	$0, (%rax)
	je	.LBB18_5
	addq	$8, %rax
	jmp	.LBB18_6
.LBB18_5:
.Ltmp14:
	movq	%rax, %rcx
	xorl	%edx, %edx
	callq	_ZN3std3sys6common12thread_local10fast_local12Key$LT$T$GT$14try_initialize17he3462f2c002f6c27E
.Ltmp15:
.LBB18_6:
	movq	%rdi, 104(%rbp)
	movups	%xmm6, 112(%rbp)
	movq	$0, 128(%rbp)
	movups	(%rax), %xmm0
	incq	(%rax)
	movups	%xmm0, 136(%rbp)
	callq	_ZN3std11collections4hash3map11RandomState3new4KEYS7__getit33__KEY$u7b$$u7b$tls.shim$u7d$$u7d$17h6f125bb9bc557efaE
	cmpq	$0, (%rax)
	je	.LBB18_8
	addq	$8, %rax
	jmp	.LBB18_9
.LBB18_8:
.Ltmp16:
	movq	%rax, %rcx
	xorl	%edx, %edx
	callq	_ZN3std3sys6common12thread_local10fast_local12Key$LT$T$GT$14try_initialize17he3462f2c002f6c27E
.Ltmp17:
.LBB18_9:
	movq	%rdi, 200(%rbp)
	xorps	%xmm0, %xmm0
	movups	%xmm0, 208(%rbp)
	movq	$0, 224(%rbp)
	movups	(%rax), %xmm0
	incq	(%rax)
	movups	%xmm0, 232(%rbp)
	callq	_ZN3std11collections4hash3map11RandomState3new4KEYS7__getit33__KEY$u7b$$u7b$tls.shim$u7d$$u7d$17h6f125bb9bc557efaE
	cmpq	$0, (%rax)
	je	.LBB18_11
	addq	$8, %rax
	jmp	.LBB18_12
.LBB18_11:
.Ltmp18:
	movq	%rax, %rcx
	xorl	%edx, %edx
	callq	_ZN3std3sys6common12thread_local10fast_local12Key$LT$T$GT$14try_initialize17he3462f2c002f6c27E
.Ltmp19:
.LBB18_12:
	movups	(%rax), %xmm6
	incq	(%rax)
.Ltmp20:
	leaq	-96(%rbp), %rcx
	movl	$1, %edx
	callq	_ZN5tokio4sync15batch_semaphore9Semaphore3new17h85991d63701db81bE
.Ltmp21:
	movq	-64(%rbp), %rax
	movq	%rax, 96(%rbp)
	movups	-96(%rbp), %xmm0
	movups	-80(%rbp), %xmm1
	movaps	%xmm1, 80(%rbp)
	movaps	%xmm0, 64(%rbp)
	movzbl	__rust_no_alloc_shim_is_unstable(%rip), %eax
	movl	$104, %ecx
	movl	$8, %edx
	callq	__rust_alloc
	testq	%rax, %rax
	je	.LBB18_14
	movq	$1, (%rax)
	movq	$1, 8(%rax)
	movaps	64(%rbp), %xmm0
	movaps	80(%rbp), %xmm1
	movups	%xmm0, 16(%rax)
	movups	%xmm1, 32(%rax)
	movq	96(%rbp), %rcx
	movq	%rcx, 48(%rax)
	movq	%rdi, 56(%rax)
	xorps	%xmm0, %xmm0
	movups	%xmm0, 64(%rax)
	movq	$0, 80(%rax)
	movups	%xmm6, 88(%rax)
	movups	152(%rbp), %xmm0
	movups	168(%rbp), %xmm1
	movups	184(%rbp), %xmm2
	movaps	%xmm0, -96(%rbp)
	movaps	%xmm1, -80(%rbp)
	movaps	%xmm2, -64(%rbp)
	movups	104(%rbp), %xmm0
	movups	120(%rbp), %xmm1
	movups	136(%rbp), %xmm2
	movaps	%xmm0, -48(%rbp)
	movaps	%xmm1, -32(%rbp)
	movaps	%xmm2, -16(%rbp)
	movups	200(%rbp), %xmm0
	movups	216(%rbp), %xmm1
	movups	232(%rbp), %xmm2
	movaps	%xmm0, (%rbp)
	movaps	%xmm1, 16(%rbp)
	movaps	%xmm2, 32(%rbp)
	movq	%rax, 48(%rbp)
.Ltmp22:
	leaq	200(%rbp), %rcx
	movl	$1, %edx
	callq	_ZN5tokio4sync15batch_semaphore9Semaphore3new17h85991d63701db81bE
.Ltmp23:
	leaq	40(%rsi), %rcx
	leaq	-96(%rbp), %rdx
	movl	$152, %r8d
	callq	memcpy
	movups	200(%rbp), %xmm0
	movups	216(%rbp), %xmm1
	movups	%xmm0, (%rsi)
	movups	%xmm1, 16(%rsi)
	movq	232(%rbp), %rax
	movq	%rax, 32(%rsi)
	movq	%rsi, %rax
	movaps	256(%rbp), %xmm6
	addq	$400, %rsp
	popq	%rdi
	popq	%rsi
	popq	%rbp
	retq
.LBB18_14:
.Ltmp24:
	movl	$8, %ecx
	movl	$104, %edx
	callq	_ZN5alloc5alloc18handle_alloc_error17h927b635898ac75a1E
.Ltmp25:
	ud2
	.seh_handlerdata
	.long	($cppxdata$_ZN4core3ops8function6FnOnce9call_once17h84f96dd283ad7361E)@IMGREL
	.section	.text,"xr",one_only,_ZN4core3ops8function6FnOnce9call_once17h84f96dd283ad7361E
	.seh_endproc
	.def	"?dtor$16@?0?_ZN4core3ops8function6FnOnce9call_once17h84f96dd283ad7361E@4HA";
	.scl	3;
	.type	32;
	.endef
	.p2align	4, 0x90
"?dtor$16@?0?_ZN4core3ops8function6FnOnce9call_once17h84f96dd283ad7361E@4HA":
.seh_proc "?dtor$16@?0?_ZN4core3ops8function6FnOnce9call_once17h84f96dd283ad7361E@4HA"
.LBB18_16:
	movq	%rdx, 16(%rsp)
	pushq	%rbp
	.seh_pushreg %rbp
	pushq	%rsi
	.seh_pushreg %rsi
	pushq	%rdi
	.seh_pushreg %rdi
	subq	$48, %rsp
	.seh_stackalloc 48
	leaq	128(%rdx), %rbp
	movaps	%xmm6, 32(%rsp)
	.seh_savexmm %xmm6, 32
	.seh_endprologue
	leaq	__unnamed_3(%rip), %rcx
	xorl	%edx, %edx
	callq	_ZN4core3ptr101drop_in_place$LT$std..collections..hash..map..HashMap$LT$i64$C$reach_server..enums..C2SPacket$GT$$GT$17hcb4e7d7192c6ef91E
	movaps	32(%rsp), %xmm6
	addq	$48, %rsp
	popq	%rdi
	popq	%rsi
	popq	%rbp
	retq
	.seh_handlerdata
	.section	.text,"xr",one_only,_ZN4core3ops8function6FnOnce9call_once17h84f96dd283ad7361E
	.seh_endproc
	.def	"?dtor$17@?0?_ZN4core3ops8function6FnOnce9call_once17h84f96dd283ad7361E@4HA";
	.scl	3;
	.type	32;
	.endef
	.p2align	4, 0x90
"?dtor$17@?0?_ZN4core3ops8function6FnOnce9call_once17h84f96dd283ad7361E@4HA":
.seh_proc "?dtor$17@?0?_ZN4core3ops8function6FnOnce9call_once17h84f96dd283ad7361E@4HA"
.LBB18_17:
	movq	%rdx, 16(%rsp)
	pushq	%rbp
	.seh_pushreg %rbp
	pushq	%rsi
	.seh_pushreg %rsi
	pushq	%rdi
	.seh_pushreg %rdi
	subq	$48, %rsp
	.seh_stackalloc 48
	leaq	128(%rdx), %rbp
	movaps	%xmm6, 32(%rsp)
	.seh_savexmm %xmm6, 32
	.seh_endprologue
	leaq	-96(%rbp), %rcx
	callq	_ZN4core3ptr49drop_in_place$LT$reach_server..server..Server$GT$17h8b2643df58c07a82E
	movaps	32(%rsp), %xmm6
	addq	$48, %rsp
	popq	%rdi
	popq	%rsi
	popq	%rbp
	retq
	.seh_handlerdata
	.section	.text,"xr",one_only,_ZN4core3ops8function6FnOnce9call_once17h84f96dd283ad7361E
	.seh_endproc
	.def	"?dtor$20@?0?_ZN4core3ops8function6FnOnce9call_once17h84f96dd283ad7361E@4HA";
	.scl	3;
	.type	32;
	.endef
	.p2align	4, 0x90
"?dtor$20@?0?_ZN4core3ops8function6FnOnce9call_once17h84f96dd283ad7361E@4HA":
.seh_proc "?dtor$20@?0?_ZN4core3ops8function6FnOnce9call_once17h84f96dd283ad7361E@4HA"
.LBB18_20:
	movq	%rdx, 16(%rsp)
	pushq	%rbp
	.seh_pushreg %rbp
	pushq	%rsi
	.seh_pushreg %rsi
	pushq	%rdi
	.seh_pushreg %rdi
	subq	$48, %rsp
	.seh_stackalloc 48
	leaq	128(%rdx), %rbp
	movaps	%xmm6, 32(%rsp)
	.seh_savexmm %xmm6, 32
	.seh_endprologue
	leaq	152(%rbp), %rcx
	callq	_ZN4core3ptr156drop_in_place$LT$std..collections..hash..map..HashMap$LT$i64$C$alloc..sync..Arc$LT$tokio..sync..mutex..Mutex$LT$reach_server..client..Client$GT$$GT$$GT$$GT$17hd9a2c71cca660b0aE
	movaps	32(%rsp), %xmm6
	addq	$48, %rsp
	popq	%rdi
	popq	%rsi
	popq	%rbp
	retq
	.seh_handlerdata
	.section	.text,"xr",one_only,_ZN4core3ops8function6FnOnce9call_once17h84f96dd283ad7361E
	.seh_endproc
	.def	"?dtor$21@?0?_ZN4core3ops8function6FnOnce9call_once17h84f96dd283ad7361E@4HA";
	.scl	3;
	.type	32;
	.endef
	.p2align	4, 0x90
"?dtor$21@?0?_ZN4core3ops8function6FnOnce9call_once17h84f96dd283ad7361E@4HA":
.seh_proc "?dtor$21@?0?_ZN4core3ops8function6FnOnce9call_once17h84f96dd283ad7361E@4HA"
.LBB18_21:
	movq	%rdx, 16(%rsp)
	pushq	%rbp
	.seh_pushreg %rbp
	pushq	%rsi
	.seh_pushreg %rsi
	pushq	%rdi
	.seh_pushreg %rdi
	subq	$48, %rsp
	.seh_stackalloc 48
	leaq	128(%rdx), %rbp
	movaps	%xmm6, 32(%rsp)
	.seh_savexmm %xmm6, 32
	.seh_endprologue
	leaq	104(%rbp), %rcx
	callq	_ZN4core3ptr203drop_in_place$LT$std..collections..hash..map..HashMap$LT$i64$C$alloc..sync..Arc$LT$tokio..sync..mutex..Mutex$LT$tokio..sync..mpsc..bounded..Receiver$LT$reach_server..enums..S2CCommand$GT$$GT$$GT$$GT$$GT$17h78e6eada1683c245E
	movaps	32(%rsp), %xmm6
	addq	$48, %rsp
	popq	%rdi
	popq	%rsi
	popq	%rbp
	retq
	.seh_handlerdata
	.section	.text,"xr",one_only,_ZN4core3ops8function6FnOnce9call_once17h84f96dd283ad7361E
	.seh_endproc
	.def	"?dtor$22@?0?_ZN4core3ops8function6FnOnce9call_once17h84f96dd283ad7361E@4HA";
	.scl	3;
	.type	32;
	.endef
	.p2align	4, 0x90
"?dtor$22@?0?_ZN4core3ops8function6FnOnce9call_once17h84f96dd283ad7361E@4HA":
.seh_proc "?dtor$22@?0?_ZN4core3ops8function6FnOnce9call_once17h84f96dd283ad7361E@4HA"
.LBB18_22:
	movq	%rdx, 16(%rsp)
	pushq	%rbp
	.seh_pushreg %rbp
	pushq	%rsi
	.seh_pushreg %rsi
	pushq	%rdi
	.seh_pushreg %rdi
	subq	$48, %rsp
	.seh_stackalloc 48
	leaq	128(%rdx), %rbp
	movaps	%xmm6, 32(%rsp)
	.seh_savexmm %xmm6, 32
	.seh_endprologue
	leaq	200(%rbp), %rcx
	callq	_ZN4core3ptr201drop_in_place$LT$std..collections..hash..map..HashMap$LT$i64$C$alloc..sync..Arc$LT$tokio..sync..mutex..Mutex$LT$tokio..sync..mpsc..bounded..Sender$LT$reach_server..enums..C2SCommand$GT$$GT$$GT$$GT$$GT$17h46f614c9c0983ca8E
	movaps	32(%rsp), %xmm6
	addq	$48, %rsp
	popq	%rdi
	popq	%rsi
	popq	%rbp
	retq
	.seh_handlerdata
	.section	.text,"xr",one_only,_ZN4core3ops8function6FnOnce9call_once17h84f96dd283ad7361E
	.seh_endproc
	.def	"?dtor$23@?0?_ZN4core3ops8function6FnOnce9call_once17h84f96dd283ad7361E@4HA";
	.scl	3;
	.type	32;
	.endef
	.p2align	4, 0x90
"?dtor$23@?0?_ZN4core3ops8function6FnOnce9call_once17h84f96dd283ad7361E@4HA":
.seh_proc "?dtor$23@?0?_ZN4core3ops8function6FnOnce9call_once17h84f96dd283ad7361E@4HA"
.LBB18_23:
	movq	%rdx, 16(%rsp)
	pushq	%rbp
	.seh_pushreg %rbp
	pushq	%rsi
	.seh_pushreg %rsi
	pushq	%rdi
	.seh_pushreg %rdi
	subq	$48, %rsp
	.seh_stackalloc 48
	leaq	128(%rdx), %rbp
	movaps	%xmm6, 32(%rsp)
	.seh_savexmm %xmm6, 32
	.seh_endprologue
	leaq	__unnamed_3(%rip), %rcx
	xorl	%edx, %edx
	callq	_ZN4core3ptr101drop_in_place$LT$std..collections..hash..map..HashMap$LT$i64$C$reach_server..enums..C2SPacket$GT$$GT$17hcb4e7d7192c6ef91E
	movaps	32(%rsp), %xmm6
	addq	$48, %rsp
	popq	%rdi
	popq	%rsi
	popq	%rbp
	retq
.Lfunc_end5:
	.seh_handlerdata
	.section	.text,"xr",one_only,_ZN4core3ops8function6FnOnce9call_once17h84f96dd283ad7361E
	.seh_endproc
	.section	.xdata,"dr",associative,_ZN4core3ops8function6FnOnce9call_once17h84f96dd283ad7361E
	.p2align	2, 0x0
$cppxdata$_ZN4core3ops8function6FnOnce9call_once17h84f96dd283ad7361E:
	.long	429065506
	.long	6
	.long	($stateUnwindMap$_ZN4core3ops8function6FnOnce9call_once17h84f96dd283ad7361E)@IMGREL
	.long	0
	.long	0
	.long	9
	.long	($ip2state$_ZN4core3ops8function6FnOnce9call_once17h84f96dd283ad7361E)@IMGREL
	.long	376
	.long	0
	.long	1
$stateUnwindMap$_ZN4core3ops8function6FnOnce9call_once17h84f96dd283ad7361E:
	.long	-1
	.long	"?dtor$20@?0?_ZN4core3ops8function6FnOnce9call_once17h84f96dd283ad7361E@4HA"@IMGREL
	.long	0
	.long	"?dtor$21@?0?_ZN4core3ops8function6FnOnce9call_once17h84f96dd283ad7361E@4HA"@IMGREL
	.long	1
	.long	"?dtor$22@?0?_ZN4core3ops8function6FnOnce9call_once17h84f96dd283ad7361E@4HA"@IMGREL
	.long	2
	.long	"?dtor$16@?0?_ZN4core3ops8function6FnOnce9call_once17h84f96dd283ad7361E@4HA"@IMGREL
	.long	2
	.long	"?dtor$23@?0?_ZN4core3ops8function6FnOnce9call_once17h84f96dd283ad7361E@4HA"@IMGREL
	.long	-1
	.long	"?dtor$17@?0?_ZN4core3ops8function6FnOnce9call_once17h84f96dd283ad7361E@4HA"@IMGREL
$ip2state$_ZN4core3ops8function6FnOnce9call_once17h84f96dd283ad7361E:
	.long	.Lfunc_begin5@IMGREL
	.long	-1
	.long	.Ltmp14@IMGREL+1
	.long	0
	.long	.Ltmp16@IMGREL+1
	.long	1
	.long	.Ltmp18@IMGREL+1
	.long	2
	.long	.Ltmp20@IMGREL+1
	.long	4
	.long	.Ltmp22@IMGREL+1
	.long	5
	.long	.Ltmp23@IMGREL+1
	.long	-1
	.long	.Ltmp24@IMGREL+1
	.long	3
	.long	.Ltmp25@IMGREL+1
	.long	-1
	.section	.text,"xr",one_only,_ZN4core3ops8function6FnOnce9call_once17h84f96dd283ad7361E

	.def	_ZN4core3ptr100drop_in_place$LT$alloc..boxed..Box$LT$$u5b$tokio..runtime..metrics..mock..WorkerMetrics$u5d$$GT$$GT$17h29001fd0be8000ffE;
	.scl	3;
	.type	32;
	.endef
	.section	.text,"xr",one_only,_ZN4core3ptr100drop_in_place$LT$alloc..boxed..Box$LT$$u5b$tokio..runtime..metrics..mock..WorkerMetrics$u5d$$GT$$GT$17h29001fd0be8000ffE
	.p2align	4, 0x90
_ZN4core3ptr100drop_in_place$LT$alloc..boxed..Box$LT$$u5b$tokio..runtime..metrics..mock..WorkerMetrics$u5d$$GT$$GT$17h29001fd0be8000ffE:
	retq

	.def	_ZN4core3ptr100drop_in_place$LT$alloc..sync..Arc$LT$tokio..runtime..scheduler..multi_thread..handle..Handle$GT$$GT$17hc3fc2452a1751b0dE;
	.scl	3;
	.type	32;
	.endef
	.section	.text,"xr",one_only,_ZN4core3ptr100drop_in_place$LT$alloc..sync..Arc$LT$tokio..runtime..scheduler..multi_thread..handle..Handle$GT$$GT$17hc3fc2452a1751b0dE
	.p2align	4, 0x90
_ZN4core3ptr100drop_in_place$LT$alloc..sync..Arc$LT$tokio..runtime..scheduler..multi_thread..handle..Handle$GT$$GT$17hc3fc2452a1751b0dE:
	lock		decq	(%rcx)
	jne	.LBB20_1
	#MEMBARRIER
	jmp	_ZN5alloc4sync12Arc$LT$T$GT$9drop_slow17h8af667408f6c9813E
.LBB20_1:
	retq

	.def	_ZN4core3ptr101drop_in_place$LT$std..collections..hash..map..HashMap$LT$i64$C$reach_server..enums..C2SPacket$GT$$GT$17hcb4e7d7192c6ef91E;
	.scl	3;
	.type	32;
	.endef
	.section	.text,"xr",one_only,_ZN4core3ptr101drop_in_place$LT$std..collections..hash..map..HashMap$LT$i64$C$reach_server..enums..C2SPacket$GT$$GT$17hcb4e7d7192c6ef91E
	.p2align	4, 0x90
_ZN4core3ptr101drop_in_place$LT$std..collections..hash..map..HashMap$LT$i64$C$reach_server..enums..C2SPacket$GT$$GT$17hcb4e7d7192c6ef91E:
	testq	%rdx, %rdx
	je	.LBB21_2
	leaq	23(,%rdx,8), %rax
	andq	$-16, %rax
	addq	%rax, %rdx
	addq	$17, %rdx
	je	.LBB21_2
	subq	%rax, %rcx
	movl	$16, %r8d
	jmp	__rust_dealloc
.LBB21_2:
	retq

	.def	_ZN4core3ptr102drop_in_place$LT$alloc..raw_vec..RawVec$LT$alloc..sync..Arc$LT$mio..sys..windows..afd..Afd$GT$$GT$$GT$17h2db11902b11b1e0bE;
	.scl	3;
	.type	32;
	.endef
	.section	.text,"xr",one_only,_ZN4core3ptr102drop_in_place$LT$alloc..raw_vec..RawVec$LT$alloc..sync..Arc$LT$mio..sys..windows..afd..Afd$GT$$GT$$GT$17h2db11902b11b1e0bE
	.p2align	4, 0x90
_ZN4core3ptr102drop_in_place$LT$alloc..raw_vec..RawVec$LT$alloc..sync..Arc$LT$mio..sys..windows..afd..Afd$GT$$GT$$GT$17h2db11902b11b1e0bE:
	testq	%rdx, %rdx
	je	.LBB22_1
	shlq	$3, %rdx
	movl	$8, %r8d
	jmp	__rust_dealloc
.LBB22_1:
	retq

	.def	_ZN4core3ptr102drop_in_place$LT$core..option..Option$LT$tokio..runtime..scheduler..multi_thread..park..Parker$GT$$GT$17hd749db671ecd2014E;
	.scl	3;
	.type	32;
	.endef
	.section	.text,"xr",one_only,_ZN4core3ptr102drop_in_place$LT$core..option..Option$LT$tokio..runtime..scheduler..multi_thread..park..Parker$GT$$GT$17hd749db671ecd2014E
	.p2align	4, 0x90
_ZN4core3ptr102drop_in_place$LT$core..option..Option$LT$tokio..runtime..scheduler..multi_thread..park..Parker$GT$$GT$17hd749db671ecd2014E:
	testq	%rcx, %rcx
	je	.LBB23_2
	lock		decq	(%rcx)
	jne	.LBB23_2
	#MEMBARRIER
	jmp	_ZN5alloc4sync12Arc$LT$T$GT$9drop_slow17h6e68fe58f7f27b37E
.LBB23_2:
	retq

	.def	_ZN4core3ptr103drop_in_place$LT$core..option..Option$LT$alloc..sync..Arc$LT$std..thread..scoped..ScopeData$GT$$GT$$GT$17h43aaeb24843637e0E;
	.scl	3;
	.type	32;
	.endef
	.section	.text,"xr",one_only,_ZN4core3ptr103drop_in_place$LT$core..option..Option$LT$alloc..sync..Arc$LT$std..thread..scoped..ScopeData$GT$$GT$$GT$17h43aaeb24843637e0E
	.p2align	4, 0x90
_ZN4core3ptr103drop_in_place$LT$core..option..Option$LT$alloc..sync..Arc$LT$std..thread..scoped..ScopeData$GT$$GT$$GT$17h43aaeb24843637e0E:
	testq	%rcx, %rcx
	je	.LBB24_2
	lock		decq	(%rcx)
	jne	.LBB24_2
	#MEMBARRIER
	jmp	_ZN5alloc4sync12Arc$LT$T$GT$9drop_slow17hf5f14a139411a83eE
.LBB24_2:
	retq

	.def	_ZN4core3ptr105drop_in_place$LT$core..cell..Ref$LT$core..option..Option$LT$tokio..runtime..scheduler..Handle$GT$$GT$$GT$17h3ab45c79f46dd39eE;
	.scl	3;
	.type	32;
	.endef
	.section	.text,"xr",one_only,_ZN4core3ptr105drop_in_place$LT$core..cell..Ref$LT$core..option..Option$LT$tokio..runtime..scheduler..Handle$GT$$GT$$GT$17h3ab45c79f46dd39eE
	.p2align	4, 0x90
_ZN4core3ptr105drop_in_place$LT$core..cell..Ref$LT$core..option..Option$LT$tokio..runtime..scheduler..Handle$GT$$GT$$GT$17h3ab45c79f46dd39eE:
	decq	(%rcx)
	retq

	.def	_ZN4core3ptr106drop_in_place$LT$alloc..sync..Arc$LT$tokio..sync..mutex..Mutex$LT$reach_server..client..Client$GT$$GT$$GT$17h51e8f63e4e7c8dfdE;
	.scl	3;
	.type	32;
	.endef
	.section	.text,"xr",one_only,_ZN4core3ptr106drop_in_place$LT$alloc..sync..Arc$LT$tokio..sync..mutex..Mutex$LT$reach_server..client..Client$GT$$GT$$GT$17h51e8f63e4e7c8dfdE
	.p2align	4, 0x90
_ZN4core3ptr106drop_in_place$LT$alloc..sync..Arc$LT$tokio..sync..mutex..Mutex$LT$reach_server..client..Client$GT$$GT$$GT$17h51e8f63e4e7c8dfdE:
	lock		decq	(%rcx)
	jne	.LBB26_1
	#MEMBARRIER
	jmp	_ZN5alloc4sync12Arc$LT$T$GT$9drop_slow17h1c40f6cc03dff007E
.LBB26_1:
	retq

	.def	_ZN4core3ptr106drop_in_place$LT$tokio..loom..std..parking_lot..Mutex$LT$tokio..runtime..io..scheduled_io..Waiters$GT$$GT$17h2b043dd7f3db72d1E;
	.scl	3;
	.type	32;
	.endef
	.section	.text,"xr",one_only,_ZN4core3ptr106drop_in_place$LT$tokio..loom..std..parking_lot..Mutex$LT$tokio..runtime..io..scheduled_io..Waiters$GT$$GT$17h2b043dd7f3db72d1E
	.p2align	4, 0x90
_ZN4core3ptr106drop_in_place$LT$tokio..loom..std..parking_lot..Mutex$LT$tokio..runtime..io..scheduled_io..Waiters$GT$$GT$17h2b043dd7f3db72d1E:
.Lfunc_begin6:
.seh_proc _ZN4core3ptr106drop_in_place$LT$tokio..loom..std..parking_lot..Mutex$LT$tokio..runtime..io..scheduled_io..Waiters$GT$$GT$17h2b043dd7f3db72d1E
	.seh_handler __CxxFrameHandler3, @unwind, @except
	pushq	%rbp
	.seh_pushreg %rbp
	subq	$48, %rsp
	.seh_stackalloc 48
	leaq	48(%rsp), %rbp
	.seh_setframe %rbp, 48
	.seh_endprologue
	movq	$-2, -8(%rbp)
	movq	%rcx, -16(%rbp)
	movq	24(%rcx), %rax
	testq	%rax, %rax
	je	.LBB27_2
	movq	-16(%rbp), %rcx
	movq	32(%rcx), %rcx
.Ltmp26:
	callq	*24(%rax)
.Ltmp27:
.LBB27_2:
	movq	-16(%rbp), %rax
	movq	40(%rax), %rax
	testq	%rax, %rax
	je	.LBB27_3
	movq	-16(%rbp), %rcx
	movq	48(%rcx), %rcx
	addq	$48, %rsp
	popq	%rbp
	rex64 jmpq	*24(%rax)
.LBB27_3:
	nop
	addq	$48, %rsp
	popq	%rbp
	retq
	.seh_handlerdata
	.long	($cppxdata$_ZN4core3ptr106drop_in_place$LT$tokio..loom..std..parking_lot..Mutex$LT$tokio..runtime..io..scheduled_io..Waiters$GT$$GT$17h2b043dd7f3db72d1E)@IMGREL
	.section	.text,"xr",one_only,_ZN4core3ptr106drop_in_place$LT$tokio..loom..std..parking_lot..Mutex$LT$tokio..runtime..io..scheduled_io..Waiters$GT$$GT$17h2b043dd7f3db72d1E
	.seh_endproc
	.def	"?dtor$4@?0?_ZN4core3ptr106drop_in_place$LT$tokio..loom..std..parking_lot..Mutex$LT$tokio..runtime..io..scheduled_io..Waiters$GT$$GT$17h2b043dd7f3db72d1E@4HA";
	.scl	3;
	.type	32;
	.endef
	.p2align	4, 0x90
"?dtor$4@?0?_ZN4core3ptr106drop_in_place$LT$tokio..loom..std..parking_lot..Mutex$LT$tokio..runtime..io..scheduled_io..Waiters$GT$$GT$17h2b043dd7f3db72d1E@4HA":
.seh_proc "?dtor$4@?0?_ZN4core3ptr106drop_in_place$LT$tokio..loom..std..parking_lot..Mutex$LT$tokio..runtime..io..scheduled_io..Waiters$GT$$GT$17h2b043dd7f3db72d1E@4HA"
.LBB27_4:
	movq	%rdx, 16(%rsp)
	pushq	%rbp
	.seh_pushreg %rbp
	subq	$32, %rsp
	.seh_stackalloc 32
	leaq	48(%rdx), %rbp
	.seh_endprologue
	movq	-16(%rbp), %rax
	movq	40(%rax), %rcx
	movq	48(%rax), %rdx
	callq	_ZN4core3ptr108drop_in_place$LT$tokio..util..cacheline..CachePadded$LT$tokio..sync..task..atomic_waker..AtomicWaker$GT$$GT$17h55872739accc4d3bE
	nop
	addq	$32, %rsp
	popq	%rbp
	retq
.Lfunc_end6:
	.seh_handlerdata
	.section	.text,"xr",one_only,_ZN4core3ptr106drop_in_place$LT$tokio..loom..std..parking_lot..Mutex$LT$tokio..runtime..io..scheduled_io..Waiters$GT$$GT$17h2b043dd7f3db72d1E
	.seh_endproc
	.section	.xdata,"dr",associative,_ZN4core3ptr106drop_in_place$LT$tokio..loom..std..parking_lot..Mutex$LT$tokio..runtime..io..scheduled_io..Waiters$GT$$GT$17h2b043dd7f3db72d1E
	.p2align	2, 0x0
$cppxdata$_ZN4core3ptr106drop_in_place$LT$tokio..loom..std..parking_lot..Mutex$LT$tokio..runtime..io..scheduled_io..Waiters$GT$$GT$17h2b043dd7f3db72d1E:
	.long	429065506
	.long	1
	.long	($stateUnwindMap$_ZN4core3ptr106drop_in_place$LT$tokio..loom..std..parking_lot..Mutex$LT$tokio..runtime..io..scheduled_io..Waiters$GT$$GT$17h2b043dd7f3db72d1E)@IMGREL
	.long	0
	.long	0
	.long	3
	.long	($ip2state$_ZN4core3ptr106drop_in_place$LT$tokio..loom..std..parking_lot..Mutex$LT$tokio..runtime..io..scheduled_io..Waiters$GT$$GT$17h2b043dd7f3db72d1E)@IMGREL
	.long	40
	.long	0
	.long	1
$stateUnwindMap$_ZN4core3ptr106drop_in_place$LT$tokio..loom..std..parking_lot..Mutex$LT$tokio..runtime..io..scheduled_io..Waiters$GT$$GT$17h2b043dd7f3db72d1E:
	.long	-1
	.long	"?dtor$4@?0?_ZN4core3ptr106drop_in_place$LT$tokio..loom..std..parking_lot..Mutex$LT$tokio..runtime..io..scheduled_io..Waiters$GT$$GT$17h2b043dd7f3db72d1E@4HA"@IMGREL
$ip2state$_ZN4core3ptr106drop_in_place$LT$tokio..loom..std..parking_lot..Mutex$LT$tokio..runtime..io..scheduled_io..Waiters$GT$$GT$17h2b043dd7f3db72d1E:
	.long	.Lfunc_begin6@IMGREL
	.long	-1
	.long	.Ltmp26@IMGREL+1
	.long	0
	.long	.Ltmp27@IMGREL+1
	.long	-1
	.section	.text,"xr",one_only,_ZN4core3ptr106drop_in_place$LT$tokio..loom..std..parking_lot..Mutex$LT$tokio..runtime..io..scheduled_io..Waiters$GT$$GT$17h2b043dd7f3db72d1E

	.def	_ZN4core3ptr106drop_in_place$LT$tokio..runtime..io..scheduled_io..ScheduledIo..readiness..$u7b$$u7b$closure$u7d$$u7d$$GT$17h89e04470ffcb1655E;
	.scl	3;
	.type	32;
	.endef
	.section	.text,"xr",one_only,_ZN4core3ptr106drop_in_place$LT$tokio..runtime..io..scheduled_io..ScheduledIo..readiness..$u7b$$u7b$closure$u7d$$u7d$$GT$17h89e04470ffcb1655E
	.p2align	4, 0x90
_ZN4core3ptr106drop_in_place$LT$tokio..runtime..io..scheduled_io..ScheduledIo..readiness..$u7b$$u7b$closure$u7d$$u7d$$GT$17h89e04470ffcb1655E:
.Lfunc_begin7:
.seh_proc _ZN4core3ptr106drop_in_place$LT$tokio..runtime..io..scheduled_io..ScheduledIo..readiness..$u7b$$u7b$closure$u7d$$u7d$$GT$17h89e04470ffcb1655E
	.seh_handler __CxxFrameHandler3, @unwind, @except
	pushq	%rbp
	.seh_pushreg %rbp
	subq	$48, %rsp
	.seh_stackalloc 48
	leaq	48(%rsp), %rbp
	.seh_setframe %rbp, 48
	.seh_endprologue
	movq	$-2, -8(%rbp)
	cmpb	$3, 80(%rcx)
	jne	.LBB28_3
	movq	%rcx, -16(%rbp)
	addq	$16, %rcx
.Ltmp28:
	callq	_ZN85_$LT$tokio..runtime..io..scheduled_io..Readiness$u20$as$u20$core..ops..drop..Drop$GT$4drop17h7e2b698053fd5a97E
.Ltmp29:
	movq	-16(%rbp), %rcx
	movq	40(%rcx), %rax
	testq	%rax, %rax
	je	.LBB28_3
	movq	48(%rcx), %rcx
	addq	$48, %rsp
	popq	%rbp
	rex64 jmpq	*24(%rax)
.LBB28_3:
	nop
	addq	$48, %rsp
	popq	%rbp
	retq
	.seh_handlerdata
	.long	($cppxdata$_ZN4core3ptr106drop_in_place$LT$tokio..runtime..io..scheduled_io..ScheduledIo..readiness..$u7b$$u7b$closure$u7d$$u7d$$GT$17h89e04470ffcb1655E)@IMGREL
	.section	.text,"xr",one_only,_ZN4core3ptr106drop_in_place$LT$tokio..runtime..io..scheduled_io..ScheduledIo..readiness..$u7b$$u7b$closure$u7d$$u7d$$GT$17h89e04470ffcb1655E
	.seh_endproc
	.def	"?dtor$4@?0?_ZN4core3ptr106drop_in_place$LT$tokio..runtime..io..scheduled_io..ScheduledIo..readiness..$u7b$$u7b$closure$u7d$$u7d$$GT$17h89e04470ffcb1655E@4HA";
	.scl	3;
	.type	32;
	.endef
	.p2align	4, 0x90
"?dtor$4@?0?_ZN4core3ptr106drop_in_place$LT$tokio..runtime..io..scheduled_io..ScheduledIo..readiness..$u7b$$u7b$closure$u7d$$u7d$$GT$17h89e04470ffcb1655E@4HA":
.seh_proc "?dtor$4@?0?_ZN4core3ptr106drop_in_place$LT$tokio..runtime..io..scheduled_io..ScheduledIo..readiness..$u7b$$u7b$closure$u7d$$u7d$$GT$17h89e04470ffcb1655E@4HA"
.LBB28_4:
	movq	%rdx, 16(%rsp)
	pushq	%rbp
	.seh_pushreg %rbp
	subq	$32, %rsp
	.seh_stackalloc 32
	leaq	48(%rdx), %rbp
	.seh_endprologue
	movq	-16(%rbp), %rax
	movq	40(%rax), %rcx
	movq	48(%rax), %rdx
	callq	_ZN4core3ptr108drop_in_place$LT$tokio..util..cacheline..CachePadded$LT$tokio..sync..task..atomic_waker..AtomicWaker$GT$$GT$17h55872739accc4d3bE
	nop
	addq	$32, %rsp
	popq	%rbp
	retq
.Lfunc_end7:
	.seh_handlerdata
	.section	.text,"xr",one_only,_ZN4core3ptr106drop_in_place$LT$tokio..runtime..io..scheduled_io..ScheduledIo..readiness..$u7b$$u7b$closure$u7d$$u7d$$GT$17h89e04470ffcb1655E
	.seh_endproc
	.section	.xdata,"dr",associative,_ZN4core3ptr106drop_in_place$LT$tokio..runtime..io..scheduled_io..ScheduledIo..readiness..$u7b$$u7b$closure$u7d$$u7d$$GT$17h89e04470ffcb1655E
	.p2align	2, 0x0
$cppxdata$_ZN4core3ptr106drop_in_place$LT$tokio..runtime..io..scheduled_io..ScheduledIo..readiness..$u7b$$u7b$closure$u7d$$u7d$$GT$17h89e04470ffcb1655E:
	.long	429065506
	.long	1
	.long	($stateUnwindMap$_ZN4core3ptr106drop_in_place$LT$tokio..runtime..io..scheduled_io..ScheduledIo..readiness..$u7b$$u7b$closure$u7d$$u7d$$GT$17h89e04470ffcb1655E)@IMGREL
	.long	0
	.long	0
	.long	3
	.long	($ip2state$_ZN4core3ptr106drop_in_place$LT$tokio..runtime..io..scheduled_io..ScheduledIo..readiness..$u7b$$u7b$closure$u7d$$u7d$$GT$17h89e04470ffcb1655E)@IMGREL
	.long	40
	.long	0
	.long	1
$stateUnwindMap$_ZN4core3ptr106drop_in_place$LT$tokio..runtime..io..scheduled_io..ScheduledIo..readiness..$u7b$$u7b$closure$u7d$$u7d$$GT$17h89e04470ffcb1655E:
	.long	-1
	.long	"?dtor$4@?0?_ZN4core3ptr106drop_in_place$LT$tokio..runtime..io..scheduled_io..ScheduledIo..readiness..$u7b$$u7b$closure$u7d$$u7d$$GT$17h89e04470ffcb1655E@4HA"@IMGREL
$ip2state$_ZN4core3ptr106drop_in_place$LT$tokio..runtime..io..scheduled_io..ScheduledIo..readiness..$u7b$$u7b$closure$u7d$$u7d$$GT$17h89e04470ffcb1655E:
	.long	.Lfunc_begin7@IMGREL
	.long	-1
	.long	.Ltmp28@IMGREL+1
	.long	0
	.long	.Ltmp29@IMGREL+1
	.long	-1
	.section	.text,"xr",one_only,_ZN4core3ptr106drop_in_place$LT$tokio..runtime..io..scheduled_io..ScheduledIo..readiness..$u7b$$u7b$closure$u7d$$u7d$$GT$17h89e04470ffcb1655E

	.def	_ZN4core3ptr107drop_in_place$LT$$RF$mut$u20$std..io..Write..write_fmt..Adapter$LT$std..sys..windows..stdio..Stderr$GT$$GT$17h1f5cb805c2a2cc04E;
	.scl	3;
	.type	32;
	.endef
	.section	.text,"xr",one_only,_ZN4core3ptr107drop_in_place$LT$$RF$mut$u20$std..io..Write..write_fmt..Adapter$LT$std..sys..windows..stdio..Stderr$GT$$GT$17h1f5cb805c2a2cc04E
	.p2align	4, 0x90
_ZN4core3ptr107drop_in_place$LT$$RF$mut$u20$std..io..Write..write_fmt..Adapter$LT$std..sys..windows..stdio..Stderr$GT$$GT$17h1f5cb805c2a2cc04E:
	retq

	.def	_ZN4core3ptr107drop_in_place$LT$tokio..runtime..io..registration..Registration..readiness..$u7b$$u7b$closure$u7d$$u7d$$GT$17h5800e82b3b7c5b64E;
	.scl	3;
	.type	32;
	.endef
	.section	.text,"xr",one_only,_ZN4core3ptr107drop_in_place$LT$tokio..runtime..io..registration..Registration..readiness..$u7b$$u7b$closure$u7d$$u7d$$GT$17h5800e82b3b7c5b64E
	.p2align	4, 0x90
_ZN4core3ptr107drop_in_place$LT$tokio..runtime..io..registration..Registration..readiness..$u7b$$u7b$closure$u7d$$u7d$$GT$17h5800e82b3b7c5b64E:
.Lfunc_begin8:
.seh_proc _ZN4core3ptr107drop_in_place$LT$tokio..runtime..io..registration..Registration..readiness..$u7b$$u7b$closure$u7d$$u7d$$GT$17h5800e82b3b7c5b64E
	.seh_handler __CxxFrameHandler3, @unwind, @except
	pushq	%rbp
	.seh_pushreg %rbp
	subq	$48, %rsp
	.seh_stackalloc 48
	leaq	48(%rsp), %rbp
	.seh_setframe %rbp, 48
	.seh_endprologue
	movq	$-2, -8(%rbp)
	cmpb	$3, 104(%rcx)
	jne	.LBB30_4
	cmpb	$3, 96(%rcx)
	jne	.LBB30_4
	movq	%rcx, -16(%rbp)
	addq	$32, %rcx
.Ltmp30:
	callq	_ZN85_$LT$tokio..runtime..io..scheduled_io..Readiness$u20$as$u20$core..ops..drop..Drop$GT$4drop17h7e2b698053fd5a97E
.Ltmp31:
	movq	-16(%rbp), %rcx
	movq	56(%rcx), %rax
	testq	%rax, %rax
	je	.LBB30_4
	movq	64(%rcx), %rcx
	addq	$48, %rsp
	popq	%rbp
	rex64 jmpq	*24(%rax)
.LBB30_4:
	nop
	addq	$48, %rsp
	popq	%rbp
	retq
	.seh_handlerdata
	.long	($cppxdata$_ZN4core3ptr107drop_in_place$LT$tokio..runtime..io..registration..Registration..readiness..$u7b$$u7b$closure$u7d$$u7d$$GT$17h5800e82b3b7c5b64E)@IMGREL
	.section	.text,"xr",one_only,_ZN4core3ptr107drop_in_place$LT$tokio..runtime..io..registration..Registration..readiness..$u7b$$u7b$closure$u7d$$u7d$$GT$17h5800e82b3b7c5b64E
	.seh_endproc
	.def	"?dtor$5@?0?_ZN4core3ptr107drop_in_place$LT$tokio..runtime..io..registration..Registration..readiness..$u7b$$u7b$closure$u7d$$u7d$$GT$17h5800e82b3b7c5b64E@4HA";
	.scl	3;
	.type	32;
	.endef
	.p2align	4, 0x90
"?dtor$5@?0?_ZN4core3ptr107drop_in_place$LT$tokio..runtime..io..registration..Registration..readiness..$u7b$$u7b$closure$u7d$$u7d$$GT$17h5800e82b3b7c5b64E@4HA":
.seh_proc "?dtor$5@?0?_ZN4core3ptr107drop_in_place$LT$tokio..runtime..io..registration..Registration..readiness..$u7b$$u7b$closure$u7d$$u7d$$GT$17h5800e82b3b7c5b64E@4HA"
.LBB30_5:
	movq	%rdx, 16(%rsp)
	pushq	%rbp
	.seh_pushreg %rbp
	subq	$32, %rsp
	.seh_stackalloc 32
	leaq	48(%rdx), %rbp
	.seh_endprologue
	movq	-16(%rbp), %rax
	movq	56(%rax), %rcx
	movq	64(%rax), %rdx
	callq	_ZN4core3ptr108drop_in_place$LT$tokio..util..cacheline..CachePadded$LT$tokio..sync..task..atomic_waker..AtomicWaker$GT$$GT$17h55872739accc4d3bE
	nop
	addq	$32, %rsp
	popq	%rbp
	retq
.Lfunc_end8:
	.seh_handlerdata
	.section	.text,"xr",one_only,_ZN4core3ptr107drop_in_place$LT$tokio..runtime..io..registration..Registration..readiness..$u7b$$u7b$closure$u7d$$u7d$$GT$17h5800e82b3b7c5b64E
	.seh_endproc
	.section	.xdata,"dr",associative,_ZN4core3ptr107drop_in_place$LT$tokio..runtime..io..registration..Registration..readiness..$u7b$$u7b$closure$u7d$$u7d$$GT$17h5800e82b3b7c5b64E
	.p2align	2, 0x0
$cppxdata$_ZN4core3ptr107drop_in_place$LT$tokio..runtime..io..registration..Registration..readiness..$u7b$$u7b$closure$u7d$$u7d$$GT$17h5800e82b3b7c5b64E:
	.long	429065506
	.long	1
	.long	($stateUnwindMap$_ZN4core3ptr107drop_in_place$LT$tokio..runtime..io..registration..Registration..readiness..$u7b$$u7b$closure$u7d$$u7d$$GT$17h5800e82b3b7c5b64E)@IMGREL
	.long	0
	.long	0
	.long	3
	.long	($ip2state$_ZN4core3ptr107drop_in_place$LT$tokio..runtime..io..registration..Registration..readiness..$u7b$$u7b$closure$u7d$$u7d$$GT$17h5800e82b3b7c5b64E)@IMGREL
	.long	40
	.long	0
	.long	1
$stateUnwindMap$_ZN4core3ptr107drop_in_place$LT$tokio..runtime..io..registration..Registration..readiness..$u7b$$u7b$closure$u7d$$u7d$$GT$17h5800e82b3b7c5b64E:
	.long	-1
	.long	"?dtor$5@?0?_ZN4core3ptr107drop_in_place$LT$tokio..runtime..io..registration..Registration..readiness..$u7b$$u7b$closure$u7d$$u7d$$GT$17h5800e82b3b7c5b64E@4HA"@IMGREL
$ip2state$_ZN4core3ptr107drop_in_place$LT$tokio..runtime..io..registration..Registration..readiness..$u7b$$u7b$closure$u7d$$u7d$$GT$17h5800e82b3b7c5b64E:
	.long	.Lfunc_begin8@IMGREL
	.long	-1
	.long	.Ltmp30@IMGREL+1
	.long	0
	.long	.Ltmp31@IMGREL+1
	.long	-1
	.section	.text,"xr",one_only,_ZN4core3ptr107drop_in_place$LT$tokio..runtime..io..registration..Registration..readiness..$u7b$$u7b$closure$u7d$$u7d$$GT$17h5800e82b3b7c5b64E

	.def	_ZN4core3ptr108drop_in_place$LT$reach_server..server..Server..initialize_server_handle_map..$u7b$$u7b$closure$u7d$$u7d$$GT$17h87245e0281a354a2E;
	.scl	3;
	.type	32;
	.endef
	.section	.text,"xr",one_only,_ZN4core3ptr108drop_in_place$LT$reach_server..server..Server..initialize_server_handle_map..$u7b$$u7b$closure$u7d$$u7d$$GT$17h87245e0281a354a2E
	.p2align	4, 0x90
_ZN4core3ptr108drop_in_place$LT$reach_server..server..Server..initialize_server_handle_map..$u7b$$u7b$closure$u7d$$u7d$$GT$17h87245e0281a354a2E:
.Lfunc_begin9:
.seh_proc _ZN4core3ptr108drop_in_place$LT$reach_server..server..Server..initialize_server_handle_map..$u7b$$u7b$closure$u7d$$u7d$$GT$17h87245e0281a354a2E
	.seh_handler __CxxFrameHandler3, @unwind, @except
	pushq	%rbp
	.seh_pushreg %rbp
	subq	$48, %rsp
	.seh_stackalloc 48
	leaq	48(%rsp), %rbp
	.seh_setframe %rbp, 48
	.seh_endprologue
	movq	$-2, -8(%rbp)
	cmpb	$3, 120(%rcx)
	jne	.LBB31_6
	cmpb	$3, 112(%rcx)
	jne	.LBB31_6
	cmpb	$3, 104(%rcx)
	jne	.LBB31_6
	cmpb	$4, 40(%rcx)
	jne	.LBB31_6
	movq	%rcx, -16(%rbp)
	addq	$48, %rcx
.Ltmp32:
	callq	_ZN79_$LT$tokio..sync..batch_semaphore..Acquire$u20$as$u20$core..ops..drop..Drop$GT$4drop17h3e677387310bd09bE
.Ltmp33:
	movq	-16(%rbp), %rcx
	movq	56(%rcx), %rax
	testq	%rax, %rax
	je	.LBB31_6
	movq	64(%rcx), %rcx
	addq	$48, %rsp
	popq	%rbp
	rex64 jmpq	*24(%rax)
.LBB31_6:
	nop
	addq	$48, %rsp
	popq	%rbp
	retq
	.seh_handlerdata
	.long	($cppxdata$_ZN4core3ptr108drop_in_place$LT$reach_server..server..Server..initialize_server_handle_map..$u7b$$u7b$closure$u7d$$u7d$$GT$17h87245e0281a354a2E)@IMGREL
	.section	.text,"xr",one_only,_ZN4core3ptr108drop_in_place$LT$reach_server..server..Server..initialize_server_handle_map..$u7b$$u7b$closure$u7d$$u7d$$GT$17h87245e0281a354a2E
	.seh_endproc
	.def	"?dtor$7@?0?_ZN4core3ptr108drop_in_place$LT$reach_server..server..Server..initialize_server_handle_map..$u7b$$u7b$closure$u7d$$u7d$$GT$17h87245e0281a354a2E@4HA";
	.scl	3;
	.type	32;
	.endef
	.p2align	4, 0x90
"?dtor$7@?0?_ZN4core3ptr108drop_in_place$LT$reach_server..server..Server..initialize_server_handle_map..$u7b$$u7b$closure$u7d$$u7d$$GT$17h87245e0281a354a2E@4HA":
.seh_proc "?dtor$7@?0?_ZN4core3ptr108drop_in_place$LT$reach_server..server..Server..initialize_server_handle_map..$u7b$$u7b$closure$u7d$$u7d$$GT$17h87245e0281a354a2E@4HA"
.LBB31_7:
	movq	%rdx, 16(%rsp)
	pushq	%rbp
	.seh_pushreg %rbp
	subq	$32, %rsp
	.seh_stackalloc 32
	leaq	48(%rdx), %rbp
	.seh_endprologue
	movq	-16(%rbp), %rax
	movq	56(%rax), %rcx
	movq	64(%rax), %rdx
	callq	_ZN4core3ptr108drop_in_place$LT$tokio..util..cacheline..CachePadded$LT$tokio..sync..task..atomic_waker..AtomicWaker$GT$$GT$17h55872739accc4d3bE
	nop
	addq	$32, %rsp
	popq	%rbp
	retq
.Lfunc_end9:
	.seh_handlerdata
	.section	.text,"xr",one_only,_ZN4core3ptr108drop_in_place$LT$reach_server..server..Server..initialize_server_handle_map..$u7b$$u7b$closure$u7d$$u7d$$GT$17h87245e0281a354a2E
	.seh_endproc
	.section	.xdata,"dr",associative,_ZN4core3ptr108drop_in_place$LT$reach_server..server..Server..initialize_server_handle_map..$u7b$$u7b$closure$u7d$$u7d$$GT$17h87245e0281a354a2E
	.p2align	2, 0x0
$cppxdata$_ZN4core3ptr108drop_in_place$LT$reach_server..server..Server..initialize_server_handle_map..$u7b$$u7b$closure$u7d$$u7d$$GT$17h87245e0281a354a2E:
	.long	429065506
	.long	1
	.long	($stateUnwindMap$_ZN4core3ptr108drop_in_place$LT$reach_server..server..Server..initialize_server_handle_map..$u7b$$u7b$closure$u7d$$u7d$$GT$17h87245e0281a354a2E)@IMGREL
	.long	0
	.long	0
	.long	3
	.long	($ip2state$_ZN4core3ptr108drop_in_place$LT$reach_server..server..Server..initialize_server_handle_map..$u7b$$u7b$closure$u7d$$u7d$$GT$17h87245e0281a354a2E)@IMGREL
	.long	40
	.long	0
	.long	1
$stateUnwindMap$_ZN4core3ptr108drop_in_place$LT$reach_server..server..Server..initialize_server_handle_map..$u7b$$u7b$closure$u7d$$u7d$$GT$17h87245e0281a354a2E:
	.long	-1
	.long	"?dtor$7@?0?_ZN4core3ptr108drop_in_place$LT$reach_server..server..Server..initialize_server_handle_map..$u7b$$u7b$closure$u7d$$u7d$$GT$17h87245e0281a354a2E@4HA"@IMGREL
$ip2state$_ZN4core3ptr108drop_in_place$LT$reach_server..server..Server..initialize_server_handle_map..$u7b$$u7b$closure$u7d$$u7d$$GT$17h87245e0281a354a2E:
	.long	.Lfunc_begin9@IMGREL
	.long	-1
	.long	.Ltmp32@IMGREL+1
	.long	0
	.long	.Ltmp33@IMGREL+1
	.long	-1
	.section	.text,"xr",one_only,_ZN4core3ptr108drop_in_place$LT$reach_server..server..Server..initialize_server_handle_map..$u7b$$u7b$closure$u7d$$u7d$$GT$17h87245e0281a354a2E

	.def	_ZN4core3ptr108drop_in_place$LT$tokio..util..cacheline..CachePadded$LT$tokio..sync..task..atomic_waker..AtomicWaker$GT$$GT$17h55872739accc4d3bE;
	.scl	3;
	.type	32;
	.endef
	.section	.text,"xr",one_only,_ZN4core3ptr108drop_in_place$LT$tokio..util..cacheline..CachePadded$LT$tokio..sync..task..atomic_waker..AtomicWaker$GT$$GT$17h55872739accc4d3bE
	.p2align	4, 0x90
_ZN4core3ptr108drop_in_place$LT$tokio..util..cacheline..CachePadded$LT$tokio..sync..task..atomic_waker..AtomicWaker$GT$$GT$17h55872739accc4d3bE:
	testq	%rcx, %rcx
	je	.LBB32_1
	movq	%rcx, %rax
	movq	%rdx, %rcx
	rex64 jmpq	*24(%rax)
.LBB32_1:
	retq

	.def	_ZN4core3ptr109drop_in_place$LT$tokio..loom..std..parking_lot..Mutex$LT$tokio..runtime..io..registration_set..Synced$GT$$GT$17h1977b3ec17628aaeE;
	.scl	3;
	.type	32;
	.endef
	.section	.text,"xr",one_only,_ZN4core3ptr109drop_in_place$LT$tokio..loom..std..parking_lot..Mutex$LT$tokio..runtime..io..registration_set..Synced$GT$$GT$17h1977b3ec17628aaeE
	.p2align	4, 0x90
_ZN4core3ptr109drop_in_place$LT$tokio..loom..std..parking_lot..Mutex$LT$tokio..runtime..io..registration_set..Synced$GT$$GT$17h1977b3ec17628aaeE:
.Lfunc_begin10:
.seh_proc _ZN4core3ptr109drop_in_place$LT$tokio..loom..std..parking_lot..Mutex$LT$tokio..runtime..io..registration_set..Synced$GT$$GT$17h1977b3ec17628aaeE
	.seh_handler __CxxFrameHandler3, @unwind, @except
	pushq	%rbp
	.seh_pushreg %rbp
	pushq	%rsi
	.seh_pushreg %rsi
	pushq	%rdi
	.seh_pushreg %rdi
	pushq	%rbx
	.seh_pushreg %rbx
	subq	$72, %rsp
	.seh_stackalloc 72
	leaq	64(%rsp), %rbp
	.seh_setframe %rbp, 64
	.seh_endprologue
	movq	$-2, (%rbp)
	movq	%rcx, %rax
	movq	8(%rcx), %rcx
	movq	%rax, -24(%rbp)
	movq	24(%rax), %rax
	movq	%rax, -16(%rbp)
	testq	%rax, %rax
	je	.LBB33_5
	movq	-16(%rbp), %rsi
	negq	%rsi
	movl	$1, %edx
	movq	%rcx, -8(%rbp)
	jmp	.LBB33_2
	.p2align	4, 0x90
.LBB33_4:
	movq	-32(%rbp), %rdx
	leaq	(%rsi,%rdx), %rax
	incq	%rax
	incq	%rdx
	cmpq	$1, %rax
	movq	-8(%rbp), %rcx
	je	.LBB33_5
.LBB33_2:
	movq	%rdx, -32(%rbp)
	movq	-8(%rcx,%rdx,8), %rcx
	lock		decq	(%rcx)
	jne	.LBB33_4
	#MEMBARRIER
.Ltmp34:
	callq	_ZN5alloc4sync12Arc$LT$T$GT$9drop_slow17h68029729197ff237E
.Ltmp35:
	jmp	.LBB33_4
.LBB33_5:
	movq	-24(%rbp), %rax
	movq	16(%rax), %rdx
	testq	%rdx, %rdx
	je	.LBB33_11
	shlq	$3, %rdx
	movl	$8, %r8d
	addq	$72, %rsp
	popq	%rbx
	popq	%rdi
	popq	%rsi
	popq	%rbp
	jmp	__rust_dealloc
.LBB33_11:
	nop
	addq	$72, %rsp
	popq	%rbx
	popq	%rdi
	popq	%rsi
	popq	%rbp
	retq
	.seh_handlerdata
	.long	($cppxdata$_ZN4core3ptr109drop_in_place$LT$tokio..loom..std..parking_lot..Mutex$LT$tokio..runtime..io..registration_set..Synced$GT$$GT$17h1977b3ec17628aaeE)@IMGREL
	.section	.text,"xr",one_only,_ZN4core3ptr109drop_in_place$LT$tokio..loom..std..parking_lot..Mutex$LT$tokio..runtime..io..registration_set..Synced$GT$$GT$17h1977b3ec17628aaeE
	.seh_endproc
	.def	"?dtor$7@?0?_ZN4core3ptr109drop_in_place$LT$tokio..loom..std..parking_lot..Mutex$LT$tokio..runtime..io..registration_set..Synced$GT$$GT$17h1977b3ec17628aaeE@4HA";
	.scl	3;
	.type	32;
	.endef
	.p2align	4, 0x90
"?dtor$7@?0?_ZN4core3ptr109drop_in_place$LT$tokio..loom..std..parking_lot..Mutex$LT$tokio..runtime..io..registration_set..Synced$GT$$GT$17h1977b3ec17628aaeE@4HA":
.seh_proc "?dtor$7@?0?_ZN4core3ptr109drop_in_place$LT$tokio..loom..std..parking_lot..Mutex$LT$tokio..runtime..io..registration_set..Synced$GT$$GT$17h1977b3ec17628aaeE@4HA"
.LBB33_7:
	movq	%rdx, 16(%rsp)
	pushq	%rbp
	.seh_pushreg %rbp
	pushq	%rsi
	.seh_pushreg %rsi
	pushq	%rdi
	.seh_pushreg %rdi
	pushq	%rbx
	.seh_pushreg %rbx
	subq	$40, %rsp
	.seh_stackalloc 40
	leaq	64(%rdx), %rbp
	.seh_endprologue
	movq	-16(%rbp), %rdi
	movq	-32(%rbp), %rbx
	cmpq	%rdi, %rbx
	movq	-8(%rbp), %rsi
	je	.LBB33_9
.LBB33_8:
	movq	(%rsi,%rbx,8), %rcx
	callq	_ZN4core3ptr90drop_in_place$LT$alloc..sync..Arc$LT$tokio..runtime..io..scheduled_io..ScheduledIo$GT$$GT$17hfe867c35b9c1dc83E
	incq	%rbx
	cmpq	%rdi, %rbx
	jne	.LBB33_8
.LBB33_9:
	addq	$40, %rsp
	popq	%rbx
	popq	%rdi
	popq	%rsi
	popq	%rbp
	retq
	.seh_handlerdata
	.section	.text,"xr",one_only,_ZN4core3ptr109drop_in_place$LT$tokio..loom..std..parking_lot..Mutex$LT$tokio..runtime..io..registration_set..Synced$GT$$GT$17h1977b3ec17628aaeE
	.seh_endproc
	.def	"?dtor$10@?0?_ZN4core3ptr109drop_in_place$LT$tokio..loom..std..parking_lot..Mutex$LT$tokio..runtime..io..registration_set..Synced$GT$$GT$17h1977b3ec17628aaeE@4HA";
	.scl	3;
	.type	32;
	.endef
	.p2align	4, 0x90
"?dtor$10@?0?_ZN4core3ptr109drop_in_place$LT$tokio..loom..std..parking_lot..Mutex$LT$tokio..runtime..io..registration_set..Synced$GT$$GT$17h1977b3ec17628aaeE@4HA":
.seh_proc "?dtor$10@?0?_ZN4core3ptr109drop_in_place$LT$tokio..loom..std..parking_lot..Mutex$LT$tokio..runtime..io..registration_set..Synced$GT$$GT$17h1977b3ec17628aaeE@4HA"
.LBB33_10:
	movq	%rdx, 16(%rsp)
	pushq	%rbp
	.seh_pushreg %rbp
	pushq	%rsi
	.seh_pushreg %rsi
	pushq	%rdi
	.seh_pushreg %rdi
	pushq	%rbx
	.seh_pushreg %rbx
	subq	$40, %rsp
	.seh_stackalloc 40
	leaq	64(%rdx), %rbp
	.seh_endprologue
	movq	-24(%rbp), %rax
	movq	16(%rax), %rdx
	movq	-8(%rbp), %rcx
	callq	_ZN4core3ptr102drop_in_place$LT$alloc..raw_vec..RawVec$LT$alloc..sync..Arc$LT$mio..sys..windows..afd..Afd$GT$$GT$$GT$17h2db11902b11b1e0bE
	nop
	addq	$40, %rsp
	popq	%rbx
	popq	%rdi
	popq	%rsi
	popq	%rbp
	retq
.Lfunc_end10:
	.seh_handlerdata
	.section	.text,"xr",one_only,_ZN4core3ptr109drop_in_place$LT$tokio..loom..std..parking_lot..Mutex$LT$tokio..runtime..io..registration_set..Synced$GT$$GT$17h1977b3ec17628aaeE
	.seh_endproc
	.section	.xdata,"dr",associative,_ZN4core3ptr109drop_in_place$LT$tokio..loom..std..parking_lot..Mutex$LT$tokio..runtime..io..registration_set..Synced$GT$$GT$17h1977b3ec17628aaeE
	.p2align	2, 0x0
$cppxdata$_ZN4core3ptr109drop_in_place$LT$tokio..loom..std..parking_lot..Mutex$LT$tokio..runtime..io..registration_set..Synced$GT$$GT$17h1977b3ec17628aaeE:
	.long	429065506
	.long	2
	.long	($stateUnwindMap$_ZN4core3ptr109drop_in_place$LT$tokio..loom..std..parking_lot..Mutex$LT$tokio..runtime..io..registration_set..Synced$GT$$GT$17h1977b3ec17628aaeE)@IMGREL
	.long	0
	.long	0
	.long	3
	.long	($ip2state$_ZN4core3ptr109drop_in_place$LT$tokio..loom..std..parking_lot..Mutex$LT$tokio..runtime..io..registration_set..Synced$GT$$GT$17h1977b3ec17628aaeE)@IMGREL
	.long	64
	.long	0
	.long	1
$stateUnwindMap$_ZN4core3ptr109drop_in_place$LT$tokio..loom..std..parking_lot..Mutex$LT$tokio..runtime..io..registration_set..Synced$GT$$GT$17h1977b3ec17628aaeE:
	.long	-1
	.long	"?dtor$10@?0?_ZN4core3ptr109drop_in_place$LT$tokio..loom..std..parking_lot..Mutex$LT$tokio..runtime..io..registration_set..Synced$GT$$GT$17h1977b3ec17628aaeE@4HA"@IMGREL
	.long	0
	.long	"?dtor$7@?0?_ZN4core3ptr109drop_in_place$LT$tokio..loom..std..parking_lot..Mutex$LT$tokio..runtime..io..registration_set..Synced$GT$$GT$17h1977b3ec17628aaeE@4HA"@IMGREL
$ip2state$_ZN4core3ptr109drop_in_place$LT$tokio..loom..std..parking_lot..Mutex$LT$tokio..runtime..io..registration_set..Synced$GT$$GT$17h1977b3ec17628aaeE:
	.long	.Lfunc_begin10@IMGREL
	.long	-1
	.long	.Ltmp34@IMGREL+1
	.long	1
	.long	.Ltmp35@IMGREL+1
	.long	-1
	.section	.text,"xr",one_only,_ZN4core3ptr109drop_in_place$LT$tokio..loom..std..parking_lot..Mutex$LT$tokio..runtime..io..registration_set..Synced$GT$$GT$17h1977b3ec17628aaeE

	.def	_ZN4core3ptr111drop_in_place$LT$alloc..sync..ArcInner$LT$tokio..sync..mutex..Mutex$LT$reach_server..client..Client$GT$$GT$$GT$17ha84b83b6274ffd35E;
	.scl	3;
	.type	32;
	.endef
	.section	.text,"xr",one_only,_ZN4core3ptr111drop_in_place$LT$alloc..sync..ArcInner$LT$tokio..sync..mutex..Mutex$LT$reach_server..client..Client$GT$$GT$$GT$17ha84b83b6274ffd35E
	.p2align	4, 0x90
_ZN4core3ptr111drop_in_place$LT$alloc..sync..ArcInner$LT$tokio..sync..mutex..Mutex$LT$reach_server..client..Client$GT$$GT$$GT$17ha84b83b6274ffd35E:
.Lfunc_begin11:
.seh_proc _ZN4core3ptr111drop_in_place$LT$alloc..sync..ArcInner$LT$tokio..sync..mutex..Mutex$LT$reach_server..client..Client$GT$$GT$$GT$17ha84b83b6274ffd35E
	.seh_handler __CxxFrameHandler3, @unwind, @except
	pushq	%rbp
	.seh_pushreg %rbp
	subq	$48, %rsp
	.seh_stackalloc 48
	leaq	48(%rsp), %rbp
	.seh_setframe %rbp, 48
	.seh_endprologue
	movq	$-2, -8(%rbp)
	movq	%rcx, -16(%rbp)
	movq	56(%rcx), %rcx
	lock		decq	(%rcx)
	jne	.LBB34_2
	#MEMBARRIER
.Ltmp36:
	callq	_ZN5alloc4sync12Arc$LT$T$GT$9drop_slow17hae99f7604e88881fE
.Ltmp37:
.LBB34_2:
	movq	-16(%rbp), %rax
	movq	64(%rax), %rcx
	lock		decq	(%rcx)
	jne	.LBB34_3
	#MEMBARRIER
	addq	$48, %rsp
	popq	%rbp
	jmp	_ZN5alloc4sync12Arc$LT$T$GT$9drop_slow17hac02038de5e3a851E
.LBB34_3:
	nop
	addq	$48, %rsp
	popq	%rbp
	retq
	.seh_handlerdata
	.long	($cppxdata$_ZN4core3ptr111drop_in_place$LT$alloc..sync..ArcInner$LT$tokio..sync..mutex..Mutex$LT$reach_server..client..Client$GT$$GT$$GT$17ha84b83b6274ffd35E)@IMGREL
	.section	.text,"xr",one_only,_ZN4core3ptr111drop_in_place$LT$alloc..sync..ArcInner$LT$tokio..sync..mutex..Mutex$LT$reach_server..client..Client$GT$$GT$$GT$17ha84b83b6274ffd35E
	.seh_endproc
	.def	"?dtor$4@?0?_ZN4core3ptr111drop_in_place$LT$alloc..sync..ArcInner$LT$tokio..sync..mutex..Mutex$LT$reach_server..client..Client$GT$$GT$$GT$17ha84b83b6274ffd35E@4HA";
	.scl	3;
	.type	32;
	.endef
	.p2align	4, 0x90
"?dtor$4@?0?_ZN4core3ptr111drop_in_place$LT$alloc..sync..ArcInner$LT$tokio..sync..mutex..Mutex$LT$reach_server..client..Client$GT$$GT$$GT$17ha84b83b6274ffd35E@4HA":
.seh_proc "?dtor$4@?0?_ZN4core3ptr111drop_in_place$LT$alloc..sync..ArcInner$LT$tokio..sync..mutex..Mutex$LT$reach_server..client..Client$GT$$GT$$GT$17ha84b83b6274ffd35E@4HA"
.LBB34_4:
	movq	%rdx, 16(%rsp)
	pushq	%rbp
	.seh_pushreg %rbp
	subq	$32, %rsp
	.seh_stackalloc 32
	leaq	48(%rdx), %rbp
	.seh_endprologue
	movq	-16(%rbp), %rax
	movq	64(%rax), %rcx
	callq	_ZN4core3ptr158drop_in_place$LT$alloc..sync..Arc$LT$tokio..sync..mutex..Mutex$LT$std..collections..hash..map..HashMap$LT$i64$C$reach_server..enums..C2SPacket$GT$$GT$$GT$$GT$17h085fd0c26140c898E
	nop
	addq	$32, %rsp
	popq	%rbp
	retq
.Lfunc_end11:
	.seh_handlerdata
	.section	.text,"xr",one_only,_ZN4core3ptr111drop_in_place$LT$alloc..sync..ArcInner$LT$tokio..sync..mutex..Mutex$LT$reach_server..client..Client$GT$$GT$$GT$17ha84b83b6274ffd35E
	.seh_endproc
	.section	.xdata,"dr",associative,_ZN4core3ptr111drop_in_place$LT$alloc..sync..ArcInner$LT$tokio..sync..mutex..Mutex$LT$reach_server..client..Client$GT$$GT$$GT$17ha84b83b6274ffd35E
	.p2align	2, 0x0
$cppxdata$_ZN4core3ptr111drop_in_place$LT$alloc..sync..ArcInner$LT$tokio..sync..mutex..Mutex$LT$reach_server..client..Client$GT$$GT$$GT$17ha84b83b6274ffd35E:
	.long	429065506
	.long	1
	.long	($stateUnwindMap$_ZN4core3ptr111drop_in_place$LT$alloc..sync..ArcInner$LT$tokio..sync..mutex..Mutex$LT$reach_server..client..Client$GT$$GT$$GT$17ha84b83b6274ffd35E)@IMGREL
	.long	0
	.long	0
	.long	3
	.long	($ip2state$_ZN4core3ptr111drop_in_place$LT$alloc..sync..ArcInner$LT$tokio..sync..mutex..Mutex$LT$reach_server..client..Client$GT$$GT$$GT$17ha84b83b6274ffd35E)@IMGREL
	.long	40
	.long	0
	.long	1
$stateUnwindMap$_ZN4core3ptr111drop_in_place$LT$alloc..sync..ArcInner$LT$tokio..sync..mutex..Mutex$LT$reach_server..client..Client$GT$$GT$$GT$17ha84b83b6274ffd35E:
	.long	-1
	.long	"?dtor$4@?0?_ZN4core3ptr111drop_in_place$LT$alloc..sync..ArcInner$LT$tokio..sync..mutex..Mutex$LT$reach_server..client..Client$GT$$GT$$GT$17ha84b83b6274ffd35E@4HA"@IMGREL
$ip2state$_ZN4core3ptr111drop_in_place$LT$alloc..sync..ArcInner$LT$tokio..sync..mutex..Mutex$LT$reach_server..client..Client$GT$$GT$$GT$17ha84b83b6274ffd35E:
	.long	.Lfunc_begin11@IMGREL
	.long	-1
	.long	.Ltmp36@IMGREL+1
	.long	0
	.long	.Ltmp37@IMGREL+1
	.long	-1
	.section	.text,"xr",one_only,_ZN4core3ptr111drop_in_place$LT$alloc..sync..ArcInner$LT$tokio..sync..mutex..Mutex$LT$reach_server..client..Client$GT$$GT$$GT$17ha84b83b6274ffd35E

	.def	_ZN4core3ptr112drop_in_place$LT$$LP$alloc..boxed..Box$LT$tokio..runtime..scheduler..current_thread..Core$GT$$C$$LP$$RP$$RP$$GT$17h6c8e4f99a2068de9E;
	.scl	3;
	.type	32;
	.endef
	.section	.text,"xr",one_only,_ZN4core3ptr112drop_in_place$LT$$LP$alloc..boxed..Box$LT$tokio..runtime..scheduler..current_thread..Core$GT$$C$$LP$$RP$$RP$$GT$17h6c8e4f99a2068de9E
	.p2align	4, 0x90
_ZN4core3ptr112drop_in_place$LT$$LP$alloc..boxed..Box$LT$tokio..runtime..scheduler..current_thread..Core$GT$$C$$LP$$RP$$RP$$GT$17h6c8e4f99a2068de9E:
	jmp	_ZN4core3ptr93drop_in_place$LT$alloc..boxed..Box$LT$tokio..runtime..scheduler..current_thread..Core$GT$$GT$17h4246c6456b95f95fE

	.def	_ZN4core3ptr112drop_in_place$LT$std..collections..hash..map..HashMap$LT$usize$C$std..thread..JoinHandle$LT$$LP$$RP$$GT$$GT$$GT$17hdf8720943b0b2cbeE;
	.scl	3;
	.type	32;
	.endef
	.section	.text,"xr",one_only,_ZN4core3ptr112drop_in_place$LT$std..collections..hash..map..HashMap$LT$usize$C$std..thread..JoinHandle$LT$$LP$$RP$$GT$$GT$$GT$17hdf8720943b0b2cbeE
	.p2align	4, 0x90
_ZN4core3ptr112drop_in_place$LT$std..collections..hash..map..HashMap$LT$usize$C$std..thread..JoinHandle$LT$$LP$$RP$$GT$$GT$$GT$17hdf8720943b0b2cbeE:
.Lfunc_begin12:
.seh_proc _ZN4core3ptr112drop_in_place$LT$std..collections..hash..map..HashMap$LT$usize$C$std..thread..JoinHandle$LT$$LP$$RP$$GT$$GT$$GT$17hdf8720943b0b2cbeE
	.seh_handler __CxxFrameHandler3, @unwind, @except
	pushq	%rbp
	.seh_pushreg %rbp
	pushq	%r15
	.seh_pushreg %r15
	pushq	%r14
	.seh_pushreg %r14
	pushq	%r13
	.seh_pushreg %r13
	pushq	%r12
	.seh_pushreg %r12
	pushq	%rsi
	.seh_pushreg %rsi
	pushq	%rdi
	.seh_pushreg %rdi
	pushq	%rbx
	.seh_pushreg %rbx
	subq	$72, %rsp
	.seh_stackalloc 72
	leaq	64(%rsp), %rbp
	.seh_setframe %rbp, 64
	.seh_endprologue
	movq	$-2, (%rbp)
	movq	8(%rcx), %rax
	testq	%rax, %rax
	je	.LBB36_13
	movq	%rax, -24(%rbp)
	movq	%rcx, -8(%rbp)
	movq	24(%rcx), %rbx
	testq	%rbx, %rbx
	je	.LBB36_12
	movq	-8(%rbp), %rax
	movq	(%rax), %r14
	movdqa	(%r14), %xmm0
	pmovmskb	%xmm0, %r13d
	notl	%r13d
	leaq	16(%r14), %r15
	movq	__imp_CloseHandle(%rip), %r12
	jmp	.LBB36_3
	.p2align	4, 0x90
.LBB36_11:
	movl	%edi, %r13d
	testq	%rbx, %rbx
	je	.LBB36_12
.LBB36_3:
	testw	%r13w, %r13w
	jne	.LBB36_6
	.p2align	4, 0x90
.LBB36_4:
	movdqa	(%r15), %xmm0
	pmovmskb	%xmm0, %r13d
	addq	$-512, %r14
	addq	$16, %r15
	cmpw	$-1, %r13w
	je	.LBB36_4
	notl	%r13d
.LBB36_6:
	rep		bsfl	%r13d, %eax
	shlq	$5, %rax
	movq	%r14, %rcx
	subq	%rax, %rcx
	movq	%rcx, -16(%rbp)
	movq	-8(%rcx), %rcx
.Ltmp38:
	callq	*%r12
.Ltmp39:
	leal	-1(%r13), %edi
	movq	-16(%rbp), %rsi
	movq	-24(%rsi), %rcx
	lock		decq	(%rcx)
	jne	.LBB36_9
	#MEMBARRIER
	callq	_ZN5alloc4sync12Arc$LT$T$GT$9drop_slow17hdc1f978269819d94E
.LBB36_9:
	andl	%r13d, %edi
	decq	%rbx
	movq	-16(%rsi), %rcx
	lock		decq	(%rcx)
	jne	.LBB36_11
	#MEMBARRIER
	callq	_ZN5alloc4sync12Arc$LT$T$GT$9drop_slow17he4a42820c9a91ba1E
	jmp	.LBB36_11
.LBB36_12:
	movq	-24(%rbp), %rdx
	movq	%rdx, %rax
	shlq	$5, %rax
	addq	%rax, %rdx
	addq	$49, %rdx
	movq	-8(%rbp), %rcx
	je	.LBB36_13
	movq	(%rcx), %rcx
	subq	%rax, %rcx
	addq	$-32, %rcx
	movl	$16, %r8d
	addq	$72, %rsp
	popq	%rbx
	popq	%rdi
	popq	%rsi
	popq	%r12
	popq	%r13
	popq	%r14
	popq	%r15
	popq	%rbp
	jmp	__rust_dealloc
.LBB36_13:
	nop
	addq	$72, %rsp
	popq	%rbx
	popq	%rdi
	popq	%rsi
	popq	%r12
	popq	%r13
	popq	%r14
	popq	%r15
	popq	%rbp
	retq
	.seh_handlerdata
	.long	($cppxdata$_ZN4core3ptr112drop_in_place$LT$std..collections..hash..map..HashMap$LT$usize$C$std..thread..JoinHandle$LT$$LP$$RP$$GT$$GT$$GT$17hdf8720943b0b2cbeE)@IMGREL
	.section	.text,"xr",one_only,_ZN4core3ptr112drop_in_place$LT$std..collections..hash..map..HashMap$LT$usize$C$std..thread..JoinHandle$LT$$LP$$RP$$GT$$GT$$GT$17hdf8720943b0b2cbeE
	.seh_endproc
	.def	"?dtor$14@?0?_ZN4core3ptr112drop_in_place$LT$std..collections..hash..map..HashMap$LT$usize$C$std..thread..JoinHandle$LT$$LP$$RP$$GT$$GT$$GT$17hdf8720943b0b2cbeE@4HA";
	.scl	3;
	.type	32;
	.endef
	.p2align	4, 0x90
"?dtor$14@?0?_ZN4core3ptr112drop_in_place$LT$std..collections..hash..map..HashMap$LT$usize$C$std..thread..JoinHandle$LT$$LP$$RP$$GT$$GT$$GT$17hdf8720943b0b2cbeE@4HA":
.seh_proc "?dtor$14@?0?_ZN4core3ptr112drop_in_place$LT$std..collections..hash..map..HashMap$LT$usize$C$std..thread..JoinHandle$LT$$LP$$RP$$GT$$GT$$GT$17hdf8720943b0b2cbeE@4HA"
.LBB36_14:
	movq	%rdx, 16(%rsp)
	pushq	%rbp
	.seh_pushreg %rbp
	pushq	%r15
	.seh_pushreg %r15
	pushq	%r14
	.seh_pushreg %r14
	pushq	%r13
	.seh_pushreg %r13
	pushq	%r12
	.seh_pushreg %r12
	pushq	%rsi
	.seh_pushreg %rsi
	pushq	%rdi
	.seh_pushreg %rdi
	pushq	%rbx
	.seh_pushreg %rbx
	subq	$40, %rsp
	.seh_stackalloc 40
	leaq	64(%rdx), %rbp
	.seh_endprologue
	movq	-16(%rbp), %rsi
	movq	-24(%rsi), %rcx
	callq	_ZN4core3ptr40drop_in_place$LT$std..thread..Thread$GT$17h704ac46f1acf2d33E
	movq	-16(%rsi), %rcx
	callq	_ZN4core3ptr80drop_in_place$LT$alloc..sync..Arc$LT$std..thread..Packet$LT$$LP$$RP$$GT$$GT$$GT$17h525ae24fb00478caE
	nop
	addq	$40, %rsp
	popq	%rbx
	popq	%rdi
	popq	%rsi
	popq	%r12
	popq	%r13
	popq	%r14
	popq	%r15
	popq	%rbp
	retq
.Lfunc_end12:
	.seh_handlerdata
	.section	.text,"xr",one_only,_ZN4core3ptr112drop_in_place$LT$std..collections..hash..map..HashMap$LT$usize$C$std..thread..JoinHandle$LT$$LP$$RP$$GT$$GT$$GT$17hdf8720943b0b2cbeE
	.seh_endproc
	.section	.xdata,"dr",associative,_ZN4core3ptr112drop_in_place$LT$std..collections..hash..map..HashMap$LT$usize$C$std..thread..JoinHandle$LT$$LP$$RP$$GT$$GT$$GT$17hdf8720943b0b2cbeE
	.p2align	2, 0x0
$cppxdata$_ZN4core3ptr112drop_in_place$LT$std..collections..hash..map..HashMap$LT$usize$C$std..thread..JoinHandle$LT$$LP$$RP$$GT$$GT$$GT$17hdf8720943b0b2cbeE:
	.long	429065506
	.long	1
	.long	($stateUnwindMap$_ZN4core3ptr112drop_in_place$LT$std..collections..hash..map..HashMap$LT$usize$C$std..thread..JoinHandle$LT$$LP$$RP$$GT$$GT$$GT$17hdf8720943b0b2cbeE)@IMGREL
	.long	0
	.long	0
	.long	3
	.long	($ip2state$_ZN4core3ptr112drop_in_place$LT$std..collections..hash..map..HashMap$LT$usize$C$std..thread..JoinHandle$LT$$LP$$RP$$GT$$GT$$GT$17hdf8720943b0b2cbeE)@IMGREL
	.long	64
	.long	0
	.long	1
$stateUnwindMap$_ZN4core3ptr112drop_in_place$LT$std..collections..hash..map..HashMap$LT$usize$C$std..thread..JoinHandle$LT$$LP$$RP$$GT$$GT$$GT$17hdf8720943b0b2cbeE:
	.long	-1
	.long	"?dtor$14@?0?_ZN4core3ptr112drop_in_place$LT$std..collections..hash..map..HashMap$LT$usize$C$std..thread..JoinHandle$LT$$LP$$RP$$GT$$GT$$GT$17hdf8720943b0b2cbeE@4HA"@IMGREL
$ip2state$_ZN4core3ptr112drop_in_place$LT$std..collections..hash..map..HashMap$LT$usize$C$std..thread..JoinHandle$LT$$LP$$RP$$GT$$GT$$GT$17hdf8720943b0b2cbeE:
	.long	.Lfunc_begin12@IMGREL
	.long	-1
	.long	.Ltmp38@IMGREL+1
	.long	0
	.long	.Ltmp39@IMGREL+1
	.long	-1
	.section	.text,"xr",one_only,_ZN4core3ptr112drop_in_place$LT$std..collections..hash..map..HashMap$LT$usize$C$std..thread..JoinHandle$LT$$LP$$RP$$GT$$GT$$GT$17hdf8720943b0b2cbeE

	.def	_ZN4core3ptr113drop_in_place$LT$tokio..net..tcp..listener..TcpListener..bind$LT$$RF$$RF$str$GT$..$u7b$$u7b$closure$u7d$$u7d$$GT$17h2c3067ba56c4f54fE;
	.scl	3;
	.type	32;
	.endef
	.section	.text,"xr",one_only,_ZN4core3ptr113drop_in_place$LT$tokio..net..tcp..listener..TcpListener..bind$LT$$RF$$RF$str$GT$..$u7b$$u7b$closure$u7d$$u7d$$GT$17h2c3067ba56c4f54fE
	.p2align	4, 0x90
_ZN4core3ptr113drop_in_place$LT$tokio..net..tcp..listener..TcpListener..bind$LT$$RF$$RF$str$GT$..$u7b$$u7b$closure$u7d$$u7d$$GT$17h2c3067ba56c4f54fE:
.seh_proc _ZN4core3ptr113drop_in_place$LT$tokio..net..tcp..listener..TcpListener..bind$LT$$RF$$RF$str$GT$..$u7b$$u7b$closure$u7d$$u7d$$GT$17h2c3067ba56c4f54fE
	pushq	%rsi
	.seh_pushreg %rsi
	subq	$32, %rsp
	.seh_stackalloc 32
	.seh_endprologue
	cmpb	$3, 40(%rcx)
	jne	.LBB37_3
	movq	%rcx, %rsi
	cmpw	$3, 8(%rcx)
	jne	.LBB37_3
	addq	$16, %rsi
	movq	%rsi, %rcx
	callq	_ZN5tokio7runtime4task3raw7RawTask5state17h5d8d9ec8bca52365E
	movq	%rax, %rcx
	callq	_ZN5tokio7runtime4task5state5State21drop_join_handle_fast17h2b640709723ca733E
	testb	%al, %al
	je	.LBB37_3
	movq	(%rsi), %rcx
	addq	$32, %rsp
	popq	%rsi
	jmp	_ZN5tokio7runtime4task3raw7RawTask21drop_join_handle_slow17h40230ea579319a56E
.LBB37_3:
	nop
	addq	$32, %rsp
	popq	%rsi
	retq
	.seh_endproc

	.def	_ZN4core3ptr114drop_in_place$LT$reach_server..serversend..send_data..$u7b$$u7b$closure$u7d$$u7d$..$u7b$$u7b$closure$u7d$$u7d$$GT$17hc813ea9c9107012eE;
	.scl	3;
	.type	32;
	.endef
	.section	.text,"xr",one_only,_ZN4core3ptr114drop_in_place$LT$reach_server..serversend..send_data..$u7b$$u7b$closure$u7d$$u7d$..$u7b$$u7b$closure$u7d$$u7d$$GT$17hc813ea9c9107012eE
	.p2align	4, 0x90
_ZN4core3ptr114drop_in_place$LT$reach_server..serversend..send_data..$u7b$$u7b$closure$u7d$$u7d$..$u7b$$u7b$closure$u7d$$u7d$$GT$17hc813ea9c9107012eE:
.Lfunc_begin13:
.seh_proc _ZN4core3ptr114drop_in_place$LT$reach_server..serversend..send_data..$u7b$$u7b$closure$u7d$$u7d$..$u7b$$u7b$closure$u7d$$u7d$$GT$17hc813ea9c9107012eE
	.seh_handler __CxxFrameHandler3, @unwind, @except
	pushq	%rbp
	.seh_pushreg %rbp
	subq	$48, %rsp
	.seh_stackalloc 48
	leaq	48(%rsp), %rbp
	.seh_setframe %rbp, 48
	.seh_endprologue
	movq	$-2, -8(%rbp)
	movq	%rcx, %r8
	movzbl	49(%rcx), %eax
	testl	%eax, %eax
	je	.LBB38_4
	cmpl	$3, %eax
	je	.LBB38_6
	cmpl	$4, %eax
	jne	.LBB38_3
	leaq	56(%r8), %rcx
.Ltmp40:
	movq	%r8, -16(%rbp)
	callq	_ZN4core3ptr129drop_in_place$LT$tokio..sync..mpsc..bounded..Sender$LT$reach_server..enums..S2CCommand$GT$..send..$u7b$$u7b$closure$u7d$$u7d$$GT$17hefaeb7477fb3e317E
.Ltmp41:
	movq	-16(%rbp), %rax
	movq	40(%rax), %rcx
.Ltmp42:
	movl	$1, %edx
	callq	_ZN5tokio4sync15batch_semaphore9Semaphore7release17h044b86ca4cbe5f93E
.Ltmp43:
	jmp	.LBB38_12
.LBB38_6:
	cmpb	$3, 160(%r8)
	movq	%r8, -16(%rbp)
	jne	.LBB38_12
	movq	-16(%rbp), %rax
	cmpb	$3, 152(%rax)
	jne	.LBB38_12
	movq	-16(%rbp), %rax
	cmpb	$4, 88(%rax)
	jne	.LBB38_12
	movq	-16(%rbp), %rax
	leaq	96(%rax), %rcx
.Ltmp44:
	callq	_ZN79_$LT$tokio..sync..batch_semaphore..Acquire$u20$as$u20$core..ops..drop..Drop$GT$4drop17h3e677387310bd09bE
.Ltmp45:
	movq	-16(%rbp), %rax
	movq	104(%rax), %rax
	testq	%rax, %rax
	je	.LBB38_12
	movq	-16(%rbp), %rcx
	movq	112(%rcx), %rcx
.Ltmp46:
	callq	*24(%rax)
.Ltmp47:
.LBB38_12:
	movq	-16(%rbp), %r8
	cmpb	$0, 48(%r8)
	je	.LBB38_3
.LBB38_4:
	movq	8(%r8), %rdx
	testq	%rdx, %rdx
	je	.LBB38_3
	movq	(%r8), %rcx
	movl	$1, %r8d
	addq	$48, %rsp
	popq	%rbp
	jmp	__rust_dealloc
.LBB38_3:
	nop
	addq	$48, %rsp
	popq	%rbp
	retq
	.seh_handlerdata
	.long	($cppxdata$_ZN4core3ptr114drop_in_place$LT$reach_server..serversend..send_data..$u7b$$u7b$closure$u7d$$u7d$..$u7b$$u7b$closure$u7d$$u7d$$GT$17hc813ea9c9107012eE)@IMGREL
	.section	.text,"xr",one_only,_ZN4core3ptr114drop_in_place$LT$reach_server..serversend..send_data..$u7b$$u7b$closure$u7d$$u7d$..$u7b$$u7b$closure$u7d$$u7d$$GT$17hc813ea9c9107012eE
	.seh_endproc
	.def	"?dtor$13@?0?_ZN4core3ptr114drop_in_place$LT$reach_server..serversend..send_data..$u7b$$u7b$closure$u7d$$u7d$..$u7b$$u7b$closure$u7d$$u7d$$GT$17hc813ea9c9107012eE@4HA";
	.scl	3;
	.type	32;
	.endef
	.p2align	4, 0x90
"?dtor$13@?0?_ZN4core3ptr114drop_in_place$LT$reach_server..serversend..send_data..$u7b$$u7b$closure$u7d$$u7d$..$u7b$$u7b$closure$u7d$$u7d$$GT$17hc813ea9c9107012eE@4HA":
.seh_proc "?dtor$13@?0?_ZN4core3ptr114drop_in_place$LT$reach_server..serversend..send_data..$u7b$$u7b$closure$u7d$$u7d$..$u7b$$u7b$closure$u7d$$u7d$$GT$17hc813ea9c9107012eE@4HA"
.LBB38_13:
	movq	%rdx, 16(%rsp)
	pushq	%rbp
	.seh_pushreg %rbp
	subq	$32, %rsp
	.seh_stackalloc 32
	leaq	48(%rdx), %rbp
	.seh_endprologue
	movq	-16(%rbp), %rax
	movq	40(%rax), %rcx
	callq	_ZN4core3ptr121drop_in_place$LT$tokio..sync..mutex..MutexGuard$LT$core..option..Option$LT$tokio..net..tcp..stream..TcpStream$GT$$GT$$GT$17he31c8d3dc972d4a1E
	nop
	addq	$32, %rsp
	popq	%rbp
	retq
	.seh_handlerdata
	.section	.text,"xr",one_only,_ZN4core3ptr114drop_in_place$LT$reach_server..serversend..send_data..$u7b$$u7b$closure$u7d$$u7d$..$u7b$$u7b$closure$u7d$$u7d$$GT$17hc813ea9c9107012eE
	.seh_endproc
	.def	"?dtor$16@?0?_ZN4core3ptr114drop_in_place$LT$reach_server..serversend..send_data..$u7b$$u7b$closure$u7d$$u7d$..$u7b$$u7b$closure$u7d$$u7d$$GT$17hc813ea9c9107012eE@4HA";
	.scl	3;
	.type	32;
	.endef
	.p2align	4, 0x90
"?dtor$16@?0?_ZN4core3ptr114drop_in_place$LT$reach_server..serversend..send_data..$u7b$$u7b$closure$u7d$$u7d$..$u7b$$u7b$closure$u7d$$u7d$$GT$17hc813ea9c9107012eE@4HA":
.seh_proc "?dtor$16@?0?_ZN4core3ptr114drop_in_place$LT$reach_server..serversend..send_data..$u7b$$u7b$closure$u7d$$u7d$..$u7b$$u7b$closure$u7d$$u7d$$GT$17hc813ea9c9107012eE@4HA"
.LBB38_16:
	movq	%rdx, 16(%rsp)
	pushq	%rbp
	.seh_pushreg %rbp
	subq	$32, %rsp
	.seh_stackalloc 32
	leaq	48(%rdx), %rbp
	.seh_endprologue
	movq	-16(%rbp), %rcx
	cmpb	$0, 48(%rcx)
	je	.LBB38_18
	movq	%rcx, %rax
	movq	(%rcx), %rcx
	movq	8(%rax), %rdx
	callq	_ZN4core3ptr42drop_in_place$LT$alloc..string..String$GT$17hc2712d0046d56c80E
.LBB38_18:
	nop
	addq	$32, %rsp
	popq	%rbp
	retq
	.seh_handlerdata
	.section	.text,"xr",one_only,_ZN4core3ptr114drop_in_place$LT$reach_server..serversend..send_data..$u7b$$u7b$closure$u7d$$u7d$..$u7b$$u7b$closure$u7d$$u7d$$GT$17hc813ea9c9107012eE
	.seh_endproc
	.def	"?dtor$19@?0?_ZN4core3ptr114drop_in_place$LT$reach_server..serversend..send_data..$u7b$$u7b$closure$u7d$$u7d$..$u7b$$u7b$closure$u7d$$u7d$$GT$17hc813ea9c9107012eE@4HA";
	.scl	3;
	.type	32;
	.endef
	.p2align	4, 0x90
"?dtor$19@?0?_ZN4core3ptr114drop_in_place$LT$reach_server..serversend..send_data..$u7b$$u7b$closure$u7d$$u7d$..$u7b$$u7b$closure$u7d$$u7d$$GT$17hc813ea9c9107012eE@4HA":
.seh_proc "?dtor$19@?0?_ZN4core3ptr114drop_in_place$LT$reach_server..serversend..send_data..$u7b$$u7b$closure$u7d$$u7d$..$u7b$$u7b$closure$u7d$$u7d$$GT$17hc813ea9c9107012eE@4HA"
.LBB38_19:
	movq	%rdx, 16(%rsp)
	pushq	%rbp
	.seh_pushreg %rbp
	subq	$32, %rsp
	.seh_stackalloc 32
	leaq	48(%rdx), %rbp
	.seh_endprologue
	movq	-16(%rbp), %rax
	movq	104(%rax), %rcx
	movq	112(%rax), %rdx
	callq	_ZN4core3ptr108drop_in_place$LT$tokio..util..cacheline..CachePadded$LT$tokio..sync..task..atomic_waker..AtomicWaker$GT$$GT$17h55872739accc4d3bE
	nop
	addq	$32, %rsp
	popq	%rbp
	retq
.Lfunc_end13:
	.seh_handlerdata
	.section	.text,"xr",one_only,_ZN4core3ptr114drop_in_place$LT$reach_server..serversend..send_data..$u7b$$u7b$closure$u7d$$u7d$..$u7b$$u7b$closure$u7d$$u7d$$GT$17hc813ea9c9107012eE
	.seh_endproc
	.section	.xdata,"dr",associative,_ZN4core3ptr114drop_in_place$LT$reach_server..serversend..send_data..$u7b$$u7b$closure$u7d$$u7d$..$u7b$$u7b$closure$u7d$$u7d$$GT$17hc813ea9c9107012eE
	.p2align	2, 0x0
$cppxdata$_ZN4core3ptr114drop_in_place$LT$reach_server..serversend..send_data..$u7b$$u7b$closure$u7d$$u7d$..$u7b$$u7b$closure$u7d$$u7d$$GT$17hc813ea9c9107012eE:
	.long	429065506
	.long	3
	.long	($stateUnwindMap$_ZN4core3ptr114drop_in_place$LT$reach_server..serversend..send_data..$u7b$$u7b$closure$u7d$$u7d$..$u7b$$u7b$closure$u7d$$u7d$$GT$17hc813ea9c9107012eE)@IMGREL
	.long	0
	.long	0
	.long	6
	.long	($ip2state$_ZN4core3ptr114drop_in_place$LT$reach_server..serversend..send_data..$u7b$$u7b$closure$u7d$$u7d$..$u7b$$u7b$closure$u7d$$u7d$$GT$17hc813ea9c9107012eE)@IMGREL
	.long	40
	.long	0
	.long	1
$stateUnwindMap$_ZN4core3ptr114drop_in_place$LT$reach_server..serversend..send_data..$u7b$$u7b$closure$u7d$$u7d$..$u7b$$u7b$closure$u7d$$u7d$$GT$17hc813ea9c9107012eE:
	.long	-1
	.long	"?dtor$16@?0?_ZN4core3ptr114drop_in_place$LT$reach_server..serversend..send_data..$u7b$$u7b$closure$u7d$$u7d$..$u7b$$u7b$closure$u7d$$u7d$$GT$17hc813ea9c9107012eE@4HA"@IMGREL
	.long	0
	.long	"?dtor$13@?0?_ZN4core3ptr114drop_in_place$LT$reach_server..serversend..send_data..$u7b$$u7b$closure$u7d$$u7d$..$u7b$$u7b$closure$u7d$$u7d$$GT$17hc813ea9c9107012eE@4HA"@IMGREL
	.long	0
	.long	"?dtor$19@?0?_ZN4core3ptr114drop_in_place$LT$reach_server..serversend..send_data..$u7b$$u7b$closure$u7d$$u7d$..$u7b$$u7b$closure$u7d$$u7d$$GT$17hc813ea9c9107012eE@4HA"@IMGREL
$ip2state$_ZN4core3ptr114drop_in_place$LT$reach_server..serversend..send_data..$u7b$$u7b$closure$u7d$$u7d$..$u7b$$u7b$closure$u7d$$u7d$$GT$17hc813ea9c9107012eE:
	.long	.Lfunc_begin13@IMGREL
	.long	-1
	.long	.Ltmp40@IMGREL+1
	.long	1
	.long	.Ltmp42@IMGREL+1
	.long	0
	.long	.Ltmp44@IMGREL+1
	.long	2
	.long	.Ltmp46@IMGREL+1
	.long	0
	.long	.Ltmp47@IMGREL+1
	.long	-1
	.section	.text,"xr",one_only,_ZN4core3ptr114drop_in_place$LT$reach_server..serversend..send_data..$u7b$$u7b$closure$u7d$$u7d$..$u7b$$u7b$closure$u7d$$u7d$$GT$17hc813ea9c9107012eE

	.def	_ZN4core3ptr114drop_in_place$LT$tokio..loom..std..parking_lot..MutexGuard$LT$tokio..runtime..io..registration_set..Synced$GT$$GT$17ha603aec7df478963E;
	.scl	3;
	.type	32;
	.endef
	.section	.text,"xr",one_only,_ZN4core3ptr114drop_in_place$LT$tokio..loom..std..parking_lot..MutexGuard$LT$tokio..runtime..io..registration_set..Synced$GT$$GT$17ha603aec7df478963E
	.p2align	4, 0x90
_ZN4core3ptr114drop_in_place$LT$tokio..loom..std..parking_lot..MutexGuard$LT$tokio..runtime..io..registration_set..Synced$GT$$GT$17ha603aec7df478963E:
	xorl	%edx, %edx
	movb	$1, %al
	lock		cmpxchgb	%dl, (%rcx)
	jne	.LBB39_2
	retq
.LBB39_2:
	xorl	%edx, %edx
	jmp	_ZN11parking_lot9raw_mutex8RawMutex11unlock_slow17h05ce23e08d2468e4E

	.def	_ZN4core3ptr116drop_in_place$LT$core..option..Option$LT$alloc..sync..Arc$LT$tokio..sync..oneshot..Inner$LT$$LP$$RP$$GT$$GT$$GT$$GT$17hd15a0a2fa2767aefE;
	.scl	3;
	.type	32;
	.endef
	.section	.text,"xr",one_only,_ZN4core3ptr116drop_in_place$LT$core..option..Option$LT$alloc..sync..Arc$LT$tokio..sync..oneshot..Inner$LT$$LP$$RP$$GT$$GT$$GT$$GT$17hd15a0a2fa2767aefE
	.p2align	4, 0x90
_ZN4core3ptr116drop_in_place$LT$core..option..Option$LT$alloc..sync..Arc$LT$tokio..sync..oneshot..Inner$LT$$LP$$RP$$GT$$GT$$GT$$GT$17hd15a0a2fa2767aefE:
	testq	%rcx, %rcx
	je	.LBB40_2
	lock		decq	(%rcx)
	jne	.LBB40_2
	#MEMBARRIER
	jmp	_ZN5alloc4sync12Arc$LT$T$GT$9drop_slow17h3ecb38d94805a2bfE
.LBB40_2:
	retq

	.def	_ZN4core3ptr117drop_in_place$LT$tokio..sync..mutex..Mutex$LT$reach_server..client..Client$GT$..lock..$u7b$$u7b$closure$u7d$$u7d$$GT$17hb092b026790b1fccE;
	.scl	3;
	.type	32;
	.endef
	.section	.text,"xr",one_only,_ZN4core3ptr117drop_in_place$LT$tokio..sync..mutex..Mutex$LT$reach_server..client..Client$GT$..lock..$u7b$$u7b$closure$u7d$$u7d$$GT$17hb092b026790b1fccE
	.p2align	4, 0x90
_ZN4core3ptr117drop_in_place$LT$tokio..sync..mutex..Mutex$LT$reach_server..client..Client$GT$..lock..$u7b$$u7b$closure$u7d$$u7d$$GT$17hb092b026790b1fccE:
.Lfunc_begin14:
.seh_proc _ZN4core3ptr117drop_in_place$LT$tokio..sync..mutex..Mutex$LT$reach_server..client..Client$GT$..lock..$u7b$$u7b$closure$u7d$$u7d$$GT$17hb092b026790b1fccE
	.seh_handler __CxxFrameHandler3, @unwind, @except
	pushq	%rbp
	.seh_pushreg %rbp
	subq	$48, %rsp
	.seh_stackalloc 48
	leaq	48(%rsp), %rbp
	.seh_setframe %rbp, 48
	.seh_endprologue
	movq	$-2, -8(%rbp)
	cmpb	$3, 104(%rcx)
	jne	.LBB41_5
	cmpb	$3, 96(%rcx)
	jne	.LBB41_5
	cmpb	$4, 32(%rcx)
	jne	.LBB41_5
	movq	%rcx, -16(%rbp)
	addq	$40, %rcx
.Ltmp48:
	callq	_ZN79_$LT$tokio..sync..batch_semaphore..Acquire$u20$as$u20$core..ops..drop..Drop$GT$4drop17h3e677387310bd09bE
.Ltmp49:
	movq	-16(%rbp), %rcx
	movq	48(%rcx), %rax
	testq	%rax, %rax
	je	.LBB41_5
	movq	56(%rcx), %rcx
	addq	$48, %rsp
	popq	%rbp
	rex64 jmpq	*24(%rax)
.LBB41_5:
	nop
	addq	$48, %rsp
	popq	%rbp
	retq
	.seh_handlerdata
	.long	($cppxdata$_ZN4core3ptr117drop_in_place$LT$tokio..sync..mutex..Mutex$LT$reach_server..client..Client$GT$..lock..$u7b$$u7b$closure$u7d$$u7d$$GT$17hb092b026790b1fccE)@IMGREL
	.section	.text,"xr",one_only,_ZN4core3ptr117drop_in_place$LT$tokio..sync..mutex..Mutex$LT$reach_server..client..Client$GT$..lock..$u7b$$u7b$closure$u7d$$u7d$$GT$17hb092b026790b1fccE
	.seh_endproc
	.def	"?dtor$6@?0?_ZN4core3ptr117drop_in_place$LT$tokio..sync..mutex..Mutex$LT$reach_server..client..Client$GT$..lock..$u7b$$u7b$closure$u7d$$u7d$$GT$17hb092b026790b1fccE@4HA";
	.scl	3;
	.type	32;
	.endef
	.p2align	4, 0x90
"?dtor$6@?0?_ZN4core3ptr117drop_in_place$LT$tokio..sync..mutex..Mutex$LT$reach_server..client..Client$GT$..lock..$u7b$$u7b$closure$u7d$$u7d$$GT$17hb092b026790b1fccE@4HA":
.seh_proc "?dtor$6@?0?_ZN4core3ptr117drop_in_place$LT$tokio..sync..mutex..Mutex$LT$reach_server..client..Client$GT$..lock..$u7b$$u7b$closure$u7d$$u7d$$GT$17hb092b026790b1fccE@4HA"
.LBB41_6:
	movq	%rdx, 16(%rsp)
	pushq	%rbp
	.seh_pushreg %rbp
	subq	$32, %rsp
	.seh_stackalloc 32
	leaq	48(%rdx), %rbp
	.seh_endprologue
	movq	-16(%rbp), %rax
	movq	48(%rax), %rcx
	movq	56(%rax), %rdx
	callq	_ZN4core3ptr108drop_in_place$LT$tokio..util..cacheline..CachePadded$LT$tokio..sync..task..atomic_waker..AtomicWaker$GT$$GT$17h55872739accc4d3bE
	nop
	addq	$32, %rsp
	popq	%rbp
	retq
.Lfunc_end14:
	.seh_handlerdata
	.section	.text,"xr",one_only,_ZN4core3ptr117drop_in_place$LT$tokio..sync..mutex..Mutex$LT$reach_server..client..Client$GT$..lock..$u7b$$u7b$closure$u7d$$u7d$$GT$17hb092b026790b1fccE
	.seh_endproc
	.section	.xdata,"dr",associative,_ZN4core3ptr117drop_in_place$LT$tokio..sync..mutex..Mutex$LT$reach_server..client..Client$GT$..lock..$u7b$$u7b$closure$u7d$$u7d$$GT$17hb092b026790b1fccE
	.p2align	2, 0x0
$cppxdata$_ZN4core3ptr117drop_in_place$LT$tokio..sync..mutex..Mutex$LT$reach_server..client..Client$GT$..lock..$u7b$$u7b$closure$u7d$$u7d$$GT$17hb092b026790b1fccE:
	.long	429065506
	.long	1
	.long	($stateUnwindMap$_ZN4core3ptr117drop_in_place$LT$tokio..sync..mutex..Mutex$LT$reach_server..client..Client$GT$..lock..$u7b$$u7b$closure$u7d$$u7d$$GT$17hb092b026790b1fccE)@IMGREL
	.long	0
	.long	0
	.long	3
	.long	($ip2state$_ZN4core3ptr117drop_in_place$LT$tokio..sync..mutex..Mutex$LT$reach_server..client..Client$GT$..lock..$u7b$$u7b$closure$u7d$$u7d$$GT$17hb092b026790b1fccE)@IMGREL
	.long	40
	.long	0
	.long	1
$stateUnwindMap$_ZN4core3ptr117drop_in_place$LT$tokio..sync..mutex..Mutex$LT$reach_server..client..Client$GT$..lock..$u7b$$u7b$closure$u7d$$u7d$$GT$17hb092b026790b1fccE:
	.long	-1
	.long	"?dtor$6@?0?_ZN4core3ptr117drop_in_place$LT$tokio..sync..mutex..Mutex$LT$reach_server..client..Client$GT$..lock..$u7b$$u7b$closure$u7d$$u7d$$GT$17hb092b026790b1fccE@4HA"@IMGREL
$ip2state$_ZN4core3ptr117drop_in_place$LT$tokio..sync..mutex..Mutex$LT$reach_server..client..Client$GT$..lock..$u7b$$u7b$closure$u7d$$u7d$$GT$17hb092b026790b1fccE:
	.long	.Lfunc_begin14@IMGREL
	.long	-1
	.long	.Ltmp48@IMGREL+1
	.long	0
	.long	.Ltmp49@IMGREL+1
	.long	-1
	.section	.text,"xr",one_only,_ZN4core3ptr117drop_in_place$LT$tokio..sync..mutex..Mutex$LT$reach_server..client..Client$GT$..lock..$u7b$$u7b$closure$u7d$$u7d$$GT$17hb092b026790b1fccE

	.def	_ZN4core3ptr118drop_in_place$LT$core..option..Option$LT$tokio..sync..mpsc..block..Read$LT$reach_server..enums..S2CCommand$GT$$GT$$GT$17h8f7f7b4ad38c7be5E;
	.scl	3;
	.type	32;
	.endef
	.section	.text,"xr",one_only,_ZN4core3ptr118drop_in_place$LT$core..option..Option$LT$tokio..sync..mpsc..block..Read$LT$reach_server..enums..S2CCommand$GT$$GT$$GT$17h8f7f7b4ad38c7be5E
	.p2align	4, 0x90
_ZN4core3ptr118drop_in_place$LT$core..option..Option$LT$tokio..sync..mpsc..block..Read$LT$reach_server..enums..S2CCommand$GT$$GT$$GT$17h8f7f7b4ad38c7be5E:
	movq	(%rcx), %rax
	cmpq	$7, %rax
	je	.LBB42_6
	cmpl	$6, %eax
	je	.LBB42_6
	leaq	-2(%rax), %r8
	decq	%rax
	xorl	%edx, %edx
	cmpq	$4, %r8
	cmovbq	%rax, %rdx
	cmpq	$3, %rdx
	je	.LBB42_5
	testq	%rdx, %rdx
	jne	.LBB42_6
	jmp	_ZN4core3ptr55drop_in_place$LT$tokio..net..tcp..stream..TcpStream$GT$17hacadbfd7a24324b6E
.LBB42_5:
	movq	16(%rcx), %rdx
	testq	%rdx, %rdx
	je	.LBB42_6
	movq	8(%rcx), %rcx
	movl	$1, %r8d
	jmp	__rust_dealloc
.LBB42_6:
	retq

	.def	_ZN4core3ptr118drop_in_place$LT$tokio..util..atomic_cell..AtomicCell$LT$tokio..runtime..scheduler..multi_thread..worker..Core$GT$$GT$17hbfda0a0e519707e3E;
	.scl	3;
	.type	32;
	.endef
	.section	.text,"xr",one_only,_ZN4core3ptr118drop_in_place$LT$tokio..util..atomic_cell..AtomicCell$LT$tokio..runtime..scheduler..multi_thread..worker..Core$GT$$GT$17hbfda0a0e519707e3E
	.p2align	4, 0x90
_ZN4core3ptr118drop_in_place$LT$tokio..util..atomic_cell..AtomicCell$LT$tokio..runtime..scheduler..multi_thread..worker..Core$GT$$GT$17hbfda0a0e519707e3E:
.seh_proc _ZN4core3ptr118drop_in_place$LT$tokio..util..atomic_cell..AtomicCell$LT$tokio..runtime..scheduler..multi_thread..worker..Core$GT$$GT$17hbfda0a0e519707e3E
	subq	$40, %rsp
	.seh_stackalloc 40
	.seh_endprologue
	xorl	%eax, %eax
	xchgq	%rax, (%rcx)
	movq	%rax, 32(%rsp)
	testq	%rax, %rax
	je	.LBB43_2
	leaq	32(%rsp), %rcx
	callq	_ZN4core3ptr99drop_in_place$LT$alloc..boxed..Box$LT$tokio..runtime..scheduler..multi_thread..worker..Core$GT$$GT$17h6a9ce3676224f7c8E
.LBB43_2:
	nop
	addq	$40, %rsp
	retq
	.seh_endproc

	.def	_ZN4core3ptr120drop_in_place$LT$reach_server..client..Client..main_thread..$u7b$$u7b$closure$u7d$$u7d$..$u7b$$u7b$closure$u7d$$u7d$$GT$17h2dc2909ab3f0b391E;
	.scl	3;
	.type	32;
	.endef
	.section	.text,"xr",one_only,_ZN4core3ptr120drop_in_place$LT$reach_server..client..Client..main_thread..$u7b$$u7b$closure$u7d$$u7d$..$u7b$$u7b$closure$u7d$$u7d$$GT$17h2dc2909ab3f0b391E
	.p2align	4, 0x90
_ZN4core3ptr120drop_in_place$LT$reach_server..client..Client..main_thread..$u7b$$u7b$closure$u7d$$u7d$..$u7b$$u7b$closure$u7d$$u7d$$GT$17h2dc2909ab3f0b391E:
.Lfunc_begin15:
.seh_proc _ZN4core3ptr120drop_in_place$LT$reach_server..client..Client..main_thread..$u7b$$u7b$closure$u7d$$u7d$..$u7b$$u7b$closure$u7d$$u7d$$GT$17h2dc2909ab3f0b391E
	.seh_handler __CxxFrameHandler3, @unwind, @except
	pushq	%rbp
	.seh_pushreg %rbp
	pushq	%rsi
	.seh_pushreg %rsi
	subq	$56, %rsp
	.seh_stackalloc 56
	leaq	48(%rsp), %rbp
	.seh_setframe %rbp, 48
	.seh_endprologue
	movq	$-2, (%rbp)
	movq	%rcx, %rsi
	movzbl	1096(%rcx), %eax
	testl	%eax, %eax
	je	.LBB44_4
	cmpl	$3, %eax
	je	.LBB44_7
	cmpl	$4, %eax
	jne	.LBB44_3
	movq	1048(%rsi), %rdx
	testq	%rdx, %rdx
	je	.LBB44_17
	movq	1040(%rsi), %rcx
	movl	$1, %r8d
	callq	__rust_dealloc
.LBB44_17:
	movq	1088(%rsi), %rcx
.Ltmp50:
	movl	$1, %edx
	movq	%rsi, -8(%rbp)
	callq	_ZN5tokio4sync15batch_semaphore9Semaphore7release17h044b86ca4cbe5f93E
.Ltmp51:
	jmp	.LBB44_18
.LBB44_4:
	movq	(%rsi), %rcx
	lock		decq	(%rcx)
	je	.LBB44_6
.LBB44_3:
	addq	$56, %rsp
	popq	%rsi
	popq	%rbp
	retq
.LBB44_7:
	cmpb	$3, 1208(%rsi)
	movq	%rsi, -8(%rbp)
	jne	.LBB44_13
	movq	-8(%rbp), %rax
	cmpb	$3, 1200(%rax)
	jne	.LBB44_13
	movq	-8(%rbp), %rax
	cmpb	$4, 1136(%rax)
	jne	.LBB44_13
	movq	-8(%rbp), %rax
	leaq	1144(%rax), %rcx
.Ltmp52:
	callq	_ZN79_$LT$tokio..sync..batch_semaphore..Acquire$u20$as$u20$core..ops..drop..Drop$GT$4drop17h3e677387310bd09bE
.Ltmp53:
	movq	-8(%rbp), %rax
	movq	1152(%rax), %rax
	testq	%rax, %rax
	je	.LBB44_13
	movq	-8(%rbp), %rcx
	movq	1160(%rcx), %rcx
.Ltmp54:
	callq	*24(%rax)
.Ltmp55:
.LBB44_13:
	movq	-8(%rbp), %rax
	movq	1048(%rax), %rdx
	testq	%rdx, %rdx
	je	.LBB44_18
	movq	-8(%rbp), %rax
	movq	1040(%rax), %rcx
	movl	$1, %r8d
	callq	__rust_dealloc
.LBB44_18:
	movq	-8(%rbp), %rax
	movq	(%rax), %rcx
	lock		decq	(%rcx)
	jne	.LBB44_3
.LBB44_6:
	#MEMBARRIER
	addq	$56, %rsp
	popq	%rsi
	popq	%rbp
	jmp	_ZN5alloc4sync12Arc$LT$T$GT$9drop_slow17hac02038de5e3a851E
	.seh_handlerdata
	.long	($cppxdata$_ZN4core3ptr120drop_in_place$LT$reach_server..client..Client..main_thread..$u7b$$u7b$closure$u7d$$u7d$..$u7b$$u7b$closure$u7d$$u7d$$GT$17h2dc2909ab3f0b391E)@IMGREL
	.section	.text,"xr",one_only,_ZN4core3ptr120drop_in_place$LT$reach_server..client..Client..main_thread..$u7b$$u7b$closure$u7d$$u7d$..$u7b$$u7b$closure$u7d$$u7d$$GT$17h2dc2909ab3f0b391E
	.seh_endproc
	.def	"?dtor$19@?0?_ZN4core3ptr120drop_in_place$LT$reach_server..client..Client..main_thread..$u7b$$u7b$closure$u7d$$u7d$..$u7b$$u7b$closure$u7d$$u7d$$GT$17h2dc2909ab3f0b391E@4HA";
	.scl	3;
	.type	32;
	.endef
	.p2align	4, 0x90
"?dtor$19@?0?_ZN4core3ptr120drop_in_place$LT$reach_server..client..Client..main_thread..$u7b$$u7b$closure$u7d$$u7d$..$u7b$$u7b$closure$u7d$$u7d$$GT$17h2dc2909ab3f0b391E@4HA":
.seh_proc "?dtor$19@?0?_ZN4core3ptr120drop_in_place$LT$reach_server..client..Client..main_thread..$u7b$$u7b$closure$u7d$$u7d$..$u7b$$u7b$closure$u7d$$u7d$$GT$17h2dc2909ab3f0b391E@4HA"
.LBB44_19:
	movq	%rdx, 16(%rsp)
	pushq	%rbp
	.seh_pushreg %rbp
	pushq	%rsi
	.seh_pushreg %rsi
	subq	$40, %rsp
	.seh_stackalloc 40
	leaq	48(%rdx), %rbp
	.seh_endprologue
	movq	-8(%rbp), %rax
	movq	1040(%rax), %rcx
	movq	1048(%rax), %rdx
	callq	_ZN4core3ptr42drop_in_place$LT$alloc..string..String$GT$17hc2712d0046d56c80E
	nop
	addq	$40, %rsp
	popq	%rsi
	popq	%rbp
	retq
	.seh_handlerdata
	.section	.text,"xr",one_only,_ZN4core3ptr120drop_in_place$LT$reach_server..client..Client..main_thread..$u7b$$u7b$closure$u7d$$u7d$..$u7b$$u7b$closure$u7d$$u7d$$GT$17h2dc2909ab3f0b391E
	.seh_endproc
	.def	"?dtor$20@?0?_ZN4core3ptr120drop_in_place$LT$reach_server..client..Client..main_thread..$u7b$$u7b$closure$u7d$$u7d$..$u7b$$u7b$closure$u7d$$u7d$$GT$17h2dc2909ab3f0b391E@4HA";
	.scl	3;
	.type	32;
	.endef
	.p2align	4, 0x90
"?dtor$20@?0?_ZN4core3ptr120drop_in_place$LT$reach_server..client..Client..main_thread..$u7b$$u7b$closure$u7d$$u7d$..$u7b$$u7b$closure$u7d$$u7d$$GT$17h2dc2909ab3f0b391E@4HA":
.seh_proc "?dtor$20@?0?_ZN4core3ptr120drop_in_place$LT$reach_server..client..Client..main_thread..$u7b$$u7b$closure$u7d$$u7d$..$u7b$$u7b$closure$u7d$$u7d$$GT$17h2dc2909ab3f0b391E@4HA"
.LBB44_20:
	movq	%rdx, 16(%rsp)
	pushq	%rbp
	.seh_pushreg %rbp
	pushq	%rsi
	.seh_pushreg %rsi
	subq	$40, %rsp
	.seh_stackalloc 40
	leaq	48(%rdx), %rbp
	.seh_endprologue
	movq	-8(%rbp), %rax
	movq	(%rax), %rcx
	callq	_ZN4core3ptr158drop_in_place$LT$alloc..sync..Arc$LT$tokio..sync..mutex..Mutex$LT$std..collections..hash..map..HashMap$LT$i64$C$reach_server..enums..C2SPacket$GT$$GT$$GT$$GT$17h085fd0c26140c898E
	nop
	addq	$40, %rsp
	popq	%rsi
	popq	%rbp
	retq
	.seh_handlerdata
	.section	.text,"xr",one_only,_ZN4core3ptr120drop_in_place$LT$reach_server..client..Client..main_thread..$u7b$$u7b$closure$u7d$$u7d$..$u7b$$u7b$closure$u7d$$u7d$$GT$17h2dc2909ab3f0b391E
	.seh_endproc
	.def	"?dtor$21@?0?_ZN4core3ptr120drop_in_place$LT$reach_server..client..Client..main_thread..$u7b$$u7b$closure$u7d$$u7d$..$u7b$$u7b$closure$u7d$$u7d$$GT$17h2dc2909ab3f0b391E@4HA";
	.scl	3;
	.type	32;
	.endef
	.p2align	4, 0x90
"?dtor$21@?0?_ZN4core3ptr120drop_in_place$LT$reach_server..client..Client..main_thread..$u7b$$u7b$closure$u7d$$u7d$..$u7b$$u7b$closure$u7d$$u7d$$GT$17h2dc2909ab3f0b391E@4HA":
.seh_proc "?dtor$21@?0?_ZN4core3ptr120drop_in_place$LT$reach_server..client..Client..main_thread..$u7b$$u7b$closure$u7d$$u7d$..$u7b$$u7b$closure$u7d$$u7d$$GT$17h2dc2909ab3f0b391E@4HA"
.LBB44_21:
	movq	%rdx, 16(%rsp)
	pushq	%rbp
	.seh_pushreg %rbp
	pushq	%rsi
	.seh_pushreg %rsi
	subq	$40, %rsp
	.seh_stackalloc 40
	leaq	48(%rdx), %rbp
	.seh_endprologue
	movq	-8(%rbp), %rax
	movq	1152(%rax), %rcx
	movq	1160(%rax), %rdx
	callq	_ZN4core3ptr108drop_in_place$LT$tokio..util..cacheline..CachePadded$LT$tokio..sync..task..atomic_waker..AtomicWaker$GT$$GT$17h55872739accc4d3bE
	nop
	addq	$40, %rsp
	popq	%rsi
	popq	%rbp
	retq
.Lfunc_end15:
	.seh_handlerdata
	.section	.text,"xr",one_only,_ZN4core3ptr120drop_in_place$LT$reach_server..client..Client..main_thread..$u7b$$u7b$closure$u7d$$u7d$..$u7b$$u7b$closure$u7d$$u7d$$GT$17h2dc2909ab3f0b391E
	.seh_endproc
	.section	.xdata,"dr",associative,_ZN4core3ptr120drop_in_place$LT$reach_server..client..Client..main_thread..$u7b$$u7b$closure$u7d$$u7d$..$u7b$$u7b$closure$u7d$$u7d$$GT$17h2dc2909ab3f0b391E
	.p2align	2, 0x0
$cppxdata$_ZN4core3ptr120drop_in_place$LT$reach_server..client..Client..main_thread..$u7b$$u7b$closure$u7d$$u7d$..$u7b$$u7b$closure$u7d$$u7d$$GT$17h2dc2909ab3f0b391E:
	.long	429065506
	.long	3
	.long	($stateUnwindMap$_ZN4core3ptr120drop_in_place$LT$reach_server..client..Client..main_thread..$u7b$$u7b$closure$u7d$$u7d$..$u7b$$u7b$closure$u7d$$u7d$$GT$17h2dc2909ab3f0b391E)@IMGREL
	.long	0
	.long	0
	.long	5
	.long	($ip2state$_ZN4core3ptr120drop_in_place$LT$reach_server..client..Client..main_thread..$u7b$$u7b$closure$u7d$$u7d$..$u7b$$u7b$closure$u7d$$u7d$$GT$17h2dc2909ab3f0b391E)@IMGREL
	.long	48
	.long	0
	.long	1
$stateUnwindMap$_ZN4core3ptr120drop_in_place$LT$reach_server..client..Client..main_thread..$u7b$$u7b$closure$u7d$$u7d$..$u7b$$u7b$closure$u7d$$u7d$$GT$17h2dc2909ab3f0b391E:
	.long	-1
	.long	"?dtor$20@?0?_ZN4core3ptr120drop_in_place$LT$reach_server..client..Client..main_thread..$u7b$$u7b$closure$u7d$$u7d$..$u7b$$u7b$closure$u7d$$u7d$$GT$17h2dc2909ab3f0b391E@4HA"@IMGREL
	.long	0
	.long	"?dtor$19@?0?_ZN4core3ptr120drop_in_place$LT$reach_server..client..Client..main_thread..$u7b$$u7b$closure$u7d$$u7d$..$u7b$$u7b$closure$u7d$$u7d$$GT$17h2dc2909ab3f0b391E@4HA"@IMGREL
	.long	1
	.long	"?dtor$21@?0?_ZN4core3ptr120drop_in_place$LT$reach_server..client..Client..main_thread..$u7b$$u7b$closure$u7d$$u7d$..$u7b$$u7b$closure$u7d$$u7d$$GT$17h2dc2909ab3f0b391E@4HA"@IMGREL
$ip2state$_ZN4core3ptr120drop_in_place$LT$reach_server..client..Client..main_thread..$u7b$$u7b$closure$u7d$$u7d$..$u7b$$u7b$closure$u7d$$u7d$$GT$17h2dc2909ab3f0b391E:
	.long	.Lfunc_begin15@IMGREL
	.long	-1
	.long	.Ltmp50@IMGREL+1
	.long	0
	.long	.Ltmp52@IMGREL+1
	.long	2
	.long	.Ltmp54@IMGREL+1
	.long	1
	.long	.Ltmp55@IMGREL+1
	.long	-1
	.section	.text,"xr",one_only,_ZN4core3ptr120drop_in_place$LT$reach_server..client..Client..main_thread..$u7b$$u7b$closure$u7d$$u7d$..$u7b$$u7b$closure$u7d$$u7d$$GT$17h2dc2909ab3f0b391E

	.def	_ZN4core3ptr120drop_in_place$LT$tokio..sync..mutex..Mutex$LT$reach_server..client..Client$GT$..acquire..$u7b$$u7b$closure$u7d$$u7d$$GT$17h532d159683a6a3b2E;
	.scl	3;
	.type	32;
	.endef
	.section	.text,"xr",one_only,_ZN4core3ptr120drop_in_place$LT$tokio..sync..mutex..Mutex$LT$reach_server..client..Client$GT$..acquire..$u7b$$u7b$closure$u7d$$u7d$$GT$17h532d159683a6a3b2E
	.p2align	4, 0x90
_ZN4core3ptr120drop_in_place$LT$tokio..sync..mutex..Mutex$LT$reach_server..client..Client$GT$..acquire..$u7b$$u7b$closure$u7d$$u7d$$GT$17h532d159683a6a3b2E:
.Lfunc_begin16:
.seh_proc _ZN4core3ptr120drop_in_place$LT$tokio..sync..mutex..Mutex$LT$reach_server..client..Client$GT$..acquire..$u7b$$u7b$closure$u7d$$u7d$$GT$17h532d159683a6a3b2E
	.seh_handler __CxxFrameHandler3, @unwind, @except
	pushq	%rbp
	.seh_pushreg %rbp
	subq	$48, %rsp
	.seh_stackalloc 48
	leaq	48(%rsp), %rbp
	.seh_setframe %rbp, 48
	.seh_endprologue
	movq	$-2, -8(%rbp)
	cmpb	$4, 16(%rcx)
	jne	.LBB45_3
	movq	%rcx, -16(%rbp)
	addq	$24, %rcx
.Ltmp56:
	callq	_ZN79_$LT$tokio..sync..batch_semaphore..Acquire$u20$as$u20$core..ops..drop..Drop$GT$4drop17h3e677387310bd09bE
.Ltmp57:
	movq	-16(%rbp), %rcx
	movq	32(%rcx), %rax
	testq	%rax, %rax
	je	.LBB45_3
	movq	40(%rcx), %rcx
	addq	$48, %rsp
	popq	%rbp
	rex64 jmpq	*24(%rax)
.LBB45_3:
	nop
	addq	$48, %rsp
	popq	%rbp
	retq
	.seh_handlerdata
	.long	($cppxdata$_ZN4core3ptr120drop_in_place$LT$tokio..sync..mutex..Mutex$LT$reach_server..client..Client$GT$..acquire..$u7b$$u7b$closure$u7d$$u7d$$GT$17h532d159683a6a3b2E)@IMGREL
	.section	.text,"xr",one_only,_ZN4core3ptr120drop_in_place$LT$tokio..sync..mutex..Mutex$LT$reach_server..client..Client$GT$..acquire..$u7b$$u7b$closure$u7d$$u7d$$GT$17h532d159683a6a3b2E
	.seh_endproc
	.def	"?dtor$4@?0?_ZN4core3ptr120drop_in_place$LT$tokio..sync..mutex..Mutex$LT$reach_server..client..Client$GT$..acquire..$u7b$$u7b$closure$u7d$$u7d$$GT$17h532d159683a6a3b2E@4HA";
	.scl	3;
	.type	32;
	.endef
	.p2align	4, 0x90
"?dtor$4@?0?_ZN4core3ptr120drop_in_place$LT$tokio..sync..mutex..Mutex$LT$reach_server..client..Client$GT$..acquire..$u7b$$u7b$closure$u7d$$u7d$$GT$17h532d159683a6a3b2E@4HA":
.seh_proc "?dtor$4@?0?_ZN4core3ptr120drop_in_place$LT$tokio..sync..mutex..Mutex$LT$reach_server..client..Client$GT$..acquire..$u7b$$u7b$closure$u7d$$u7d$$GT$17h532d159683a6a3b2E@4HA"
.LBB45_4:
	movq	%rdx, 16(%rsp)
	pushq	%rbp
	.seh_pushreg %rbp
	subq	$32, %rsp
	.seh_stackalloc 32
	leaq	48(%rdx), %rbp
	.seh_endprologue
	movq	-16(%rbp), %rax
	movq	32(%rax), %rcx
	movq	40(%rax), %rdx
	callq	_ZN4core3ptr108drop_in_place$LT$tokio..util..cacheline..CachePadded$LT$tokio..sync..task..atomic_waker..AtomicWaker$GT$$GT$17h55872739accc4d3bE
	nop
	addq	$32, %rsp
	popq	%rbp
	retq
.Lfunc_end16:
	.seh_handlerdata
	.section	.text,"xr",one_only,_ZN4core3ptr120drop_in_place$LT$tokio..sync..mutex..Mutex$LT$reach_server..client..Client$GT$..acquire..$u7b$$u7b$closure$u7d$$u7d$$GT$17h532d159683a6a3b2E
	.seh_endproc
	.section	.xdata,"dr",associative,_ZN4core3ptr120drop_in_place$LT$tokio..sync..mutex..Mutex$LT$reach_server..client..Client$GT$..acquire..$u7b$$u7b$closure$u7d$$u7d$$GT$17h532d159683a6a3b2E
	.p2align	2, 0x0
$cppxdata$_ZN4core3ptr120drop_in_place$LT$tokio..sync..mutex..Mutex$LT$reach_server..client..Client$GT$..acquire..$u7b$$u7b$closure$u7d$$u7d$$GT$17h532d159683a6a3b2E:
	.long	429065506
	.long	1
	.long	($stateUnwindMap$_ZN4core3ptr120drop_in_place$LT$tokio..sync..mutex..Mutex$LT$reach_server..client..Client$GT$..acquire..$u7b$$u7b$closure$u7d$$u7d$$GT$17h532d159683a6a3b2E)@IMGREL
	.long	0
	.long	0
	.long	3
	.long	($ip2state$_ZN4core3ptr120drop_in_place$LT$tokio..sync..mutex..Mutex$LT$reach_server..client..Client$GT$..acquire..$u7b$$u7b$closure$u7d$$u7d$$GT$17h532d159683a6a3b2E)@IMGREL
	.long	40
	.long	0
	.long	1
$stateUnwindMap$_ZN4core3ptr120drop_in_place$LT$tokio..sync..mutex..Mutex$LT$reach_server..client..Client$GT$..acquire..$u7b$$u7b$closure$u7d$$u7d$$GT$17h532d159683a6a3b2E:
	.long	-1
	.long	"?dtor$4@?0?_ZN4core3ptr120drop_in_place$LT$tokio..sync..mutex..Mutex$LT$reach_server..client..Client$GT$..acquire..$u7b$$u7b$closure$u7d$$u7d$$GT$17h532d159683a6a3b2E@4HA"@IMGREL
$ip2state$_ZN4core3ptr120drop_in_place$LT$tokio..sync..mutex..Mutex$LT$reach_server..client..Client$GT$..acquire..$u7b$$u7b$closure$u7d$$u7d$$GT$17h532d159683a6a3b2E:
	.long	.Lfunc_begin16@IMGREL
	.long	-1
	.long	.Ltmp56@IMGREL+1
	.long	0
	.long	.Ltmp57@IMGREL+1
	.long	-1
	.section	.text,"xr",one_only,_ZN4core3ptr120drop_in_place$LT$tokio..sync..mutex..Mutex$LT$reach_server..client..Client$GT$..acquire..$u7b$$u7b$closure$u7d$$u7d$$GT$17h532d159683a6a3b2E

	.def	_ZN4core3ptr121drop_in_place$LT$core..option..Option$LT$alloc..boxed..Box$LT$tokio..runtime..scheduler..current_thread..Core$GT$$GT$$GT$17h0d796fe0100ae761E;
	.scl	3;
	.type	32;
	.endef
	.section	.text,"xr",one_only,_ZN4core3ptr121drop_in_place$LT$core..option..Option$LT$alloc..boxed..Box$LT$tokio..runtime..scheduler..current_thread..Core$GT$$GT$$GT$17h0d796fe0100ae761E
	.p2align	4, 0x90
_ZN4core3ptr121drop_in_place$LT$core..option..Option$LT$alloc..boxed..Box$LT$tokio..runtime..scheduler..current_thread..Core$GT$$GT$$GT$17h0d796fe0100ae761E:
	testq	%rcx, %rcx
	je	.LBB46_1
	jmp	_ZN4core3ptr93drop_in_place$LT$alloc..boxed..Box$LT$tokio..runtime..scheduler..current_thread..Core$GT$$GT$17h4246c6456b95f95fE
.LBB46_1:
	retq

	.def	_ZN4core3ptr121drop_in_place$LT$reach_server..server..Server..start_server..$u7b$$u7b$closure$u7d$$u7d$..$u7b$$u7b$closure$u7d$$u7d$$GT$17hcace72f3a4f4f9d9E;
	.scl	3;
	.type	32;
	.endef
	.section	.text,"xr",one_only,_ZN4core3ptr121drop_in_place$LT$reach_server..server..Server..start_server..$u7b$$u7b$closure$u7d$$u7d$..$u7b$$u7b$closure$u7d$$u7d$$GT$17hcace72f3a4f4f9d9E
	.p2align	4, 0x90
_ZN4core3ptr121drop_in_place$LT$reach_server..server..Server..start_server..$u7b$$u7b$closure$u7d$$u7d$..$u7b$$u7b$closure$u7d$$u7d$$GT$17hcace72f3a4f4f9d9E:
.Lfunc_begin17:
.seh_proc _ZN4core3ptr121drop_in_place$LT$reach_server..server..Server..start_server..$u7b$$u7b$closure$u7d$$u7d$..$u7b$$u7b$closure$u7d$$u7d$$GT$17hcace72f3a4f4f9d9E
	.seh_handler __CxxFrameHandler3, @unwind, @except
	pushq	%rbp
	.seh_pushreg %rbp
	subq	$48, %rsp
	.seh_stackalloc 48
	leaq	48(%rsp), %rbp
	.seh_setframe %rbp, 48
	.seh_endprologue
	movq	$-2, -8(%rbp)
	movzbl	112(%rcx), %eax
	cmpl	$4, %eax
	movq	%rcx, -16(%rbp)
	je	.LBB47_12
	cmpl	$3, %eax
	je	.LBB47_4
	testl	%eax, %eax
	je	.LBB47_15
	addq	$48, %rsp
	popq	%rbp
	retq
.LBB47_12:
	addq	$120, %rcx
.Ltmp58:
	callq	_ZN4core3ptr90drop_in_place$LT$reach_server..server..Server..set_client..$u7b$$u7b$closure$u7d$$u7d$$GT$17h36c121a86d9694dfE
.Ltmp59:
	movq	-16(%rbp), %rax
	cmpl	$2, 40(%rax)
	jne	.LBB47_15
.Ltmp60:
	movq	-16(%rbp), %rax
	leaq	40(%rax), %rcx
	callq	_ZN4core3ptr152drop_in_place$LT$core..result..Result$LT$$LP$tokio..net..tcp..stream..TcpStream$C$core..net..socket_addr..SocketAddr$RP$$C$std..io..error..Error$GT$$GT$17h108b25615cc8fa9bE
.Ltmp61:
	jmp	.LBB47_15
.LBB47_4:
	cmpb	$3, 296(%rcx)
	jne	.LBB47_15
	movq	-16(%rbp), %rax
	cmpb	$3, 288(%rax)
	jne	.LBB47_15
	movq	-16(%rbp), %rax
	cmpb	$3, 280(%rax)
	jne	.LBB47_15
	movq	-16(%rbp), %rax
	cmpb	$3, 272(%rax)
	jne	.LBB47_15
	movq	-16(%rbp), %rax
	leaq	208(%rax), %rcx
.Ltmp62:
	callq	_ZN85_$LT$tokio..runtime..io..scheduled_io..Readiness$u20$as$u20$core..ops..drop..Drop$GT$4drop17h7e2b698053fd5a97E
.Ltmp63:
	movq	-16(%rbp), %rax
	movq	232(%rax), %rax
	testq	%rax, %rax
	je	.LBB47_15
	movq	-16(%rbp), %rcx
	movq	240(%rcx), %rcx
.Ltmp64:
	callq	*24(%rax)
.Ltmp65:
.LBB47_15:
	movq	-16(%rbp), %rcx
	addq	$48, %rsp
	popq	%rbp
	jmp	_ZN4core3ptr59drop_in_place$LT$tokio..net..tcp..listener..TcpListener$GT$17hbeeff13da3fb5fd9E
	.seh_handlerdata
	.long	($cppxdata$_ZN4core3ptr121drop_in_place$LT$reach_server..server..Server..start_server..$u7b$$u7b$closure$u7d$$u7d$..$u7b$$u7b$closure$u7d$$u7d$$GT$17hcace72f3a4f4f9d9E)@IMGREL
	.section	.text,"xr",one_only,_ZN4core3ptr121drop_in_place$LT$reach_server..server..Server..start_server..$u7b$$u7b$closure$u7d$$u7d$..$u7b$$u7b$closure$u7d$$u7d$$GT$17hcace72f3a4f4f9d9E
	.seh_endproc
	.def	"?dtor$11@?0?_ZN4core3ptr121drop_in_place$LT$reach_server..server..Server..start_server..$u7b$$u7b$closure$u7d$$u7d$..$u7b$$u7b$closure$u7d$$u7d$$GT$17hcace72f3a4f4f9d9E@4HA";
	.scl	3;
	.type	32;
	.endef
	.p2align	4, 0x90
"?dtor$11@?0?_ZN4core3ptr121drop_in_place$LT$reach_server..server..Server..start_server..$u7b$$u7b$closure$u7d$$u7d$..$u7b$$u7b$closure$u7d$$u7d$$GT$17hcace72f3a4f4f9d9E@4HA":
.seh_proc "?dtor$11@?0?_ZN4core3ptr121drop_in_place$LT$reach_server..server..Server..start_server..$u7b$$u7b$closure$u7d$$u7d$..$u7b$$u7b$closure$u7d$$u7d$$GT$17hcace72f3a4f4f9d9E@4HA"
.LBB47_11:
	movq	%rdx, 16(%rsp)
	pushq	%rbp
	.seh_pushreg %rbp
	subq	$32, %rsp
	.seh_stackalloc 32
	leaq	48(%rdx), %rbp
	.seh_endprologue
	movq	-16(%rbp), %rcx
	callq	_ZN4core3ptr59drop_in_place$LT$tokio..net..tcp..listener..TcpListener$GT$17hbeeff13da3fb5fd9E
	nop
	addq	$32, %rsp
	popq	%rbp
	retq
	.seh_handlerdata
	.section	.text,"xr",one_only,_ZN4core3ptr121drop_in_place$LT$reach_server..server..Server..start_server..$u7b$$u7b$closure$u7d$$u7d$..$u7b$$u7b$closure$u7d$$u7d$$GT$17hcace72f3a4f4f9d9E
	.seh_endproc
	.def	"?dtor$16@?0?_ZN4core3ptr121drop_in_place$LT$reach_server..server..Server..start_server..$u7b$$u7b$closure$u7d$$u7d$..$u7b$$u7b$closure$u7d$$u7d$$GT$17hcace72f3a4f4f9d9E@4HA";
	.scl	3;
	.type	32;
	.endef
	.p2align	4, 0x90
"?dtor$16@?0?_ZN4core3ptr121drop_in_place$LT$reach_server..server..Server..start_server..$u7b$$u7b$closure$u7d$$u7d$..$u7b$$u7b$closure$u7d$$u7d$$GT$17hcace72f3a4f4f9d9E@4HA":
.seh_proc "?dtor$16@?0?_ZN4core3ptr121drop_in_place$LT$reach_server..server..Server..start_server..$u7b$$u7b$closure$u7d$$u7d$..$u7b$$u7b$closure$u7d$$u7d$$GT$17hcace72f3a4f4f9d9E@4HA"
.LBB47_16:
	movq	%rdx, 16(%rsp)
	pushq	%rbp
	.seh_pushreg %rbp
	subq	$32, %rsp
	.seh_stackalloc 32
	leaq	48(%rdx), %rbp
	.seh_endprologue
	movq	-16(%rbp), %rax
	cmpl	$2, 40(%rax)
	jne	.LBB47_17
	movq	%rax, %rcx
	addq	$40, %rcx
	callq	_ZN4core3ptr152drop_in_place$LT$core..result..Result$LT$$LP$tokio..net..tcp..stream..TcpStream$C$core..net..socket_addr..SocketAddr$RP$$C$std..io..error..Error$GT$$GT$17h108b25615cc8fa9bE
	nop
	addq	$32, %rsp
	popq	%rbp
	retq
.LBB47_17:
	addq	$32, %rsp
	popq	%rbp
	retq
	.seh_handlerdata
	.section	.text,"xr",one_only,_ZN4core3ptr121drop_in_place$LT$reach_server..server..Server..start_server..$u7b$$u7b$closure$u7d$$u7d$..$u7b$$u7b$closure$u7d$$u7d$$GT$17hcace72f3a4f4f9d9E
	.seh_endproc
	.def	"?dtor$19@?0?_ZN4core3ptr121drop_in_place$LT$reach_server..server..Server..start_server..$u7b$$u7b$closure$u7d$$u7d$..$u7b$$u7b$closure$u7d$$u7d$$GT$17hcace72f3a4f4f9d9E@4HA";
	.scl	3;
	.type	32;
	.endef
	.p2align	4, 0x90
"?dtor$19@?0?_ZN4core3ptr121drop_in_place$LT$reach_server..server..Server..start_server..$u7b$$u7b$closure$u7d$$u7d$..$u7b$$u7b$closure$u7d$$u7d$$GT$17hcace72f3a4f4f9d9E@4HA":
.seh_proc "?dtor$19@?0?_ZN4core3ptr121drop_in_place$LT$reach_server..server..Server..start_server..$u7b$$u7b$closure$u7d$$u7d$..$u7b$$u7b$closure$u7d$$u7d$$GT$17hcace72f3a4f4f9d9E@4HA"
.LBB47_19:
	movq	%rdx, 16(%rsp)
	pushq	%rbp
	.seh_pushreg %rbp
	subq	$32, %rsp
	.seh_stackalloc 32
	leaq	48(%rdx), %rbp
	.seh_endprologue
	movq	-16(%rbp), %rax
	movq	232(%rax), %rcx
	movq	240(%rax), %rdx
	callq	_ZN4core3ptr108drop_in_place$LT$tokio..util..cacheline..CachePadded$LT$tokio..sync..task..atomic_waker..AtomicWaker$GT$$GT$17h55872739accc4d3bE
	nop
	addq	$32, %rsp
	popq	%rbp
	retq
.Lfunc_end17:
	.seh_handlerdata
	.section	.text,"xr",one_only,_ZN4core3ptr121drop_in_place$LT$reach_server..server..Server..start_server..$u7b$$u7b$closure$u7d$$u7d$..$u7b$$u7b$closure$u7d$$u7d$$GT$17hcace72f3a4f4f9d9E
	.seh_endproc
	.section	.xdata,"dr",associative,_ZN4core3ptr121drop_in_place$LT$reach_server..server..Server..start_server..$u7b$$u7b$closure$u7d$$u7d$..$u7b$$u7b$closure$u7d$$u7d$$GT$17hcace72f3a4f4f9d9E
	.p2align	2, 0x0
$cppxdata$_ZN4core3ptr121drop_in_place$LT$reach_server..server..Server..start_server..$u7b$$u7b$closure$u7d$$u7d$..$u7b$$u7b$closure$u7d$$u7d$$GT$17hcace72f3a4f4f9d9E:
	.long	429065506
	.long	3
	.long	($stateUnwindMap$_ZN4core3ptr121drop_in_place$LT$reach_server..server..Server..start_server..$u7b$$u7b$closure$u7d$$u7d$..$u7b$$u7b$closure$u7d$$u7d$$GT$17hcace72f3a4f4f9d9E)@IMGREL
	.long	0
	.long	0
	.long	6
	.long	($ip2state$_ZN4core3ptr121drop_in_place$LT$reach_server..server..Server..start_server..$u7b$$u7b$closure$u7d$$u7d$..$u7b$$u7b$closure$u7d$$u7d$$GT$17hcace72f3a4f4f9d9E)@IMGREL
	.long	40
	.long	0
	.long	1
$stateUnwindMap$_ZN4core3ptr121drop_in_place$LT$reach_server..server..Server..start_server..$u7b$$u7b$closure$u7d$$u7d$..$u7b$$u7b$closure$u7d$$u7d$$GT$17hcace72f3a4f4f9d9E:
	.long	-1
	.long	"?dtor$11@?0?_ZN4core3ptr121drop_in_place$LT$reach_server..server..Server..start_server..$u7b$$u7b$closure$u7d$$u7d$..$u7b$$u7b$closure$u7d$$u7d$$GT$17hcace72f3a4f4f9d9E@4HA"@IMGREL
	.long	0
	.long	"?dtor$16@?0?_ZN4core3ptr121drop_in_place$LT$reach_server..server..Server..start_server..$u7b$$u7b$closure$u7d$$u7d$..$u7b$$u7b$closure$u7d$$u7d$$GT$17hcace72f3a4f4f9d9E@4HA"@IMGREL
	.long	0
	.long	"?dtor$19@?0?_ZN4core3ptr121drop_in_place$LT$reach_server..server..Server..start_server..$u7b$$u7b$closure$u7d$$u7d$..$u7b$$u7b$closure$u7d$$u7d$$GT$17hcace72f3a4f4f9d9E@4HA"@IMGREL
$ip2state$_ZN4core3ptr121drop_in_place$LT$reach_server..server..Server..start_server..$u7b$$u7b$closure$u7d$$u7d$..$u7b$$u7b$closure$u7d$$u7d$$GT$17hcace72f3a4f4f9d9E:
	.long	.Lfunc_begin17@IMGREL
	.long	-1
	.long	.Ltmp58@IMGREL+1
	.long	1
	.long	.Ltmp60@IMGREL+1
	.long	0
	.long	.Ltmp62@IMGREL+1
	.long	2
	.long	.Ltmp64@IMGREL+1
	.long	0
	.long	.Ltmp65@IMGREL+1
	.long	-1
	.section	.text,"xr",one_only,_ZN4core3ptr121drop_in_place$LT$reach_server..server..Server..start_server..$u7b$$u7b$closure$u7d$$u7d$..$u7b$$u7b$closure$u7d$$u7d$$GT$17hcace72f3a4f4f9d9E

	.def	_ZN4core3ptr121drop_in_place$LT$tokio..sync..mutex..MutexGuard$LT$core..option..Option$LT$tokio..net..tcp..stream..TcpStream$GT$$GT$$GT$17he31c8d3dc972d4a1E;
	.scl	3;
	.type	32;
	.endef
	.section	.text,"xr",one_only,_ZN4core3ptr121drop_in_place$LT$tokio..sync..mutex..MutexGuard$LT$core..option..Option$LT$tokio..net..tcp..stream..TcpStream$GT$$GT$$GT$17he31c8d3dc972d4a1E
	.p2align	4, 0x90
_ZN4core3ptr121drop_in_place$LT$tokio..sync..mutex..MutexGuard$LT$core..option..Option$LT$tokio..net..tcp..stream..TcpStream$GT$$GT$$GT$17he31c8d3dc972d4a1E:
	movl	$1, %edx
	jmp	_ZN5tokio4sync15batch_semaphore9Semaphore7release17h044b86ca4cbe5f93E

	.def	_ZN4core3ptr123drop_in_place$LT$tokio..runtime..context..scoped..Scoped$LT$T$GT$..set..Reset$LT$tokio..runtime..scheduler..Context$GT$$GT$17h630960b27d14e96eE;
	.scl	3;
	.type	32;
	.endef
	.section	.text,"xr",one_only,_ZN4core3ptr123drop_in_place$LT$tokio..runtime..context..scoped..Scoped$LT$T$GT$..set..Reset$LT$tokio..runtime..scheduler..Context$GT$$GT$17h630960b27d14e96eE
	.p2align	4, 0x90
_ZN4core3ptr123drop_in_place$LT$tokio..runtime..context..scoped..Scoped$LT$T$GT$..set..Reset$LT$tokio..runtime..scheduler..Context$GT$$GT$17h630960b27d14e96eE:
	movq	%rdx, (%rcx)
	retq

	.def	_ZN4core3ptr126drop_in_place$LT$reach_server..server..Server..initialize_server..$u7b$$u7b$closure$u7d$$u7d$..$u7b$$u7b$closure$u7d$$u7d$$GT$17h585ed109664e3636E;
	.scl	3;
	.type	32;
	.endef
	.section	.text,"xr",one_only,_ZN4core3ptr126drop_in_place$LT$reach_server..server..Server..initialize_server..$u7b$$u7b$closure$u7d$$u7d$..$u7b$$u7b$closure$u7d$$u7d$$GT$17h585ed109664e3636E
	.p2align	4, 0x90
_ZN4core3ptr126drop_in_place$LT$reach_server..server..Server..initialize_server..$u7b$$u7b$closure$u7d$$u7d$..$u7b$$u7b$closure$u7d$$u7d$$GT$17h585ed109664e3636E:
.Lfunc_begin18:
.seh_proc _ZN4core3ptr126drop_in_place$LT$reach_server..server..Server..initialize_server..$u7b$$u7b$closure$u7d$$u7d$..$u7b$$u7b$closure$u7d$$u7d$$GT$17h585ed109664e3636E
	.seh_handler __CxxFrameHandler3, @unwind, @except
	pushq	%rbp
	.seh_pushreg %rbp
	pushq	%rsi
	.seh_pushreg %rsi
	pushq	%rdi
	.seh_pushreg %rdi
	subq	$48, %rsp
	.seh_stackalloc 48
	leaq	48(%rsp), %rbp
	.seh_setframe %rbp, 48
	.seh_endprologue
	movq	$-2, -8(%rbp)
	movq	%rcx, %rdx
	movzbl	34(%rcx), %eax
	testl	%eax, %eax
	je	.LBB50_4
	cmpl	$3, %eax
	je	.LBB50_9
	cmpl	$4, %eax
	jne	.LBB50_3
	leaq	40(%rdx), %rcx
.Ltmp66:
	movq	%rdx, -16(%rbp)
	callq	_ZN4core3ptr91drop_in_place$LT$reach_server..client..Client..main_thread..$u7b$$u7b$closure$u7d$$u7d$$GT$17h0b888c578c0c1c53E
.Ltmp67:
	movq	-16(%rbp), %rax
	movq	(%rax), %rcx
.Ltmp68:
	movl	$1, %edx
	callq	_ZN5tokio4sync15batch_semaphore9Semaphore7release17h044b86ca4cbe5f93E
.Ltmp69:
	jmp	.LBB50_15
.LBB50_4:
	movq	%rdx, -16(%rbp)
	movq	8(%rdx), %rcx
	lock		decq	(%rcx)
	jne	.LBB50_6
	#MEMBARRIER
.Ltmp78:
	callq	_ZN5alloc4sync12Arc$LT$T$GT$9drop_slow17h1c40f6cc03dff007E
.Ltmp79:
.LBB50_6:
	movq	-16(%rbp), %rax
	movq	16(%rax), %rcx
	lock		decq	(%rcx)
	jne	.LBB50_8
	#MEMBARRIER
.Ltmp80:
	callq	_ZN5alloc4sync12Arc$LT$T$GT$9drop_slow17hd1e7122ab4ffc87aE
.Ltmp81:
.LBB50_8:
	movq	-16(%rbp), %rax
	jmp	.LBB50_19
.LBB50_9:
	cmpb	$3, 144(%rdx)
	movq	%rdx, -16(%rbp)
	jne	.LBB50_15
	movq	-16(%rbp), %rax
	cmpb	$3, 136(%rax)
	jne	.LBB50_15
	movq	-16(%rbp), %rax
	cmpb	$4, 72(%rax)
	jne	.LBB50_15
	movq	-16(%rbp), %rax
	leaq	80(%rax), %rcx
.Ltmp70:
	callq	_ZN79_$LT$tokio..sync..batch_semaphore..Acquire$u20$as$u20$core..ops..drop..Drop$GT$4drop17h3e677387310bd09bE
.Ltmp71:
	movq	-16(%rbp), %rax
	movq	88(%rax), %rax
	testq	%rax, %rax
	je	.LBB50_15
	movq	-16(%rbp), %rcx
	movq	96(%rcx), %rcx
.Ltmp72:
	callq	*24(%rax)
.Ltmp73:
.LBB50_15:
	movq	-16(%rbp), %rax
	movq	8(%rax), %rcx
	lock		decq	(%rcx)
	jne	.LBB50_17
	#MEMBARRIER
.Ltmp74:
	callq	_ZN5alloc4sync12Arc$LT$T$GT$9drop_slow17h1c40f6cc03dff007E
.Ltmp75:
.LBB50_17:
	movq	-16(%rbp), %rax
	cmpb	$0, 33(%rax)
	je	.LBB50_18
	movq	-16(%rbp), %rax
	movq	16(%rax), %rcx
	lock		decq	(%rcx)
	jne	.LBB50_18
	#MEMBARRIER
.Ltmp76:
	callq	_ZN5alloc4sync12Arc$LT$T$GT$9drop_slow17hd1e7122ab4ffc87aE
.Ltmp77:
.LBB50_18:
	movq	-16(%rbp), %rax
	cmpb	$0, 32(%rax)
	je	.LBB50_3
.LBB50_19:
	movq	24(%rax), %rcx
	lock		decq	(%rcx)
	jne	.LBB50_3
	#MEMBARRIER
	addq	$48, %rsp
	popq	%rdi
	popq	%rsi
	popq	%rbp
	jmp	_ZN5alloc4sync12Arc$LT$T$GT$9drop_slow17heafcee56a22a39b3E
.LBB50_3:
	nop
	addq	$48, %rsp
	popq	%rdi
	popq	%rsi
	popq	%rbp
	retq
	.seh_handlerdata
	.long	($cppxdata$_ZN4core3ptr126drop_in_place$LT$reach_server..server..Server..initialize_server..$u7b$$u7b$closure$u7d$$u7d$..$u7b$$u7b$closure$u7d$$u7d$$GT$17h585ed109664e3636E)@IMGREL
	.section	.text,"xr",one_only,_ZN4core3ptr126drop_in_place$LT$reach_server..server..Server..initialize_server..$u7b$$u7b$closure$u7d$$u7d$..$u7b$$u7b$closure$u7d$$u7d$$GT$17h585ed109664e3636E
	.seh_endproc
	.def	"?dtor$21@?0?_ZN4core3ptr126drop_in_place$LT$reach_server..server..Server..initialize_server..$u7b$$u7b$closure$u7d$$u7d$..$u7b$$u7b$closure$u7d$$u7d$$GT$17h585ed109664e3636E@4HA";
	.scl	3;
	.type	32;
	.endef
	.p2align	4, 0x90
"?dtor$21@?0?_ZN4core3ptr126drop_in_place$LT$reach_server..server..Server..initialize_server..$u7b$$u7b$closure$u7d$$u7d$..$u7b$$u7b$closure$u7d$$u7d$$GT$17h585ed109664e3636E@4HA":
.seh_proc "?dtor$21@?0?_ZN4core3ptr126drop_in_place$LT$reach_server..server..Server..initialize_server..$u7b$$u7b$closure$u7d$$u7d$..$u7b$$u7b$closure$u7d$$u7d$$GT$17h585ed109664e3636E@4HA"
.LBB50_21:
	movq	%rdx, 16(%rsp)
	pushq	%rbp
	.seh_pushreg %rbp
	pushq	%rsi
	.seh_pushreg %rsi
	pushq	%rdi
	.seh_pushreg %rdi
	subq	$32, %rsp
	.seh_stackalloc 32
	leaq	48(%rdx), %rbp
	.seh_endprologue
	movq	-16(%rbp), %rax
	movq	16(%rax), %rcx
	callq	_ZN4core3ptr153drop_in_place$LT$alloc..sync..Arc$LT$tokio..sync..mutex..Mutex$LT$tokio..sync..mpsc..bounded..Receiver$LT$reach_server..enums..S2CCommand$GT$$GT$$GT$$GT$17he9127800abdc4db5E
	nop
	addq	$32, %rsp
	popq	%rdi
	popq	%rsi
	popq	%rbp
	retq
	.seh_handlerdata
	.section	.text,"xr",one_only,_ZN4core3ptr126drop_in_place$LT$reach_server..server..Server..initialize_server..$u7b$$u7b$closure$u7d$$u7d$..$u7b$$u7b$closure$u7d$$u7d$$GT$17h585ed109664e3636E
	.seh_endproc
	.def	"?dtor$22@?0?_ZN4core3ptr126drop_in_place$LT$reach_server..server..Server..initialize_server..$u7b$$u7b$closure$u7d$$u7d$..$u7b$$u7b$closure$u7d$$u7d$$GT$17h585ed109664e3636E@4HA";
	.scl	3;
	.type	32;
	.endef
	.p2align	4, 0x90
"?dtor$22@?0?_ZN4core3ptr126drop_in_place$LT$reach_server..server..Server..initialize_server..$u7b$$u7b$closure$u7d$$u7d$..$u7b$$u7b$closure$u7d$$u7d$$GT$17h585ed109664e3636E@4HA":
.seh_proc "?dtor$22@?0?_ZN4core3ptr126drop_in_place$LT$reach_server..server..Server..initialize_server..$u7b$$u7b$closure$u7d$$u7d$..$u7b$$u7b$closure$u7d$$u7d$$GT$17h585ed109664e3636E@4HA"
.LBB50_22:
	movq	%rdx, 16(%rsp)
	pushq	%rbp
	.seh_pushreg %rbp
	pushq	%rsi
	.seh_pushreg %rsi
	pushq	%rdi
	.seh_pushreg %rdi
	subq	$32, %rsp
	.seh_stackalloc 32
	leaq	48(%rdx), %rbp
	.seh_endprologue
	movq	-16(%rbp), %rax
	movq	24(%rax), %rcx
	callq	_ZN4core3ptr151drop_in_place$LT$alloc..sync..Arc$LT$tokio..sync..mutex..Mutex$LT$tokio..sync..mpsc..bounded..Sender$LT$reach_server..enums..C2SCommand$GT$$GT$$GT$$GT$17h39ff146518406948E
	nop
	addq	$32, %rsp
	popq	%rdi
	popq	%rsi
	popq	%rbp
	retq
	.seh_handlerdata
	.section	.text,"xr",one_only,_ZN4core3ptr126drop_in_place$LT$reach_server..server..Server..initialize_server..$u7b$$u7b$closure$u7d$$u7d$..$u7b$$u7b$closure$u7d$$u7d$$GT$17h585ed109664e3636E
	.seh_endproc
	.def	"?dtor$23@?0?_ZN4core3ptr126drop_in_place$LT$reach_server..server..Server..initialize_server..$u7b$$u7b$closure$u7d$$u7d$..$u7b$$u7b$closure$u7d$$u7d$$GT$17h585ed109664e3636E@4HA";
	.scl	3;
	.type	32;
	.endef
	.p2align	4, 0x90
"?dtor$23@?0?_ZN4core3ptr126drop_in_place$LT$reach_server..server..Server..initialize_server..$u7b$$u7b$closure$u7d$$u7d$..$u7b$$u7b$closure$u7d$$u7d$$GT$17h585ed109664e3636E@4HA":
.seh_proc "?dtor$23@?0?_ZN4core3ptr126drop_in_place$LT$reach_server..server..Server..initialize_server..$u7b$$u7b$closure$u7d$$u7d$..$u7b$$u7b$closure$u7d$$u7d$$GT$17h585ed109664e3636E@4HA"
.LBB50_23:
	movq	%rdx, 16(%rsp)
	pushq	%rbp
	.seh_pushreg %rbp
	pushq	%rsi
	.seh_pushreg %rsi
	pushq	%rdi
	.seh_pushreg %rdi
	subq	$32, %rsp
	.seh_stackalloc 32
	leaq	48(%rdx), %rbp
	.seh_endprologue
	movq	-16(%rbp), %rax
	movq	(%rax), %rcx
	callq	_ZN4core3ptr121drop_in_place$LT$tokio..sync..mutex..MutexGuard$LT$core..option..Option$LT$tokio..net..tcp..stream..TcpStream$GT$$GT$$GT$17he31c8d3dc972d4a1E
	nop
	addq	$32, %rsp
	popq	%rdi
	popq	%rsi
	popq	%rbp
	retq
	.seh_handlerdata
	.section	.text,"xr",one_only,_ZN4core3ptr126drop_in_place$LT$reach_server..server..Server..initialize_server..$u7b$$u7b$closure$u7d$$u7d$..$u7b$$u7b$closure$u7d$$u7d$$GT$17h585ed109664e3636E
	.seh_endproc
	.def	"?dtor$29@?0?_ZN4core3ptr126drop_in_place$LT$reach_server..server..Server..initialize_server..$u7b$$u7b$closure$u7d$$u7d$..$u7b$$u7b$closure$u7d$$u7d$$GT$17h585ed109664e3636E@4HA";
	.scl	3;
	.type	32;
	.endef
	.p2align	4, 0x90
"?dtor$29@?0?_ZN4core3ptr126drop_in_place$LT$reach_server..server..Server..initialize_server..$u7b$$u7b$closure$u7d$$u7d$..$u7b$$u7b$closure$u7d$$u7d$$GT$17h585ed109664e3636E@4HA":
.seh_proc "?dtor$29@?0?_ZN4core3ptr126drop_in_place$LT$reach_server..server..Server..initialize_server..$u7b$$u7b$closure$u7d$$u7d$..$u7b$$u7b$closure$u7d$$u7d$$GT$17h585ed109664e3636E@4HA"
.LBB50_29:
	movq	%rdx, 16(%rsp)
	pushq	%rbp
	.seh_pushreg %rbp
	pushq	%rsi
	.seh_pushreg %rsi
	pushq	%rdi
	.seh_pushreg %rdi
	subq	$32, %rsp
	.seh_stackalloc 32
	leaq	48(%rdx), %rbp
	.seh_endprologue
	movq	-16(%rbp), %rax
	cmpb	$0, 33(%rax)
	jne	.LBB50_30
	addq	$32, %rsp
	popq	%rdi
	popq	%rsi
	popq	%rbp
	retq
.LBB50_30:
	movq	-16(%rbp), %rax
	movq	16(%rax), %rcx
	callq	_ZN4core3ptr153drop_in_place$LT$alloc..sync..Arc$LT$tokio..sync..mutex..Mutex$LT$tokio..sync..mpsc..bounded..Receiver$LT$reach_server..enums..S2CCommand$GT$$GT$$GT$$GT$17he9127800abdc4db5E
	nop
	addq	$32, %rsp
	popq	%rdi
	popq	%rsi
	popq	%rbp
	retq
	.seh_handlerdata
	.section	.text,"xr",one_only,_ZN4core3ptr126drop_in_place$LT$reach_server..server..Server..initialize_server..$u7b$$u7b$closure$u7d$$u7d$..$u7b$$u7b$closure$u7d$$u7d$$GT$17h585ed109664e3636E
	.seh_endproc
	.def	"?dtor$31@?0?_ZN4core3ptr126drop_in_place$LT$reach_server..server..Server..initialize_server..$u7b$$u7b$closure$u7d$$u7d$..$u7b$$u7b$closure$u7d$$u7d$$GT$17h585ed109664e3636E@4HA";
	.scl	3;
	.type	32;
	.endef
	.p2align	4, 0x90
"?dtor$31@?0?_ZN4core3ptr126drop_in_place$LT$reach_server..server..Server..initialize_server..$u7b$$u7b$closure$u7d$$u7d$..$u7b$$u7b$closure$u7d$$u7d$$GT$17h585ed109664e3636E@4HA":
.seh_proc "?dtor$31@?0?_ZN4core3ptr126drop_in_place$LT$reach_server..server..Server..initialize_server..$u7b$$u7b$closure$u7d$$u7d$..$u7b$$u7b$closure$u7d$$u7d$$GT$17h585ed109664e3636E@4HA"
.LBB50_31:
	movq	%rdx, 16(%rsp)
	pushq	%rbp
	.seh_pushreg %rbp
	pushq	%rsi
	.seh_pushreg %rsi
	pushq	%rdi
	.seh_pushreg %rdi
	subq	$32, %rsp
	.seh_stackalloc 32
	leaq	48(%rdx), %rbp
	.seh_endprologue
	movq	-16(%rbp), %rax
	cmpb	$0, 32(%rax)
	je	.LBB50_33
	movq	-16(%rbp), %rax
	movq	24(%rax), %rcx
	callq	_ZN4core3ptr151drop_in_place$LT$alloc..sync..Arc$LT$tokio..sync..mutex..Mutex$LT$tokio..sync..mpsc..bounded..Sender$LT$reach_server..enums..C2SCommand$GT$$GT$$GT$$GT$17h39ff146518406948E
.LBB50_33:
	nop
	addq	$32, %rsp
	popq	%rdi
	popq	%rsi
	popq	%rbp
	retq
	.seh_handlerdata
	.section	.text,"xr",one_only,_ZN4core3ptr126drop_in_place$LT$reach_server..server..Server..initialize_server..$u7b$$u7b$closure$u7d$$u7d$..$u7b$$u7b$closure$u7d$$u7d$$GT$17h585ed109664e3636E
	.seh_endproc
	.def	"?dtor$34@?0?_ZN4core3ptr126drop_in_place$LT$reach_server..server..Server..initialize_server..$u7b$$u7b$closure$u7d$$u7d$..$u7b$$u7b$closure$u7d$$u7d$$GT$17h585ed109664e3636E@4HA";
	.scl	3;
	.type	32;
	.endef
	.p2align	4, 0x90
"?dtor$34@?0?_ZN4core3ptr126drop_in_place$LT$reach_server..server..Server..initialize_server..$u7b$$u7b$closure$u7d$$u7d$..$u7b$$u7b$closure$u7d$$u7d$$GT$17h585ed109664e3636E@4HA":
.seh_proc "?dtor$34@?0?_ZN4core3ptr126drop_in_place$LT$reach_server..server..Server..initialize_server..$u7b$$u7b$closure$u7d$$u7d$..$u7b$$u7b$closure$u7d$$u7d$$GT$17h585ed109664e3636E@4HA"
.LBB50_34:
	movq	%rdx, 16(%rsp)
	pushq	%rbp
	.seh_pushreg %rbp
	pushq	%rsi
	.seh_pushreg %rsi
	pushq	%rdi
	.seh_pushreg %rdi
	subq	$32, %rsp
	.seh_stackalloc 32
	leaq	48(%rdx), %rbp
	.seh_endprologue
	movq	-16(%rbp), %rdi
	movq	8(%rdi), %rcx
	callq	_ZN4core3ptr106drop_in_place$LT$alloc..sync..Arc$LT$tokio..sync..mutex..Mutex$LT$reach_server..client..Client$GT$$GT$$GT$17h51e8f63e4e7c8dfdE
	movq	%rdi, %rsi
	cmpb	$0, 33(%rdi)
	je	.LBB50_35
	movq	16(%rsi), %rcx
	callq	_ZN4core3ptr153drop_in_place$LT$alloc..sync..Arc$LT$tokio..sync..mutex..Mutex$LT$tokio..sync..mpsc..bounded..Receiver$LT$reach_server..enums..S2CCommand$GT$$GT$$GT$$GT$17he9127800abdc4db5E
.LBB50_35:
	cmpb	$0, 32(%rsi)
	je	.LBB50_37
	movq	24(%rsi), %rcx
	callq	_ZN4core3ptr151drop_in_place$LT$alloc..sync..Arc$LT$tokio..sync..mutex..Mutex$LT$tokio..sync..mpsc..bounded..Sender$LT$reach_server..enums..C2SCommand$GT$$GT$$GT$$GT$17h39ff146518406948E
.LBB50_37:
	nop
	addq	$32, %rsp
	popq	%rdi
	popq	%rsi
	popq	%rbp
	retq
	.seh_handlerdata
	.section	.text,"xr",one_only,_ZN4core3ptr126drop_in_place$LT$reach_server..server..Server..initialize_server..$u7b$$u7b$closure$u7d$$u7d$..$u7b$$u7b$closure$u7d$$u7d$$GT$17h585ed109664e3636E
	.seh_endproc
	.def	"?dtor$38@?0?_ZN4core3ptr126drop_in_place$LT$reach_server..server..Server..initialize_server..$u7b$$u7b$closure$u7d$$u7d$..$u7b$$u7b$closure$u7d$$u7d$$GT$17h585ed109664e3636E@4HA";
	.scl	3;
	.type	32;
	.endef
	.p2align	4, 0x90
"?dtor$38@?0?_ZN4core3ptr126drop_in_place$LT$reach_server..server..Server..initialize_server..$u7b$$u7b$closure$u7d$$u7d$..$u7b$$u7b$closure$u7d$$u7d$$GT$17h585ed109664e3636E@4HA":
.seh_proc "?dtor$38@?0?_ZN4core3ptr126drop_in_place$LT$reach_server..server..Server..initialize_server..$u7b$$u7b$closure$u7d$$u7d$..$u7b$$u7b$closure$u7d$$u7d$$GT$17h585ed109664e3636E@4HA"
.LBB50_38:
	movq	%rdx, 16(%rsp)
	pushq	%rbp
	.seh_pushreg %rbp
	pushq	%rsi
	.seh_pushreg %rsi
	pushq	%rdi
	.seh_pushreg %rdi
	subq	$32, %rsp
	.seh_stackalloc 32
	leaq	48(%rdx), %rbp
	.seh_endprologue
	movq	-16(%rbp), %rax
	movq	88(%rax), %rcx
	movq	96(%rax), %rdx
	callq	_ZN4core3ptr108drop_in_place$LT$tokio..util..cacheline..CachePadded$LT$tokio..sync..task..atomic_waker..AtomicWaker$GT$$GT$17h55872739accc4d3bE
	nop
	addq	$32, %rsp
	popq	%rdi
	popq	%rsi
	popq	%rbp
	retq
.Lfunc_end18:
	.seh_handlerdata
	.section	.text,"xr",one_only,_ZN4core3ptr126drop_in_place$LT$reach_server..server..Server..initialize_server..$u7b$$u7b$closure$u7d$$u7d$..$u7b$$u7b$closure$u7d$$u7d$$GT$17h585ed109664e3636E
	.seh_endproc
	.section	.xdata,"dr",associative,_ZN4core3ptr126drop_in_place$LT$reach_server..server..Server..initialize_server..$u7b$$u7b$closure$u7d$$u7d$..$u7b$$u7b$closure$u7d$$u7d$$GT$17h585ed109664e3636E
	.p2align	2, 0x0
$cppxdata$_ZN4core3ptr126drop_in_place$LT$reach_server..server..Server..initialize_server..$u7b$$u7b$closure$u7d$$u7d$..$u7b$$u7b$closure$u7d$$u7d$$GT$17h585ed109664e3636E:
	.long	429065506
	.long	7
	.long	($stateUnwindMap$_ZN4core3ptr126drop_in_place$LT$reach_server..server..Server..initialize_server..$u7b$$u7b$closure$u7d$$u7d$..$u7b$$u7b$closure$u7d$$u7d$$GT$17h585ed109664e3636E)@IMGREL
	.long	0
	.long	0
	.long	10
	.long	($ip2state$_ZN4core3ptr126drop_in_place$LT$reach_server..server..Server..initialize_server..$u7b$$u7b$closure$u7d$$u7d$..$u7b$$u7b$closure$u7d$$u7d$$GT$17h585ed109664e3636E)@IMGREL
	.long	40
	.long	0
	.long	1
$stateUnwindMap$_ZN4core3ptr126drop_in_place$LT$reach_server..server..Server..initialize_server..$u7b$$u7b$closure$u7d$$u7d$..$u7b$$u7b$closure$u7d$$u7d$$GT$17h585ed109664e3636E:
	.long	-1
	.long	"?dtor$22@?0?_ZN4core3ptr126drop_in_place$LT$reach_server..server..Server..initialize_server..$u7b$$u7b$closure$u7d$$u7d$..$u7b$$u7b$closure$u7d$$u7d$$GT$17h585ed109664e3636E@4HA"@IMGREL
	.long	0
	.long	"?dtor$21@?0?_ZN4core3ptr126drop_in_place$LT$reach_server..server..Server..initialize_server..$u7b$$u7b$closure$u7d$$u7d$..$u7b$$u7b$closure$u7d$$u7d$$GT$17h585ed109664e3636E@4HA"@IMGREL
	.long	-1
	.long	"?dtor$34@?0?_ZN4core3ptr126drop_in_place$LT$reach_server..server..Server..initialize_server..$u7b$$u7b$closure$u7d$$u7d$..$u7b$$u7b$closure$u7d$$u7d$$GT$17h585ed109664e3636E@4HA"@IMGREL
	.long	2
	.long	"?dtor$23@?0?_ZN4core3ptr126drop_in_place$LT$reach_server..server..Server..initialize_server..$u7b$$u7b$closure$u7d$$u7d$..$u7b$$u7b$closure$u7d$$u7d$$GT$17h585ed109664e3636E@4HA"@IMGREL
	.long	2
	.long	"?dtor$38@?0?_ZN4core3ptr126drop_in_place$LT$reach_server..server..Server..initialize_server..$u7b$$u7b$closure$u7d$$u7d$..$u7b$$u7b$closure$u7d$$u7d$$GT$17h585ed109664e3636E@4HA"@IMGREL
	.long	-1
	.long	"?dtor$31@?0?_ZN4core3ptr126drop_in_place$LT$reach_server..server..Server..initialize_server..$u7b$$u7b$closure$u7d$$u7d$..$u7b$$u7b$closure$u7d$$u7d$$GT$17h585ed109664e3636E@4HA"@IMGREL
	.long	5
	.long	"?dtor$29@?0?_ZN4core3ptr126drop_in_place$LT$reach_server..server..Server..initialize_server..$u7b$$u7b$closure$u7d$$u7d$..$u7b$$u7b$closure$u7d$$u7d$$GT$17h585ed109664e3636E@4HA"@IMGREL
$ip2state$_ZN4core3ptr126drop_in_place$LT$reach_server..server..Server..initialize_server..$u7b$$u7b$closure$u7d$$u7d$..$u7b$$u7b$closure$u7d$$u7d$$GT$17h585ed109664e3636E:
	.long	.Lfunc_begin18@IMGREL
	.long	-1
	.long	.Ltmp66@IMGREL+1
	.long	3
	.long	.Ltmp68@IMGREL+1
	.long	2
	.long	.Ltmp78@IMGREL+1
	.long	1
	.long	.Ltmp80@IMGREL+1
	.long	0
	.long	.Ltmp70@IMGREL+1
	.long	4
	.long	.Ltmp72@IMGREL+1
	.long	2
	.long	.Ltmp74@IMGREL+1
	.long	6
	.long	.Ltmp76@IMGREL+1
	.long	5
	.long	.Ltmp77@IMGREL+1
	.long	-1
	.section	.text,"xr",one_only,_ZN4core3ptr126drop_in_place$LT$reach_server..server..Server..initialize_server..$u7b$$u7b$closure$u7d$$u7d$..$u7b$$u7b$closure$u7d$$u7d$$GT$17h585ed109664e3636E

	.def	_ZN4core3ptr126drop_in_place$LT$std..sync..mutex..Mutex$LT$alloc..vec..Vec$LT$alloc..sync..Arc$LT$mio..sys..windows..afd..Afd$GT$$GT$$GT$$GT$17hbc64080e6878e1b6E;
	.scl	3;
	.type	32;
	.endef
	.section	.text,"xr",one_only,_ZN4core3ptr126drop_in_place$LT$std..sync..mutex..Mutex$LT$alloc..vec..Vec$LT$alloc..sync..Arc$LT$mio..sys..windows..afd..Afd$GT$$GT$$GT$$GT$17hbc64080e6878e1b6E
	.p2align	4, 0x90
_ZN4core3ptr126drop_in_place$LT$std..sync..mutex..Mutex$LT$alloc..vec..Vec$LT$alloc..sync..Arc$LT$mio..sys..windows..afd..Afd$GT$$GT$$GT$$GT$17hbc64080e6878e1b6E:
.Lfunc_begin19:
.seh_proc _ZN4core3ptr126drop_in_place$LT$std..sync..mutex..Mutex$LT$alloc..vec..Vec$LT$alloc..sync..Arc$LT$mio..sys..windows..afd..Afd$GT$$GT$$GT$$GT$17hbc64080e6878e1b6E
	.seh_handler __CxxFrameHandler3, @unwind, @except
	pushq	%rbp
	.seh_pushreg %rbp
	pushq	%rsi
	.seh_pushreg %rsi
	pushq	%rdi
	.seh_pushreg %rdi
	pushq	%rbx
	.seh_pushreg %rbx
	subq	$72, %rsp
	.seh_stackalloc 72
	leaq	64(%rsp), %rbp
	.seh_setframe %rbp, 64
	.seh_endprologue
	movq	$-2, (%rbp)
	movq	%rcx, %rax
	movq	16(%rcx), %rcx
	movq	%rax, -24(%rbp)
	movq	32(%rax), %rax
	movq	%rax, -16(%rbp)
	testq	%rax, %rax
	je	.LBB51_5
	movq	-16(%rbp), %rsi
	negq	%rsi
	movl	$1, %edx
	movq	%rcx, -8(%rbp)
	jmp	.LBB51_2
	.p2align	4, 0x90
.LBB51_4:
	movq	-32(%rbp), %rdx
	leaq	(%rsi,%rdx), %rax
	incq	%rax
	incq	%rdx
	cmpq	$1, %rax
	movq	-8(%rbp), %rcx
	je	.LBB51_5
.LBB51_2:
	movq	%rdx, -32(%rbp)
	movq	-8(%rcx,%rdx,8), %rcx
	lock		decq	(%rcx)
	jne	.LBB51_4
	#MEMBARRIER
.Ltmp82:
	callq	_ZN5alloc4sync12Arc$LT$T$GT$9drop_slow17h8b25062632df3118E
.Ltmp83:
	jmp	.LBB51_4
.LBB51_5:
	movq	-24(%rbp), %rax
	movq	24(%rax), %rdx
	testq	%rdx, %rdx
	je	.LBB51_11
	shlq	$3, %rdx
	movl	$8, %r8d
	addq	$72, %rsp
	popq	%rbx
	popq	%rdi
	popq	%rsi
	popq	%rbp
	jmp	__rust_dealloc
.LBB51_11:
	nop
	addq	$72, %rsp
	popq	%rbx
	popq	%rdi
	popq	%rsi
	popq	%rbp
	retq
	.seh_handlerdata
	.long	($cppxdata$_ZN4core3ptr126drop_in_place$LT$std..sync..mutex..Mutex$LT$alloc..vec..Vec$LT$alloc..sync..Arc$LT$mio..sys..windows..afd..Afd$GT$$GT$$GT$$GT$17hbc64080e6878e1b6E)@IMGREL
	.section	.text,"xr",one_only,_ZN4core3ptr126drop_in_place$LT$std..sync..mutex..Mutex$LT$alloc..vec..Vec$LT$alloc..sync..Arc$LT$mio..sys..windows..afd..Afd$GT$$GT$$GT$$GT$17hbc64080e6878e1b6E
	.seh_endproc
	.def	"?dtor$7@?0?_ZN4core3ptr126drop_in_place$LT$std..sync..mutex..Mutex$LT$alloc..vec..Vec$LT$alloc..sync..Arc$LT$mio..sys..windows..afd..Afd$GT$$GT$$GT$$GT$17hbc64080e6878e1b6E@4HA";
	.scl	3;
	.type	32;
	.endef
	.p2align	4, 0x90
"?dtor$7@?0?_ZN4core3ptr126drop_in_place$LT$std..sync..mutex..Mutex$LT$alloc..vec..Vec$LT$alloc..sync..Arc$LT$mio..sys..windows..afd..Afd$GT$$GT$$GT$$GT$17hbc64080e6878e1b6E@4HA":
.seh_proc "?dtor$7@?0?_ZN4core3ptr126drop_in_place$LT$std..sync..mutex..Mutex$LT$alloc..vec..Vec$LT$alloc..sync..Arc$LT$mio..sys..windows..afd..Afd$GT$$GT$$GT$$GT$17hbc64080e6878e1b6E@4HA"
.LBB51_7:
	movq	%rdx, 16(%rsp)
	pushq	%rbp
	.seh_pushreg %rbp
	pushq	%rsi
	.seh_pushreg %rsi
	pushq	%rdi
	.seh_pushreg %rdi
	pushq	%rbx
	.seh_pushreg %rbx
	subq	$40, %rsp
	.seh_stackalloc 40
	leaq	64(%rdx), %rbp
	.seh_endprologue
	movq	-16(%rbp), %rdi
	movq	-32(%rbp), %rbx
	cmpq	%rdi, %rbx
	movq	-8(%rbp), %rsi
	je	.LBB51_9
.LBB51_8:
	movq	(%rsi,%rbx,8), %rcx
	callq	_ZN4core3ptr72drop_in_place$LT$alloc..sync..Arc$LT$mio..sys..windows..afd..Afd$GT$$GT$17hb23feb4a40a04c04E
	incq	%rbx
	cmpq	%rdi, %rbx
	jne	.LBB51_8
.LBB51_9:
	addq	$40, %rsp
	popq	%rbx
	popq	%rdi
	popq	%rsi
	popq	%rbp
	retq
	.seh_handlerdata
	.section	.text,"xr",one_only,_ZN4core3ptr126drop_in_place$LT$std..sync..mutex..Mutex$LT$alloc..vec..Vec$LT$alloc..sync..Arc$LT$mio..sys..windows..afd..Afd$GT$$GT$$GT$$GT$17hbc64080e6878e1b6E
	.seh_endproc
	.def	"?dtor$10@?0?_ZN4core3ptr126drop_in_place$LT$std..sync..mutex..Mutex$LT$alloc..vec..Vec$LT$alloc..sync..Arc$LT$mio..sys..windows..afd..Afd$GT$$GT$$GT$$GT$17hbc64080e6878e1b6E@4HA";
	.scl	3;
	.type	32;
	.endef
	.p2align	4, 0x90
"?dtor$10@?0?_ZN4core3ptr126drop_in_place$LT$std..sync..mutex..Mutex$LT$alloc..vec..Vec$LT$alloc..sync..Arc$LT$mio..sys..windows..afd..Afd$GT$$GT$$GT$$GT$17hbc64080e6878e1b6E@4HA":
.seh_proc "?dtor$10@?0?_ZN4core3ptr126drop_in_place$LT$std..sync..mutex..Mutex$LT$alloc..vec..Vec$LT$alloc..sync..Arc$LT$mio..sys..windows..afd..Afd$GT$$GT$$GT$$GT$17hbc64080e6878e1b6E@4HA"
.LBB51_10:
	movq	%rdx, 16(%rsp)
	pushq	%rbp
	.seh_pushreg %rbp
	pushq	%rsi
	.seh_pushreg %rsi
	pushq	%rdi
	.seh_pushreg %rdi
	pushq	%rbx
	.seh_pushreg %rbx
	subq	$40, %rsp
	.seh_stackalloc 40
	leaq	64(%rdx), %rbp
	.seh_endprologue
	movq	-24(%rbp), %rax
	movq	24(%rax), %rdx
	movq	-8(%rbp), %rcx
	callq	_ZN4core3ptr102drop_in_place$LT$alloc..raw_vec..RawVec$LT$alloc..sync..Arc$LT$mio..sys..windows..afd..Afd$GT$$GT$$GT$17h2db11902b11b1e0bE
	nop
	addq	$40, %rsp
	popq	%rbx
	popq	%rdi
	popq	%rsi
	popq	%rbp
	retq
.Lfunc_end19:
	.seh_handlerdata
	.section	.text,"xr",one_only,_ZN4core3ptr126drop_in_place$LT$std..sync..mutex..Mutex$LT$alloc..vec..Vec$LT$alloc..sync..Arc$LT$mio..sys..windows..afd..Afd$GT$$GT$$GT$$GT$17hbc64080e6878e1b6E
	.seh_endproc
	.section	.xdata,"dr",associative,_ZN4core3ptr126drop_in_place$LT$std..sync..mutex..Mutex$LT$alloc..vec..Vec$LT$alloc..sync..Arc$LT$mio..sys..windows..afd..Afd$GT$$GT$$GT$$GT$17hbc64080e6878e1b6E
	.p2align	2, 0x0
$cppxdata$_ZN4core3ptr126drop_in_place$LT$std..sync..mutex..Mutex$LT$alloc..vec..Vec$LT$alloc..sync..Arc$LT$mio..sys..windows..afd..Afd$GT$$GT$$GT$$GT$17hbc64080e6878e1b6E:
	.long	429065506
	.long	2
	.long	($stateUnwindMap$_ZN4core3ptr126drop_in_place$LT$std..sync..mutex..Mutex$LT$alloc..vec..Vec$LT$alloc..sync..Arc$LT$mio..sys..windows..afd..Afd$GT$$GT$$GT$$GT$17hbc64080e6878e1b6E)@IMGREL
	.long	0
	.long	0
	.long	3
	.long	($ip2state$_ZN4core3ptr126drop_in_place$LT$std..sync..mutex..Mutex$LT$alloc..vec..Vec$LT$alloc..sync..Arc$LT$mio..sys..windows..afd..Afd$GT$$GT$$GT$$GT$17hbc64080e6878e1b6E)@IMGREL
	.long	64
	.long	0
	.long	1
$stateUnwindMap$_ZN4core3ptr126drop_in_place$LT$std..sync..mutex..Mutex$LT$alloc..vec..Vec$LT$alloc..sync..Arc$LT$mio..sys..windows..afd..Afd$GT$$GT$$GT$$GT$17hbc64080e6878e1b6E:
	.long	-1
	.long	"?dtor$10@?0?_ZN4core3ptr126drop_in_place$LT$std..sync..mutex..Mutex$LT$alloc..vec..Vec$LT$alloc..sync..Arc$LT$mio..sys..windows..afd..Afd$GT$$GT$$GT$$GT$17hbc64080e6878e1b6E@4HA"@IMGREL
	.long	0
	.long	"?dtor$7@?0?_ZN4core3ptr126drop_in_place$LT$std..sync..mutex..Mutex$LT$alloc..vec..Vec$LT$alloc..sync..Arc$LT$mio..sys..windows..afd..Afd$GT$$GT$$GT$$GT$17hbc64080e6878e1b6E@4HA"@IMGREL
$ip2state$_ZN4core3ptr126drop_in_place$LT$std..sync..mutex..Mutex$LT$alloc..vec..Vec$LT$alloc..sync..Arc$LT$mio..sys..windows..afd..Afd$GT$$GT$$GT$$GT$17hbc64080e6878e1b6E:
	.long	.Lfunc_begin19@IMGREL
	.long	-1
	.long	.Ltmp82@IMGREL+1
	.long	1
	.long	.Ltmp83@IMGREL+1
	.long	-1
	.section	.text,"xr",one_only,_ZN4core3ptr126drop_in_place$LT$std..sync..mutex..Mutex$LT$alloc..vec..Vec$LT$alloc..sync..Arc$LT$mio..sys..windows..afd..Afd$GT$$GT$$GT$$GT$17hbc64080e6878e1b6E

	.def	_ZN4core3ptr128drop_in_place$LT$core..result..Result$LT$tokio..runtime..coop..with_budget..ResetGuard$C$std..thread..local..AccessError$GT$$GT$17he0ae801f9338e1eeE;
	.scl	3;
	.type	32;
	.endef
	.section	.text,"xr",one_only,_ZN4core3ptr128drop_in_place$LT$core..result..Result$LT$tokio..runtime..coop..with_budget..ResetGuard$C$std..thread..local..AccessError$GT$$GT$17he0ae801f9338e1eeE
	.p2align	4, 0x90
_ZN4core3ptr128drop_in_place$LT$core..result..Result$LT$tokio..runtime..coop..with_budget..ResetGuard$C$std..thread..local..AccessError$GT$$GT$17he0ae801f9338e1eeE:
	cmpb	$2, (%rcx)
	jne	.LBB52_2
	retq
.LBB52_2:
	jmp	_ZN87_$LT$tokio..runtime..coop..with_budget..ResetGuard$u20$as$u20$core..ops..drop..Drop$GT$4drop17hcf2522ee425b9671E

	.def	_ZN4core3ptr128drop_in_place$LT$tokio..runtime..task..Task$LT$alloc..sync..Arc$LT$tokio..runtime..scheduler..current_thread..Handle$GT$$GT$$GT$17h65209cbb1fb67d1bE;
	.scl	3;
	.type	32;
	.endef
	.section	.text,"xr",one_only,_ZN4core3ptr128drop_in_place$LT$tokio..runtime..task..Task$LT$alloc..sync..Arc$LT$tokio..runtime..scheduler..current_thread..Handle$GT$$GT$$GT$17h65209cbb1fb67d1bE
	.p2align	4, 0x90
_ZN4core3ptr128drop_in_place$LT$tokio..runtime..task..Task$LT$alloc..sync..Arc$LT$tokio..runtime..scheduler..current_thread..Handle$GT$$GT$$GT$17h65209cbb1fb67d1bE:
.seh_proc _ZN4core3ptr128drop_in_place$LT$tokio..runtime..task..Task$LT$alloc..sync..Arc$LT$tokio..runtime..scheduler..current_thread..Handle$GT$$GT$$GT$17h65209cbb1fb67d1bE
	pushq	%rsi
	.seh_pushreg %rsi
	subq	$32, %rsp
	.seh_stackalloc 32
	.seh_endprologue
	movq	%rcx, %rsi
	callq	_ZN5tokio7runtime4task3raw7RawTask6header17h22c6b28ac0f1082bE
	movq	%rax, %rcx
	callq	_ZN5tokio7runtime4task5state5State7ref_dec17hcd7c6c622f96436bE
	testb	%al, %al
	je	.LBB53_1
	movq	(%rsi), %rcx
	addq	$32, %rsp
	popq	%rsi
	jmp	_ZN5tokio7runtime4task3raw7RawTask7dealloc17h062592b40b38512fE
.LBB53_1:
	nop
	addq	$32, %rsp
	popq	%rsi
	retq
	.seh_endproc

	.def	_ZN4core3ptr129drop_in_place$LT$tokio..sync..mpsc..bounded..Sender$LT$reach_server..enums..C2SCommand$GT$..send..$u7b$$u7b$closure$u7d$$u7d$$GT$17h59b3941c0c0ea01eE;
	.scl	3;
	.type	32;
	.endef
	.section	.text,"xr",one_only,_ZN4core3ptr129drop_in_place$LT$tokio..sync..mpsc..bounded..Sender$LT$reach_server..enums..C2SCommand$GT$..send..$u7b$$u7b$closure$u7d$$u7d$$GT$17h59b3941c0c0ea01eE
	.p2align	4, 0x90
_ZN4core3ptr129drop_in_place$LT$tokio..sync..mpsc..bounded..Sender$LT$reach_server..enums..C2SCommand$GT$..send..$u7b$$u7b$closure$u7d$$u7d$$GT$17h59b3941c0c0ea01eE:
.Lfunc_begin20:
.seh_proc _ZN4core3ptr129drop_in_place$LT$tokio..sync..mpsc..bounded..Sender$LT$reach_server..enums..C2SCommand$GT$..send..$u7b$$u7b$closure$u7d$$u7d$$GT$17h59b3941c0c0ea01eE
	.seh_handler __CxxFrameHandler3, @unwind, @except
	pushq	%rbp
	.seh_pushreg %rbp
	subq	$48, %rsp
	.seh_stackalloc 48
	leaq	48(%rsp), %rbp
	.seh_setframe %rbp, 48
	.seh_endprologue
	movq	$-2, -8(%rbp)
	cmpb	$3, 114(%rcx)
	jne	.LBB54_7
	movq	%rcx, -16(%rbp)
	cmpb	$3, 96(%rcx)
	jne	.LBB54_6
	movq	-16(%rbp), %rax
	cmpb	$4, 32(%rax)
	jne	.LBB54_6
	movq	-16(%rbp), %rax
	leaq	40(%rax), %rcx
.Ltmp84:
	callq	_ZN79_$LT$tokio..sync..batch_semaphore..Acquire$u20$as$u20$core..ops..drop..Drop$GT$4drop17h3e677387310bd09bE
.Ltmp85:
	movq	-16(%rbp), %rax
	movq	48(%rax), %rax
	testq	%rax, %rax
	je	.LBB54_6
	movq	-16(%rbp), %rcx
	movq	56(%rcx), %rcx
.Ltmp86:
	callq	*24(%rax)
.Ltmp87:
.LBB54_6:
	movq	-16(%rbp), %rax
	movb	$0, 113(%rax)
.LBB54_7:
	addq	$48, %rsp
	popq	%rbp
	retq
	.seh_handlerdata
	.long	($cppxdata$_ZN4core3ptr129drop_in_place$LT$tokio..sync..mpsc..bounded..Sender$LT$reach_server..enums..C2SCommand$GT$..send..$u7b$$u7b$closure$u7d$$u7d$$GT$17h59b3941c0c0ea01eE)@IMGREL
	.section	.text,"xr",one_only,_ZN4core3ptr129drop_in_place$LT$tokio..sync..mpsc..bounded..Sender$LT$reach_server..enums..C2SCommand$GT$..send..$u7b$$u7b$closure$u7d$$u7d$$GT$17h59b3941c0c0ea01eE
	.seh_endproc
	.def	"?dtor$8@?0?_ZN4core3ptr129drop_in_place$LT$tokio..sync..mpsc..bounded..Sender$LT$reach_server..enums..C2SCommand$GT$..send..$u7b$$u7b$closure$u7d$$u7d$$GT$17h59b3941c0c0ea01eE@4HA";
	.scl	3;
	.type	32;
	.endef
	.p2align	4, 0x90
"?dtor$8@?0?_ZN4core3ptr129drop_in_place$LT$tokio..sync..mpsc..bounded..Sender$LT$reach_server..enums..C2SCommand$GT$..send..$u7b$$u7b$closure$u7d$$u7d$$GT$17h59b3941c0c0ea01eE@4HA":
.seh_proc "?dtor$8@?0?_ZN4core3ptr129drop_in_place$LT$tokio..sync..mpsc..bounded..Sender$LT$reach_server..enums..C2SCommand$GT$..send..$u7b$$u7b$closure$u7d$$u7d$$GT$17h59b3941c0c0ea01eE@4HA"
.LBB54_8:
	movq	%rdx, 16(%rsp)
	pushq	%rbp
	.seh_pushreg %rbp
	subq	$32, %rsp
	.seh_stackalloc 32
	leaq	48(%rdx), %rbp
	.seh_endprologue
	movq	-16(%rbp), %rax
	movq	48(%rax), %rcx
	movq	56(%rax), %rdx
	callq	_ZN4core3ptr108drop_in_place$LT$tokio..util..cacheline..CachePadded$LT$tokio..sync..task..atomic_waker..AtomicWaker$GT$$GT$17h55872739accc4d3bE
	nop
	addq	$32, %rsp
	popq	%rbp
	retq
	.seh_handlerdata
	.section	.text,"xr",one_only,_ZN4core3ptr129drop_in_place$LT$tokio..sync..mpsc..bounded..Sender$LT$reach_server..enums..C2SCommand$GT$..send..$u7b$$u7b$closure$u7d$$u7d$$GT$17h59b3941c0c0ea01eE
	.seh_endproc
	.def	"?dtor$9@?0?_ZN4core3ptr129drop_in_place$LT$tokio..sync..mpsc..bounded..Sender$LT$reach_server..enums..C2SCommand$GT$..send..$u7b$$u7b$closure$u7d$$u7d$$GT$17h59b3941c0c0ea01eE@4HA";
	.scl	3;
	.type	32;
	.endef
	.p2align	4, 0x90
"?dtor$9@?0?_ZN4core3ptr129drop_in_place$LT$tokio..sync..mpsc..bounded..Sender$LT$reach_server..enums..C2SCommand$GT$..send..$u7b$$u7b$closure$u7d$$u7d$$GT$17h59b3941c0c0ea01eE@4HA":
.seh_proc "?dtor$9@?0?_ZN4core3ptr129drop_in_place$LT$tokio..sync..mpsc..bounded..Sender$LT$reach_server..enums..C2SCommand$GT$..send..$u7b$$u7b$closure$u7d$$u7d$$GT$17h59b3941c0c0ea01eE@4HA"
.LBB54_9:
	movq	%rdx, 16(%rsp)
	pushq	%rbp
	.seh_pushreg %rbp
	subq	$32, %rsp
	.seh_stackalloc 32
	leaq	48(%rdx), %rbp
	.seh_endprologue
	movq	-16(%rbp), %rax
	movb	$0, 113(%rax)
	addq	$32, %rsp
	popq	%rbp
	retq
.Lfunc_end20:
	.seh_handlerdata
	.section	.text,"xr",one_only,_ZN4core3ptr129drop_in_place$LT$tokio..sync..mpsc..bounded..Sender$LT$reach_server..enums..C2SCommand$GT$..send..$u7b$$u7b$closure$u7d$$u7d$$GT$17h59b3941c0c0ea01eE
	.seh_endproc
	.section	.xdata,"dr",associative,_ZN4core3ptr129drop_in_place$LT$tokio..sync..mpsc..bounded..Sender$LT$reach_server..enums..C2SCommand$GT$..send..$u7b$$u7b$closure$u7d$$u7d$$GT$17h59b3941c0c0ea01eE
	.p2align	2, 0x0
$cppxdata$_ZN4core3ptr129drop_in_place$LT$tokio..sync..mpsc..bounded..Sender$LT$reach_server..enums..C2SCommand$GT$..send..$u7b$$u7b$closure$u7d$$u7d$$GT$17h59b3941c0c0ea01eE:
	.long	429065506
	.long	2
	.long	($stateUnwindMap$_ZN4core3ptr129drop_in_place$LT$tokio..sync..mpsc..bounded..Sender$LT$reach_server..enums..C2SCommand$GT$..send..$u7b$$u7b$closure$u7d$$u7d$$GT$17h59b3941c0c0ea01eE)@IMGREL
	.long	0
	.long	0
	.long	4
	.long	($ip2state$_ZN4core3ptr129drop_in_place$LT$tokio..sync..mpsc..bounded..Sender$LT$reach_server..enums..C2SCommand$GT$..send..$u7b$$u7b$closure$u7d$$u7d$$GT$17h59b3941c0c0ea01eE)@IMGREL
	.long	40
	.long	0
	.long	1
$stateUnwindMap$_ZN4core3ptr129drop_in_place$LT$tokio..sync..mpsc..bounded..Sender$LT$reach_server..enums..C2SCommand$GT$..send..$u7b$$u7b$closure$u7d$$u7d$$GT$17h59b3941c0c0ea01eE:
	.long	-1
	.long	"?dtor$9@?0?_ZN4core3ptr129drop_in_place$LT$tokio..sync..mpsc..bounded..Sender$LT$reach_server..enums..C2SCommand$GT$..send..$u7b$$u7b$closure$u7d$$u7d$$GT$17h59b3941c0c0ea01eE@4HA"@IMGREL
	.long	0
	.long	"?dtor$8@?0?_ZN4core3ptr129drop_in_place$LT$tokio..sync..mpsc..bounded..Sender$LT$reach_server..enums..C2SCommand$GT$..send..$u7b$$u7b$closure$u7d$$u7d$$GT$17h59b3941c0c0ea01eE@4HA"@IMGREL
$ip2state$_ZN4core3ptr129drop_in_place$LT$tokio..sync..mpsc..bounded..Sender$LT$reach_server..enums..C2SCommand$GT$..send..$u7b$$u7b$closure$u7d$$u7d$$GT$17h59b3941c0c0ea01eE:
	.long	.Lfunc_begin20@IMGREL
	.long	-1
	.long	.Ltmp84@IMGREL+1
	.long	1
	.long	.Ltmp86@IMGREL+1
	.long	0
	.long	.Ltmp87@IMGREL+1
	.long	-1
	.section	.text,"xr",one_only,_ZN4core3ptr129drop_in_place$LT$tokio..sync..mpsc..bounded..Sender$LT$reach_server..enums..C2SCommand$GT$..send..$u7b$$u7b$closure$u7d$$u7d$$GT$17h59b3941c0c0ea01eE

	.def	_ZN4core3ptr129drop_in_place$LT$tokio..sync..mpsc..bounded..Sender$LT$reach_server..enums..S2CCommand$GT$..send..$u7b$$u7b$closure$u7d$$u7d$$GT$17hefaeb7477fb3e317E;
	.scl	3;
	.type	32;
	.endef
	.section	.text,"xr",one_only,_ZN4core3ptr129drop_in_place$LT$tokio..sync..mpsc..bounded..Sender$LT$reach_server..enums..S2CCommand$GT$..send..$u7b$$u7b$closure$u7d$$u7d$$GT$17hefaeb7477fb3e317E
	.p2align	4, 0x90
_ZN4core3ptr129drop_in_place$LT$tokio..sync..mpsc..bounded..Sender$LT$reach_server..enums..S2CCommand$GT$..send..$u7b$$u7b$closure$u7d$$u7d$$GT$17hefaeb7477fb3e317E:
.Lfunc_begin21:
.seh_proc _ZN4core3ptr129drop_in_place$LT$tokio..sync..mpsc..bounded..Sender$LT$reach_server..enums..S2CCommand$GT$..send..$u7b$$u7b$closure$u7d$$u7d$$GT$17hefaeb7477fb3e317E
	.seh_handler __CxxFrameHandler3, @unwind, @except
	pushq	%rbp
	.seh_pushreg %rbp
	subq	$48, %rsp
	.seh_stackalloc 48
	leaq	48(%rsp), %rbp
	.seh_setframe %rbp, 48
	.seh_endprologue
	movq	$-2, -8(%rbp)
	movzbl	192(%rcx), %eax
	testl	%eax, %eax
	je	.LBB55_3
	cmpl	$3, %eax
	jne	.LBB55_2
	cmpb	$3, 184(%rcx)
	movq	%rcx, -16(%rbp)
	jne	.LBB55_13
	movq	-16(%rbp), %rax
	cmpb	$4, 120(%rax)
	jne	.LBB55_13
	movq	-16(%rbp), %rax
	leaq	128(%rax), %rcx
.Ltmp88:
	callq	_ZN79_$LT$tokio..sync..batch_semaphore..Acquire$u20$as$u20$core..ops..drop..Drop$GT$4drop17h3e677387310bd09bE
.Ltmp89:
	movq	-16(%rbp), %rax
	movq	136(%rax), %rax
	testq	%rax, %rax
	je	.LBB55_13
	movq	-16(%rbp), %rcx
	movq	144(%rcx), %rcx
.Ltmp90:
	callq	*24(%rax)
.Ltmp91:
.LBB55_13:
	movq	-16(%rbp), %r8
	movq	48(%r8), %rcx
	leaq	-2(%rcx), %rdx
	decq	%rcx
	xorl	%eax, %eax
	cmpq	$4, %rdx
	cmovbq	%rcx, %rax
	cmpq	$3, %rax
	je	.LBB55_16
	testq	%rax, %rax
	jne	.LBB55_18
.Ltmp92:
	movq	-16(%rbp), %rax
	leaq	48(%rax), %rcx
	callq	_ZN4core3ptr55drop_in_place$LT$tokio..net..tcp..stream..TcpStream$GT$17hacadbfd7a24324b6E
.Ltmp93:
	jmp	.LBB55_18
.LBB55_3:
	movq	(%rcx), %r8
	leaq	-2(%r8), %rdx
	decq	%r8
	xorl	%eax, %eax
	cmpq	$4, %rdx
	cmovbq	%r8, %rax
	cmpq	$3, %rax
	je	.LBB55_6
	testq	%rax, %rax
	jne	.LBB55_2
	addq	$48, %rsp
	popq	%rbp
	jmp	_ZN4core3ptr55drop_in_place$LT$tokio..net..tcp..stream..TcpStream$GT$17hacadbfd7a24324b6E
.LBB55_6:
	movq	16(%rcx), %rdx
	testq	%rdx, %rdx
	je	.LBB55_2
	movq	8(%rcx), %rcx
	movl	$1, %r8d
	addq	$48, %rsp
	popq	%rbp
	jmp	__rust_dealloc
.LBB55_16:
	movq	%r8, %rcx
	movq	64(%r8), %rdx
	testq	%rdx, %rdx
	je	.LBB55_18
	movq	-16(%rbp), %rax
	movq	56(%rax), %rcx
	movl	$1, %r8d
	callq	__rust_dealloc
.LBB55_18:
	movq	-16(%rbp), %rax
	movb	$0, 193(%rax)
.LBB55_2:
	addq	$48, %rsp
	popq	%rbp
	retq
	.seh_handlerdata
	.long	($cppxdata$_ZN4core3ptr129drop_in_place$LT$tokio..sync..mpsc..bounded..Sender$LT$reach_server..enums..S2CCommand$GT$..send..$u7b$$u7b$closure$u7d$$u7d$$GT$17hefaeb7477fb3e317E)@IMGREL
	.section	.text,"xr",one_only,_ZN4core3ptr129drop_in_place$LT$tokio..sync..mpsc..bounded..Sender$LT$reach_server..enums..S2CCommand$GT$..send..$u7b$$u7b$closure$u7d$$u7d$$GT$17hefaeb7477fb3e317E
	.seh_endproc
	.def	"?dtor$19@?0?_ZN4core3ptr129drop_in_place$LT$tokio..sync..mpsc..bounded..Sender$LT$reach_server..enums..S2CCommand$GT$..send..$u7b$$u7b$closure$u7d$$u7d$$GT$17hefaeb7477fb3e317E@4HA";
	.scl	3;
	.type	32;
	.endef
	.p2align	4, 0x90
"?dtor$19@?0?_ZN4core3ptr129drop_in_place$LT$tokio..sync..mpsc..bounded..Sender$LT$reach_server..enums..S2CCommand$GT$..send..$u7b$$u7b$closure$u7d$$u7d$$GT$17hefaeb7477fb3e317E@4HA":
.seh_proc "?dtor$19@?0?_ZN4core3ptr129drop_in_place$LT$tokio..sync..mpsc..bounded..Sender$LT$reach_server..enums..S2CCommand$GT$..send..$u7b$$u7b$closure$u7d$$u7d$$GT$17hefaeb7477fb3e317E@4HA"
.LBB55_19:
	movq	%rdx, 16(%rsp)
	pushq	%rbp
	.seh_pushreg %rbp
	subq	$32, %rsp
	.seh_stackalloc 32
	leaq	48(%rdx), %rbp
	.seh_endprologue
	movq	-16(%rbp), %rax
	movq	136(%rax), %rcx
	movq	144(%rax), %rdx
	callq	_ZN4core3ptr108drop_in_place$LT$tokio..util..cacheline..CachePadded$LT$tokio..sync..task..atomic_waker..AtomicWaker$GT$$GT$17h55872739accc4d3bE
	nop
	addq	$32, %rsp
	popq	%rbp
	retq
	.seh_handlerdata
	.section	.text,"xr",one_only,_ZN4core3ptr129drop_in_place$LT$tokio..sync..mpsc..bounded..Sender$LT$reach_server..enums..S2CCommand$GT$..send..$u7b$$u7b$closure$u7d$$u7d$$GT$17hefaeb7477fb3e317E
	.seh_endproc
	.def	"?dtor$20@?0?_ZN4core3ptr129drop_in_place$LT$tokio..sync..mpsc..bounded..Sender$LT$reach_server..enums..S2CCommand$GT$..send..$u7b$$u7b$closure$u7d$$u7d$$GT$17hefaeb7477fb3e317E@4HA";
	.scl	3;
	.type	32;
	.endef
	.p2align	4, 0x90
"?dtor$20@?0?_ZN4core3ptr129drop_in_place$LT$tokio..sync..mpsc..bounded..Sender$LT$reach_server..enums..S2CCommand$GT$..send..$u7b$$u7b$closure$u7d$$u7d$$GT$17hefaeb7477fb3e317E@4HA":
.seh_proc "?dtor$20@?0?_ZN4core3ptr129drop_in_place$LT$tokio..sync..mpsc..bounded..Sender$LT$reach_server..enums..S2CCommand$GT$..send..$u7b$$u7b$closure$u7d$$u7d$$GT$17hefaeb7477fb3e317E@4HA"
.LBB55_20:
	movq	%rdx, 16(%rsp)
	pushq	%rbp
	.seh_pushreg %rbp
	subq	$32, %rsp
	.seh_stackalloc 32
	leaq	48(%rdx), %rbp
	.seh_endprologue
	movq	-16(%rbp), %rax
	leaq	48(%rax), %rcx
	callq	_ZN4core3ptr52drop_in_place$LT$reach_server..enums..S2CCommand$GT$17h582e430ef0240349E
	nop
	addq	$32, %rsp
	popq	%rbp
	retq
	.seh_handlerdata
	.section	.text,"xr",one_only,_ZN4core3ptr129drop_in_place$LT$tokio..sync..mpsc..bounded..Sender$LT$reach_server..enums..S2CCommand$GT$..send..$u7b$$u7b$closure$u7d$$u7d$$GT$17hefaeb7477fb3e317E
	.seh_endproc
	.def	"?dtor$21@?0?_ZN4core3ptr129drop_in_place$LT$tokio..sync..mpsc..bounded..Sender$LT$reach_server..enums..S2CCommand$GT$..send..$u7b$$u7b$closure$u7d$$u7d$$GT$17hefaeb7477fb3e317E@4HA";
	.scl	3;
	.type	32;
	.endef
	.p2align	4, 0x90
"?dtor$21@?0?_ZN4core3ptr129drop_in_place$LT$tokio..sync..mpsc..bounded..Sender$LT$reach_server..enums..S2CCommand$GT$..send..$u7b$$u7b$closure$u7d$$u7d$$GT$17hefaeb7477fb3e317E@4HA":
.seh_proc "?dtor$21@?0?_ZN4core3ptr129drop_in_place$LT$tokio..sync..mpsc..bounded..Sender$LT$reach_server..enums..S2CCommand$GT$..send..$u7b$$u7b$closure$u7d$$u7d$$GT$17hefaeb7477fb3e317E@4HA"
.LBB55_21:
	movq	%rdx, 16(%rsp)
	pushq	%rbp
	.seh_pushreg %rbp
	subq	$32, %rsp
	.seh_stackalloc 32
	leaq	48(%rdx), %rbp
	.seh_endprologue
	movq	-16(%rbp), %rax
	movb	$0, 193(%rax)
	addq	$32, %rsp
	popq	%rbp
	retq
.Lfunc_end21:
	.seh_handlerdata
	.section	.text,"xr",one_only,_ZN4core3ptr129drop_in_place$LT$tokio..sync..mpsc..bounded..Sender$LT$reach_server..enums..S2CCommand$GT$..send..$u7b$$u7b$closure$u7d$$u7d$$GT$17hefaeb7477fb3e317E
	.seh_endproc
	.section	.xdata,"dr",associative,_ZN4core3ptr129drop_in_place$LT$tokio..sync..mpsc..bounded..Sender$LT$reach_server..enums..S2CCommand$GT$..send..$u7b$$u7b$closure$u7d$$u7d$$GT$17hefaeb7477fb3e317E
	.p2align	2, 0x0
$cppxdata$_ZN4core3ptr129drop_in_place$LT$tokio..sync..mpsc..bounded..Sender$LT$reach_server..enums..S2CCommand$GT$..send..$u7b$$u7b$closure$u7d$$u7d$$GT$17hefaeb7477fb3e317E:
	.long	429065506
	.long	3
	.long	($stateUnwindMap$_ZN4core3ptr129drop_in_place$LT$tokio..sync..mpsc..bounded..Sender$LT$reach_server..enums..S2CCommand$GT$..send..$u7b$$u7b$closure$u7d$$u7d$$GT$17hefaeb7477fb3e317E)@IMGREL
	.long	0
	.long	0
	.long	5
	.long	($ip2state$_ZN4core3ptr129drop_in_place$LT$tokio..sync..mpsc..bounded..Sender$LT$reach_server..enums..S2CCommand$GT$..send..$u7b$$u7b$closure$u7d$$u7d$$GT$17hefaeb7477fb3e317E)@IMGREL
	.long	40
	.long	0
	.long	1
$stateUnwindMap$_ZN4core3ptr129drop_in_place$LT$tokio..sync..mpsc..bounded..Sender$LT$reach_server..enums..S2CCommand$GT$..send..$u7b$$u7b$closure$u7d$$u7d$$GT$17hefaeb7477fb3e317E:
	.long	-1
	.long	"?dtor$21@?0?_ZN4core3ptr129drop_in_place$LT$tokio..sync..mpsc..bounded..Sender$LT$reach_server..enums..S2CCommand$GT$..send..$u7b$$u7b$closure$u7d$$u7d$$GT$17hefaeb7477fb3e317E@4HA"@IMGREL
	.long	0
	.long	"?dtor$20@?0?_ZN4core3ptr129drop_in_place$LT$tokio..sync..mpsc..bounded..Sender$LT$reach_server..enums..S2CCommand$GT$..send..$u7b$$u7b$closure$u7d$$u7d$$GT$17hefaeb7477fb3e317E@4HA"@IMGREL
	.long	1
	.long	"?dtor$19@?0?_ZN4core3ptr129drop_in_place$LT$tokio..sync..mpsc..bounded..Sender$LT$reach_server..enums..S2CCommand$GT$..send..$u7b$$u7b$closure$u7d$$u7d$$GT$17hefaeb7477fb3e317E@4HA"@IMGREL
$ip2state$_ZN4core3ptr129drop_in_place$LT$tokio..sync..mpsc..bounded..Sender$LT$reach_server..enums..S2CCommand$GT$..send..$u7b$$u7b$closure$u7d$$u7d$$GT$17hefaeb7477fb3e317E:
	.long	.Lfunc_begin21@IMGREL
	.long	-1
	.long	.Ltmp88@IMGREL+1
	.long	2
	.long	.Ltmp90@IMGREL+1
	.long	1
	.long	.Ltmp92@IMGREL+1
	.long	0
	.long	.Ltmp93@IMGREL+1
	.long	-1
	.section	.text,"xr",one_only,_ZN4core3ptr129drop_in_place$LT$tokio..sync..mpsc..bounded..Sender$LT$reach_server..enums..S2CCommand$GT$..send..$u7b$$u7b$closure$u7d$$u7d$$GT$17hefaeb7477fb3e317E

	.def	_ZN4core3ptr129drop_in_place$LT$tokio..sync..mpsc..chan..Chan$LT$reach_server..enums..S2CCommand$C$tokio..sync..mpsc..bounded..Semaphore$GT$$GT$17h4960c583d88912b7E;
	.scl	3;
	.type	32;
	.endef
	.section	.text,"xr",one_only,_ZN4core3ptr129drop_in_place$LT$tokio..sync..mpsc..chan..Chan$LT$reach_server..enums..S2CCommand$C$tokio..sync..mpsc..bounded..Semaphore$GT$$GT$17h4960c583d88912b7E
	.p2align	4, 0x90
_ZN4core3ptr129drop_in_place$LT$tokio..sync..mpsc..chan..Chan$LT$reach_server..enums..S2CCommand$C$tokio..sync..mpsc..bounded..Semaphore$GT$$GT$17h4960c583d88912b7E:
.Lfunc_begin22:
.seh_proc _ZN4core3ptr129drop_in_place$LT$tokio..sync..mpsc..chan..Chan$LT$reach_server..enums..S2CCommand$C$tokio..sync..mpsc..bounded..Semaphore$GT$$GT$17h4960c583d88912b7E
	.seh_handler __CxxFrameHandler3, @unwind, @except
	pushq	%rbp
	.seh_pushreg %rbp
	pushq	%rsi
	.seh_pushreg %rsi
	pushq	%rdi
	.seh_pushreg %rdi
	pushq	%rbx
	.seh_pushreg %rbx
	subq	$88, %rsp
	.seh_stackalloc 88
	leaq	80(%rsp), %rbp
	.seh_setframe %rbp, 80
	.seh_endprologue
	movq	$-2, (%rbp)
	movq	%rcx, %r8
	leaq	288(%rcx), %rsi
.Ltmp94:
	leaq	-48(%rbp), %rcx
	movq	%rsi, %rdx
	movq	%r8, -8(%rbp)
	callq	_ZN5tokio4sync4mpsc4list11Rx$LT$T$GT$3pop17h8a74f0b9853c0c87E
.Ltmp95:
	movq	-48(%rbp), %rax
	movl	%eax, %ecx
	notl	%ecx
	testb	$6, %cl
	je	.LBB56_6
	xorl	%ebx, %ebx
	leaq	-48(%rbp), %rdi
	.p2align	4, 0x90
.LBB56_3:
	leaq	-2(%rax), %rcx
	decq	%rax
	cmpq	$4, %rcx
	cmovaeq	%rbx, %rax
	cmpq	$3, %rax
	je	.LBB56_11
	testq	%rax, %rax
	jne	.LBB56_13
.Ltmp96:
	movq	%rdi, %rcx
	callq	_ZN4core3ptr55drop_in_place$LT$tokio..net..tcp..stream..TcpStream$GT$17hacadbfd7a24324b6E
.Ltmp97:
	jmp	.LBB56_13
	.p2align	4, 0x90
.LBB56_11:
	movq	-32(%rbp), %rdx
	testq	%rdx, %rdx
	je	.LBB56_13
	movq	-40(%rbp), %rcx
	movl	$1, %r8d
	callq	__rust_dealloc
.LBB56_13:
.Ltmp98:
	movq	%rdi, %rcx
	movq	%rsi, %rdx
	movq	-8(%rbp), %r8
	callq	_ZN5tokio4sync4mpsc4list11Rx$LT$T$GT$3pop17h8a74f0b9853c0c87E
.Ltmp99:
	movq	-48(%rbp), %rax
	movl	%eax, %ecx
	notl	%ecx
	testb	$6, %cl
	jne	.LBB56_3
.LBB56_6:
	movq	-8(%rbp), %rdi
	movq	296(%rdi), %rcx
	.p2align	4, 0x90
.LBB56_7:
	movq	1288(%rcx), %rsi
	movl	$1312, %edx
	movl	$8, %r8d
	callq	__rust_dealloc
	movq	%rsi, %rcx
	testq	%rsi, %rsi
	jne	.LBB56_7
	movq	128(%rdi), %rax
	testq	%rax, %rax
	je	.LBB56_10
	movq	136(%rdi), %rcx
	callq	*24(%rax)
.LBB56_10:
	nop
	addq	$88, %rsp
	popq	%rbx
	popq	%rdi
	popq	%rsi
	popq	%rbp
	retq
	.seh_handlerdata
	.long	($cppxdata$_ZN4core3ptr129drop_in_place$LT$tokio..sync..mpsc..chan..Chan$LT$reach_server..enums..S2CCommand$C$tokio..sync..mpsc..bounded..Semaphore$GT$$GT$17h4960c583d88912b7E)@IMGREL
	.section	.text,"xr",one_only,_ZN4core3ptr129drop_in_place$LT$tokio..sync..mpsc..chan..Chan$LT$reach_server..enums..S2CCommand$C$tokio..sync..mpsc..bounded..Semaphore$GT$$GT$17h4960c583d88912b7E
	.seh_endproc
	.def	"?dtor$15@?0?_ZN4core3ptr129drop_in_place$LT$tokio..sync..mpsc..chan..Chan$LT$reach_server..enums..S2CCommand$C$tokio..sync..mpsc..bounded..Semaphore$GT$$GT$17h4960c583d88912b7E@4HA";
	.scl	3;
	.type	32;
	.endef
	.p2align	4, 0x90
"?dtor$15@?0?_ZN4core3ptr129drop_in_place$LT$tokio..sync..mpsc..chan..Chan$LT$reach_server..enums..S2CCommand$C$tokio..sync..mpsc..bounded..Semaphore$GT$$GT$17h4960c583d88912b7E@4HA":
.seh_proc "?dtor$15@?0?_ZN4core3ptr129drop_in_place$LT$tokio..sync..mpsc..chan..Chan$LT$reach_server..enums..S2CCommand$C$tokio..sync..mpsc..bounded..Semaphore$GT$$GT$17h4960c583d88912b7E@4HA"
.LBB56_15:
	movq	%rdx, 16(%rsp)
	pushq	%rbp
	.seh_pushreg %rbp
	pushq	%rsi
	.seh_pushreg %rsi
	pushq	%rdi
	.seh_pushreg %rdi
	pushq	%rbx
	.seh_pushreg %rbx
	subq	$40, %rsp
	.seh_stackalloc 40
	leaq	80(%rdx), %rbp
	.seh_endprologue
	movq	-8(%rbp), %rax
	movq	128(%rax), %rcx
	movq	136(%rax), %rdx
	callq	_ZN4core3ptr108drop_in_place$LT$tokio..util..cacheline..CachePadded$LT$tokio..sync..task..atomic_waker..AtomicWaker$GT$$GT$17h55872739accc4d3bE
	nop
	addq	$40, %rsp
	popq	%rbx
	popq	%rdi
	popq	%rsi
	popq	%rbp
	retq
.Lfunc_end22:
	.seh_handlerdata
	.section	.text,"xr",one_only,_ZN4core3ptr129drop_in_place$LT$tokio..sync..mpsc..chan..Chan$LT$reach_server..enums..S2CCommand$C$tokio..sync..mpsc..bounded..Semaphore$GT$$GT$17h4960c583d88912b7E
	.seh_endproc
	.section	.xdata,"dr",associative,_ZN4core3ptr129drop_in_place$LT$tokio..sync..mpsc..chan..Chan$LT$reach_server..enums..S2CCommand$C$tokio..sync..mpsc..bounded..Semaphore$GT$$GT$17h4960c583d88912b7E
	.p2align	2, 0x0
$cppxdata$_ZN4core3ptr129drop_in_place$LT$tokio..sync..mpsc..chan..Chan$LT$reach_server..enums..S2CCommand$C$tokio..sync..mpsc..bounded..Semaphore$GT$$GT$17h4960c583d88912b7E:
	.long	429065506
	.long	1
	.long	($stateUnwindMap$_ZN4core3ptr129drop_in_place$LT$tokio..sync..mpsc..chan..Chan$LT$reach_server..enums..S2CCommand$C$tokio..sync..mpsc..bounded..Semaphore$GT$$GT$17h4960c583d88912b7E)@IMGREL
	.long	0
	.long	0
	.long	3
	.long	($ip2state$_ZN4core3ptr129drop_in_place$LT$tokio..sync..mpsc..chan..Chan$LT$reach_server..enums..S2CCommand$C$tokio..sync..mpsc..bounded..Semaphore$GT$$GT$17h4960c583d88912b7E)@IMGREL
	.long	80
	.long	0
	.long	1
$stateUnwindMap$_ZN4core3ptr129drop_in_place$LT$tokio..sync..mpsc..chan..Chan$LT$reach_server..enums..S2CCommand$C$tokio..sync..mpsc..bounded..Semaphore$GT$$GT$17h4960c583d88912b7E:
	.long	-1
	.long	"?dtor$15@?0?_ZN4core3ptr129drop_in_place$LT$tokio..sync..mpsc..chan..Chan$LT$reach_server..enums..S2CCommand$C$tokio..sync..mpsc..bounded..Semaphore$GT$$GT$17h4960c583d88912b7E@4HA"@IMGREL
$ip2state$_ZN4core3ptr129drop_in_place$LT$tokio..sync..mpsc..chan..Chan$LT$reach_server..enums..S2CCommand$C$tokio..sync..mpsc..bounded..Semaphore$GT$$GT$17h4960c583d88912b7E:
	.long	.Lfunc_begin22@IMGREL
	.long	-1
	.long	.Ltmp94@IMGREL+1
	.long	0
	.long	.Ltmp99@IMGREL+1
	.long	-1
	.section	.text,"xr",one_only,_ZN4core3ptr129drop_in_place$LT$tokio..sync..mpsc..chan..Chan$LT$reach_server..enums..S2CCommand$C$tokio..sync..mpsc..bounded..Semaphore$GT$$GT$17h4960c583d88912b7E

	.def	_ZN4core3ptr130drop_in_place$LT$core..result..Result$LT$$LP$$RP$$C$alloc..boxed..Box$LT$dyn$u20$core..any..Any$u2b$core..marker..Send$GT$$GT$$GT$17h9c6f278e327943a4E;
	.scl	3;
	.type	32;
	.endef
	.section	.text,"xr",one_only,_ZN4core3ptr130drop_in_place$LT$core..result..Result$LT$$LP$$RP$$C$alloc..boxed..Box$LT$dyn$u20$core..any..Any$u2b$core..marker..Send$GT$$GT$$GT$17h9c6f278e327943a4E
	.p2align	4, 0x90
_ZN4core3ptr130drop_in_place$LT$core..result..Result$LT$$LP$$RP$$C$alloc..boxed..Box$LT$dyn$u20$core..any..Any$u2b$core..marker..Send$GT$$GT$$GT$17h9c6f278e327943a4E:
.Lfunc_begin23:
.seh_proc _ZN4core3ptr130drop_in_place$LT$core..result..Result$LT$$LP$$RP$$C$alloc..boxed..Box$LT$dyn$u20$core..any..Any$u2b$core..marker..Send$GT$$GT$$GT$17h9c6f278e327943a4E
	.seh_handler __CxxFrameHandler3, @unwind, @except
	pushq	%rbp
	.seh_pushreg %rbp
	subq	$64, %rsp
	.seh_stackalloc 64
	leaq	64(%rsp), %rbp
	.seh_setframe %rbp, 64
	.seh_endprologue
	movq	$-2, -8(%rbp)
	testq	%rcx, %rcx
	je	.LBB57_3
.Ltmp100:
	movq	%rcx, -16(%rbp)
	movq	%rdx, -24(%rbp)
	callq	*(%rdx)
.Ltmp101:
	movq	-24(%rbp), %rax
	movq	8(%rax), %rdx
	testq	%rdx, %rdx
	movq	-16(%rbp), %rcx
	je	.LBB57_3
	movq	16(%rax), %r8
	addq	$64, %rsp
	popq	%rbp
	jmp	__rust_dealloc
.LBB57_3:
	nop
	addq	$64, %rsp
	popq	%rbp
	retq
	.seh_handlerdata
	.long	($cppxdata$_ZN4core3ptr130drop_in_place$LT$core..result..Result$LT$$LP$$RP$$C$alloc..boxed..Box$LT$dyn$u20$core..any..Any$u2b$core..marker..Send$GT$$GT$$GT$17h9c6f278e327943a4E)@IMGREL
	.section	.text,"xr",one_only,_ZN4core3ptr130drop_in_place$LT$core..result..Result$LT$$LP$$RP$$C$alloc..boxed..Box$LT$dyn$u20$core..any..Any$u2b$core..marker..Send$GT$$GT$$GT$17h9c6f278e327943a4E
	.seh_endproc
	.def	"?dtor$4@?0?_ZN4core3ptr130drop_in_place$LT$core..result..Result$LT$$LP$$RP$$C$alloc..boxed..Box$LT$dyn$u20$core..any..Any$u2b$core..marker..Send$GT$$GT$$GT$17h9c6f278e327943a4E@4HA";
	.scl	3;
	.type	32;
	.endef
	.p2align	4, 0x90
"?dtor$4@?0?_ZN4core3ptr130drop_in_place$LT$core..result..Result$LT$$LP$$RP$$C$alloc..boxed..Box$LT$dyn$u20$core..any..Any$u2b$core..marker..Send$GT$$GT$$GT$17h9c6f278e327943a4E@4HA":
.seh_proc "?dtor$4@?0?_ZN4core3ptr130drop_in_place$LT$core..result..Result$LT$$LP$$RP$$C$alloc..boxed..Box$LT$dyn$u20$core..any..Any$u2b$core..marker..Send$GT$$GT$$GT$17h9c6f278e327943a4E@4HA"
.LBB57_4:
	movq	%rdx, 16(%rsp)
	pushq	%rbp
	.seh_pushreg %rbp
	subq	$32, %rsp
	.seh_stackalloc 32
	leaq	64(%rdx), %rbp
	.seh_endprologue
	movq	-16(%rbp), %rcx
	movq	-24(%rbp), %rdx
	callq	_ZN72_$LT$alloc..boxed..Box$LT$T$C$A$GT$$u20$as$u20$core..ops..drop..Drop$GT$4drop17h4e15c87e5099ad14E
	nop
	addq	$32, %rsp
	popq	%rbp
	retq
.Lfunc_end23:
	.seh_handlerdata
	.section	.text,"xr",one_only,_ZN4core3ptr130drop_in_place$LT$core..result..Result$LT$$LP$$RP$$C$alloc..boxed..Box$LT$dyn$u20$core..any..Any$u2b$core..marker..Send$GT$$GT$$GT$17h9c6f278e327943a4E
	.seh_endproc
	.section	.xdata,"dr",associative,_ZN4core3ptr130drop_in_place$LT$core..result..Result$LT$$LP$$RP$$C$alloc..boxed..Box$LT$dyn$u20$core..any..Any$u2b$core..marker..Send$GT$$GT$$GT$17h9c6f278e327943a4E
	.p2align	2, 0x0
$cppxdata$_ZN4core3ptr130drop_in_place$LT$core..result..Result$LT$$LP$$RP$$C$alloc..boxed..Box$LT$dyn$u20$core..any..Any$u2b$core..marker..Send$GT$$GT$$GT$17h9c6f278e327943a4E:
	.long	429065506
	.long	1
	.long	($stateUnwindMap$_ZN4core3ptr130drop_in_place$LT$core..result..Result$LT$$LP$$RP$$C$alloc..boxed..Box$LT$dyn$u20$core..any..Any$u2b$core..marker..Send$GT$$GT$$GT$17h9c6f278e327943a4E)@IMGREL
	.long	0
	.long	0
	.long	3
	.long	($ip2state$_ZN4core3ptr130drop_in_place$LT$core..result..Result$LT$$LP$$RP$$C$alloc..boxed..Box$LT$dyn$u20$core..any..Any$u2b$core..marker..Send$GT$$GT$$GT$17h9c6f278e327943a4E)@IMGREL
	.long	56
	.long	0
	.long	1
$stateUnwindMap$_ZN4core3ptr130drop_in_place$LT$core..result..Result$LT$$LP$$RP$$C$alloc..boxed..Box$LT$dyn$u20$core..any..Any$u2b$core..marker..Send$GT$$GT$$GT$17h9c6f278e327943a4E:
	.long	-1
	.long	"?dtor$4@?0?_ZN4core3ptr130drop_in_place$LT$core..result..Result$LT$$LP$$RP$$C$alloc..boxed..Box$LT$dyn$u20$core..any..Any$u2b$core..marker..Send$GT$$GT$$GT$17h9c6f278e327943a4E@4HA"@IMGREL
$ip2state$_ZN4core3ptr130drop_in_place$LT$core..result..Result$LT$$LP$$RP$$C$alloc..boxed..Box$LT$dyn$u20$core..any..Any$u2b$core..marker..Send$GT$$GT$$GT$17h9c6f278e327943a4E:
	.long	.Lfunc_begin23@IMGREL
	.long	-1
	.long	.Ltmp100@IMGREL+1
	.long	0
	.long	.Ltmp101@IMGREL+1
	.long	-1
	.section	.text,"xr",one_only,_ZN4core3ptr130drop_in_place$LT$core..result..Result$LT$$LP$$RP$$C$alloc..boxed..Box$LT$dyn$u20$core..any..Any$u2b$core..marker..Send$GT$$GT$$GT$17h9c6f278e327943a4E

	.def	_ZN4core3ptr132drop_in_place$LT$tokio..sync..mpsc..bounded..Sender$LT$reach_server..enums..C2SCommand$GT$..reserve..$u7b$$u7b$closure$u7d$$u7d$$GT$17h19c6209bf112fc81E;
	.scl	3;
	.type	32;
	.endef
	.section	.text,"xr",one_only,_ZN4core3ptr132drop_in_place$LT$tokio..sync..mpsc..bounded..Sender$LT$reach_server..enums..C2SCommand$GT$..reserve..$u7b$$u7b$closure$u7d$$u7d$$GT$17h19c6209bf112fc81E
	.p2align	4, 0x90
_ZN4core3ptr132drop_in_place$LT$tokio..sync..mpsc..bounded..Sender$LT$reach_server..enums..C2SCommand$GT$..reserve..$u7b$$u7b$closure$u7d$$u7d$$GT$17h19c6209bf112fc81E:
.Lfunc_begin24:
.seh_proc _ZN4core3ptr132drop_in_place$LT$tokio..sync..mpsc..bounded..Sender$LT$reach_server..enums..C2SCommand$GT$..reserve..$u7b$$u7b$closure$u7d$$u7d$$GT$17h19c6209bf112fc81E
	.seh_handler __CxxFrameHandler3, @unwind, @except
	pushq	%rbp
	.seh_pushreg %rbp
	subq	$48, %rsp
	.seh_stackalloc 48
	leaq	48(%rsp), %rbp
	.seh_setframe %rbp, 48
	.seh_endprologue
	movq	$-2, -8(%rbp)
	cmpb	$3, 96(%rcx)
	jne	.LBB58_4
	cmpb	$4, 32(%rcx)
	jne	.LBB58_4
	movq	%rcx, -16(%rbp)
	addq	$40, %rcx
.Ltmp102:
	callq	_ZN79_$LT$tokio..sync..batch_semaphore..Acquire$u20$as$u20$core..ops..drop..Drop$GT$4drop17h3e677387310bd09bE
.Ltmp103:
	movq	-16(%rbp), %rcx
	movq	48(%rcx), %rax
	testq	%rax, %rax
	je	.LBB58_4
	movq	56(%rcx), %rcx
	addq	$48, %rsp
	popq	%rbp
	rex64 jmpq	*24(%rax)
.LBB58_4:
	nop
	addq	$48, %rsp
	popq	%rbp
	retq
	.seh_handlerdata
	.long	($cppxdata$_ZN4core3ptr132drop_in_place$LT$tokio..sync..mpsc..bounded..Sender$LT$reach_server..enums..C2SCommand$GT$..reserve..$u7b$$u7b$closure$u7d$$u7d$$GT$17h19c6209bf112fc81E)@IMGREL
	.section	.text,"xr",one_only,_ZN4core3ptr132drop_in_place$LT$tokio..sync..mpsc..bounded..Sender$LT$reach_server..enums..C2SCommand$GT$..reserve..$u7b$$u7b$closure$u7d$$u7d$$GT$17h19c6209bf112fc81E
	.seh_endproc
	.def	"?dtor$5@?0?_ZN4core3ptr132drop_in_place$LT$tokio..sync..mpsc..bounded..Sender$LT$reach_server..enums..C2SCommand$GT$..reserve..$u7b$$u7b$closure$u7d$$u7d$$GT$17h19c6209bf112fc81E@4HA";
	.scl	3;
	.type	32;
	.endef
	.p2align	4, 0x90
"?dtor$5@?0?_ZN4core3ptr132drop_in_place$LT$tokio..sync..mpsc..bounded..Sender$LT$reach_server..enums..C2SCommand$GT$..reserve..$u7b$$u7b$closure$u7d$$u7d$$GT$17h19c6209bf112fc81E@4HA":
.seh_proc "?dtor$5@?0?_ZN4core3ptr132drop_in_place$LT$tokio..sync..mpsc..bounded..Sender$LT$reach_server..enums..C2SCommand$GT$..reserve..$u7b$$u7b$closure$u7d$$u7d$$GT$17h19c6209bf112fc81E@4HA"
.LBB58_5:
	movq	%rdx, 16(%rsp)
	pushq	%rbp
	.seh_pushreg %rbp
	subq	$32, %rsp
	.seh_stackalloc 32
	leaq	48(%rdx), %rbp
	.seh_endprologue
	movq	-16(%rbp), %rax
	movq	48(%rax), %rcx
	movq	56(%rax), %rdx
	callq	_ZN4core3ptr108drop_in_place$LT$tokio..util..cacheline..CachePadded$LT$tokio..sync..task..atomic_waker..AtomicWaker$GT$$GT$17h55872739accc4d3bE
	nop
	addq	$32, %rsp
	popq	%rbp
	retq
.Lfunc_end24:
	.seh_handlerdata
	.section	.text,"xr",one_only,_ZN4core3ptr132drop_in_place$LT$tokio..sync..mpsc..bounded..Sender$LT$reach_server..enums..C2SCommand$GT$..reserve..$u7b$$u7b$closure$u7d$$u7d$$GT$17h19c6209bf112fc81E
	.seh_endproc
	.section	.xdata,"dr",associative,_ZN4core3ptr132drop_in_place$LT$tokio..sync..mpsc..bounded..Sender$LT$reach_server..enums..C2SCommand$GT$..reserve..$u7b$$u7b$closure$u7d$$u7d$$GT$17h19c6209bf112fc81E
	.p2align	2, 0x0
$cppxdata$_ZN4core3ptr132drop_in_place$LT$tokio..sync..mpsc..bounded..Sender$LT$reach_server..enums..C2SCommand$GT$..reserve..$u7b$$u7b$closure$u7d$$u7d$$GT$17h19c6209bf112fc81E:
	.long	429065506
	.long	1
	.long	($stateUnwindMap$_ZN4core3ptr132drop_in_place$LT$tokio..sync..mpsc..bounded..Sender$LT$reach_server..enums..C2SCommand$GT$..reserve..$u7b$$u7b$closure$u7d$$u7d$$GT$17h19c6209bf112fc81E)@IMGREL
	.long	0
	.long	0
	.long	3
	.long	($ip2state$_ZN4core3ptr132drop_in_place$LT$tokio..sync..mpsc..bounded..Sender$LT$reach_server..enums..C2SCommand$GT$..reserve..$u7b$$u7b$closure$u7d$$u7d$$GT$17h19c6209bf112fc81E)@IMGREL
	.long	40
	.long	0
	.long	1
$stateUnwindMap$_ZN4core3ptr132drop_in_place$LT$tokio..sync..mpsc..bounded..Sender$LT$reach_server..enums..C2SCommand$GT$..reserve..$u7b$$u7b$closure$u7d$$u7d$$GT$17h19c6209bf112fc81E:
	.long	-1
	.long	"?dtor$5@?0?_ZN4core3ptr132drop_in_place$LT$tokio..sync..mpsc..bounded..Sender$LT$reach_server..enums..C2SCommand$GT$..reserve..$u7b$$u7b$closure$u7d$$u7d$$GT$17h19c6209bf112fc81E@4HA"@IMGREL
$ip2state$_ZN4core3ptr132drop_in_place$LT$tokio..sync..mpsc..bounded..Sender$LT$reach_server..enums..C2SCommand$GT$..reserve..$u7b$$u7b$closure$u7d$$u7d$$GT$17h19c6209bf112fc81E:
	.long	.Lfunc_begin24@IMGREL
	.long	-1
	.long	.Ltmp102@IMGREL+1
	.long	0
	.long	.Ltmp103@IMGREL+1
	.long	-1
	.section	.text,"xr",one_only,_ZN4core3ptr132drop_in_place$LT$tokio..sync..mpsc..bounded..Sender$LT$reach_server..enums..C2SCommand$GT$..reserve..$u7b$$u7b$closure$u7d$$u7d$$GT$17h19c6209bf112fc81E

	.def	_ZN4core3ptr136drop_in_place$LT$core..pin..Pin$LT$alloc..sync..Arc$LT$std..sync..mutex..Mutex$LT$mio..sys..windows..selector..SockState$GT$$GT$$GT$$GT$17hea700e6575c11cd3E;
	.scl	3;
	.type	32;
	.endef
	.section	.text,"xr",one_only,_ZN4core3ptr136drop_in_place$LT$core..pin..Pin$LT$alloc..sync..Arc$LT$std..sync..mutex..Mutex$LT$mio..sys..windows..selector..SockState$GT$$GT$$GT$$GT$17hea700e6575c11cd3E
	.p2align	4, 0x90
_ZN4core3ptr136drop_in_place$LT$core..pin..Pin$LT$alloc..sync..Arc$LT$std..sync..mutex..Mutex$LT$mio..sys..windows..selector..SockState$GT$$GT$$GT$$GT$17hea700e6575c11cd3E:
	lock		decq	(%rcx)
	jne	.LBB59_1
	#MEMBARRIER
	jmp	_ZN5alloc4sync12Arc$LT$T$GT$9drop_slow17h55937e594f2ced73E
.LBB59_1:
	retq

	.def	_ZN4core3ptr139drop_in_place$LT$core..option..Option$LT$core..result..Result$LT$$LP$$RP$$C$alloc..boxed..Box$LT$dyn$u20$core..error..Error$GT$$GT$$GT$$GT$17h6311b09f9d74e976E;
	.scl	3;
	.type	32;
	.endef
	.section	.text,"xr",one_only,_ZN4core3ptr139drop_in_place$LT$core..option..Option$LT$core..result..Result$LT$$LP$$RP$$C$alloc..boxed..Box$LT$dyn$u20$core..error..Error$GT$$GT$$GT$$GT$17h6311b09f9d74e976E
	.p2align	4, 0x90
_ZN4core3ptr139drop_in_place$LT$core..option..Option$LT$core..result..Result$LT$$LP$$RP$$C$alloc..boxed..Box$LT$dyn$u20$core..error..Error$GT$$GT$$GT$$GT$17h6311b09f9d74e976E:
.Lfunc_begin25:
.seh_proc _ZN4core3ptr139drop_in_place$LT$core..option..Option$LT$core..result..Result$LT$$LP$$RP$$C$alloc..boxed..Box$LT$dyn$u20$core..error..Error$GT$$GT$$GT$$GT$17h6311b09f9d74e976E
	.seh_handler __CxxFrameHandler3, @unwind, @except
	pushq	%rbp
	.seh_pushreg %rbp
	subq	$64, %rsp
	.seh_stackalloc 64
	leaq	64(%rsp), %rbp
	.seh_setframe %rbp, 64
	.seh_endprologue
	movq	$-2, -8(%rbp)
	cmpq	$0, (%rcx)
	je	.LBB60_4
	movq	8(%rcx), %rax
	testq	%rax, %rax
	je	.LBB60_4
	movq	16(%rcx), %rdx
.Ltmp104:
	movq	%rax, -24(%rbp)
	movq	%rax, %rcx
	movq	%rdx, -16(%rbp)
	callq	*(%rdx)
.Ltmp105:
	movq	-16(%rbp), %rax
	movq	8(%rax), %rdx
	testq	%rdx, %rdx
	movq	-24(%rbp), %rcx
	je	.LBB60_4
	movq	16(%rax), %r8
	addq	$64, %rsp
	popq	%rbp
	jmp	__rust_dealloc
.LBB60_4:
	nop
	addq	$64, %rsp
	popq	%rbp
	retq
	.seh_handlerdata
	.long	($cppxdata$_ZN4core3ptr139drop_in_place$LT$core..option..Option$LT$core..result..Result$LT$$LP$$RP$$C$alloc..boxed..Box$LT$dyn$u20$core..error..Error$GT$$GT$$GT$$GT$17h6311b09f9d74e976E)@IMGREL
	.section	.text,"xr",one_only,_ZN4core3ptr139drop_in_place$LT$core..option..Option$LT$core..result..Result$LT$$LP$$RP$$C$alloc..boxed..Box$LT$dyn$u20$core..error..Error$GT$$GT$$GT$$GT$17h6311b09f9d74e976E
	.seh_endproc
	.def	"?dtor$5@?0?_ZN4core3ptr139drop_in_place$LT$core..option..Option$LT$core..result..Result$LT$$LP$$RP$$C$alloc..boxed..Box$LT$dyn$u20$core..error..Error$GT$$GT$$GT$$GT$17h6311b09f9d74e976E@4HA";
	.scl	3;
	.type	32;
	.endef
	.p2align	4, 0x90
"?dtor$5@?0?_ZN4core3ptr139drop_in_place$LT$core..option..Option$LT$core..result..Result$LT$$LP$$RP$$C$alloc..boxed..Box$LT$dyn$u20$core..error..Error$GT$$GT$$GT$$GT$17h6311b09f9d74e976E@4HA":
.seh_proc "?dtor$5@?0?_ZN4core3ptr139drop_in_place$LT$core..option..Option$LT$core..result..Result$LT$$LP$$RP$$C$alloc..boxed..Box$LT$dyn$u20$core..error..Error$GT$$GT$$GT$$GT$17h6311b09f9d74e976E@4HA"
.LBB60_5:
	movq	%rdx, 16(%rsp)
	pushq	%rbp
	.seh_pushreg %rbp
	subq	$32, %rsp
	.seh_stackalloc 32
	leaq	64(%rdx), %rbp
	.seh_endprologue
	movq	-24(%rbp), %rcx
	movq	-16(%rbp), %rdx
	callq	_ZN72_$LT$alloc..boxed..Box$LT$T$C$A$GT$$u20$as$u20$core..ops..drop..Drop$GT$4drop17h4e15c87e5099ad14E
	nop
	addq	$32, %rsp
	popq	%rbp
	retq
.Lfunc_end25:
	.seh_handlerdata
	.section	.text,"xr",one_only,_ZN4core3ptr139drop_in_place$LT$core..option..Option$LT$core..result..Result$LT$$LP$$RP$$C$alloc..boxed..Box$LT$dyn$u20$core..error..Error$GT$$GT$$GT$$GT$17h6311b09f9d74e976E
	.seh_endproc
	.section	.xdata,"dr",associative,_ZN4core3ptr139drop_in_place$LT$core..option..Option$LT$core..result..Result$LT$$LP$$RP$$C$alloc..boxed..Box$LT$dyn$u20$core..error..Error$GT$$GT$$GT$$GT$17h6311b09f9d74e976E
	.p2align	2, 0x0
$cppxdata$_ZN4core3ptr139drop_in_place$LT$core..option..Option$LT$core..result..Result$LT$$LP$$RP$$C$alloc..boxed..Box$LT$dyn$u20$core..error..Error$GT$$GT$$GT$$GT$17h6311b09f9d74e976E:
	.long	429065506
	.long	1
	.long	($stateUnwindMap$_ZN4core3ptr139drop_in_place$LT$core..option..Option$LT$core..result..Result$LT$$LP$$RP$$C$alloc..boxed..Box$LT$dyn$u20$core..error..Error$GT$$GT$$GT$$GT$17h6311b09f9d74e976E)@IMGREL
	.long	0
	.long	0
	.long	3
	.long	($ip2state$_ZN4core3ptr139drop_in_place$LT$core..option..Option$LT$core..result..Result$LT$$LP$$RP$$C$alloc..boxed..Box$LT$dyn$u20$core..error..Error$GT$$GT$$GT$$GT$17h6311b09f9d74e976E)@IMGREL
	.long	56
	.long	0
	.long	1
$stateUnwindMap$_ZN4core3ptr139drop_in_place$LT$core..option..Option$LT$core..result..Result$LT$$LP$$RP$$C$alloc..boxed..Box$LT$dyn$u20$core..error..Error$GT$$GT$$GT$$GT$17h6311b09f9d74e976E:
	.long	-1
	.long	"?dtor$5@?0?_ZN4core3ptr139drop_in_place$LT$core..option..Option$LT$core..result..Result$LT$$LP$$RP$$C$alloc..boxed..Box$LT$dyn$u20$core..error..Error$GT$$GT$$GT$$GT$17h6311b09f9d74e976E@4HA"@IMGREL
$ip2state$_ZN4core3ptr139drop_in_place$LT$core..option..Option$LT$core..result..Result$LT$$LP$$RP$$C$alloc..boxed..Box$LT$dyn$u20$core..error..Error$GT$$GT$$GT$$GT$17h6311b09f9d74e976E:
	.long	.Lfunc_begin25@IMGREL
	.long	-1
	.long	.Ltmp104@IMGREL+1
	.long	0
	.long	.Ltmp105@IMGREL+1
	.long	-1
	.section	.text,"xr",one_only,_ZN4core3ptr139drop_in_place$LT$core..option..Option$LT$core..result..Result$LT$$LP$$RP$$C$alloc..boxed..Box$LT$dyn$u20$core..error..Error$GT$$GT$$GT$$GT$17h6311b09f9d74e976E

	.def	_ZN4core3ptr141drop_in_place$LT$core..task..poll..Poll$LT$core..result..Result$LT$$LP$$RP$$C$alloc..boxed..Box$LT$dyn$u20$core..error..Error$GT$$GT$$GT$$GT$17h9d3a03f4527f91ecE;
	.scl	3;
	.type	32;
	.endef
	.section	.text,"xr",one_only,_ZN4core3ptr141drop_in_place$LT$core..task..poll..Poll$LT$core..result..Result$LT$$LP$$RP$$C$alloc..boxed..Box$LT$dyn$u20$core..error..Error$GT$$GT$$GT$$GT$17h9d3a03f4527f91ecE
	.p2align	4, 0x90
_ZN4core3ptr141drop_in_place$LT$core..task..poll..Poll$LT$core..result..Result$LT$$LP$$RP$$C$alloc..boxed..Box$LT$dyn$u20$core..error..Error$GT$$GT$$GT$$GT$17h9d3a03f4527f91ecE:
.Lfunc_begin26:
.seh_proc _ZN4core3ptr141drop_in_place$LT$core..task..poll..Poll$LT$core..result..Result$LT$$LP$$RP$$C$alloc..boxed..Box$LT$dyn$u20$core..error..Error$GT$$GT$$GT$$GT$17h9d3a03f4527f91ecE
	.seh_handler __CxxFrameHandler3, @unwind, @except
	pushq	%rbp
	.seh_pushreg %rbp
	subq	$64, %rsp
	.seh_stackalloc 64
	leaq	64(%rsp), %rbp
	.seh_setframe %rbp, 64
	.seh_endprologue
	movq	$-2, -8(%rbp)
	cmpq	$0, (%rcx)
	je	.LBB61_1
.LBB61_4:
	addq	$64, %rsp
	popq	%rbp
	retq
.LBB61_1:
	movq	8(%rcx), %rax
	testq	%rax, %rax
	je	.LBB61_4
	movq	16(%rcx), %rdx
.Ltmp106:
	movq	%rax, -24(%rbp)
	movq	%rax, %rcx
	movq	%rdx, -16(%rbp)
	callq	*(%rdx)
.Ltmp107:
	movq	-16(%rbp), %rax
	movq	8(%rax), %rdx
	testq	%rdx, %rdx
	movq	-24(%rbp), %rcx
	je	.LBB61_4
	movq	16(%rax), %r8
	addq	$64, %rsp
	popq	%rbp
	jmp	__rust_dealloc
	.seh_handlerdata
	.long	($cppxdata$_ZN4core3ptr141drop_in_place$LT$core..task..poll..Poll$LT$core..result..Result$LT$$LP$$RP$$C$alloc..boxed..Box$LT$dyn$u20$core..error..Error$GT$$GT$$GT$$GT$17h9d3a03f4527f91ecE)@IMGREL
	.section	.text,"xr",one_only,_ZN4core3ptr141drop_in_place$LT$core..task..poll..Poll$LT$core..result..Result$LT$$LP$$RP$$C$alloc..boxed..Box$LT$dyn$u20$core..error..Error$GT$$GT$$GT$$GT$17h9d3a03f4527f91ecE
	.seh_endproc
	.def	"?dtor$5@?0?_ZN4core3ptr141drop_in_place$LT$core..task..poll..Poll$LT$core..result..Result$LT$$LP$$RP$$C$alloc..boxed..Box$LT$dyn$u20$core..error..Error$GT$$GT$$GT$$GT$17h9d3a03f4527f91ecE@4HA";
	.scl	3;
	.type	32;
	.endef
	.p2align	4, 0x90
"?dtor$5@?0?_ZN4core3ptr141drop_in_place$LT$core..task..poll..Poll$LT$core..result..Result$LT$$LP$$RP$$C$alloc..boxed..Box$LT$dyn$u20$core..error..Error$GT$$GT$$GT$$GT$17h9d3a03f4527f91ecE@4HA":
.seh_proc "?dtor$5@?0?_ZN4core3ptr141drop_in_place$LT$core..task..poll..Poll$LT$core..result..Result$LT$$LP$$RP$$C$alloc..boxed..Box$LT$dyn$u20$core..error..Error$GT$$GT$$GT$$GT$17h9d3a03f4527f91ecE@4HA"
.LBB61_5:
	movq	%rdx, 16(%rsp)
	pushq	%rbp
	.seh_pushreg %rbp
	subq	$32, %rsp
	.seh_stackalloc 32
	leaq	64(%rdx), %rbp
	.seh_endprologue
	movq	-24(%rbp), %rcx
	movq	-16(%rbp), %rdx
	callq	_ZN72_$LT$alloc..boxed..Box$LT$T$C$A$GT$$u20$as$u20$core..ops..drop..Drop$GT$4drop17h4e15c87e5099ad14E
	nop
	addq	$32, %rsp
	popq	%rbp
	retq
.Lfunc_end26:
	.seh_handlerdata
	.section	.text,"xr",one_only,_ZN4core3ptr141drop_in_place$LT$core..task..poll..Poll$LT$core..result..Result$LT$$LP$$RP$$C$alloc..boxed..Box$LT$dyn$u20$core..error..Error$GT$$GT$$GT$$GT$17h9d3a03f4527f91ecE
	.seh_endproc
	.section	.xdata,"dr",associative,_ZN4core3ptr141drop_in_place$LT$core..task..poll..Poll$LT$core..result..Result$LT$$LP$$RP$$C$alloc..boxed..Box$LT$dyn$u20$core..error..Error$GT$$GT$$GT$$GT$17h9d3a03f4527f91ecE
	.p2align	2, 0x0
$cppxdata$_ZN4core3ptr141drop_in_place$LT$core..task..poll..Poll$LT$core..result..Result$LT$$LP$$RP$$C$alloc..boxed..Box$LT$dyn$u20$core..error..Error$GT$$GT$$GT$$GT$17h9d3a03f4527f91ecE:
	.long	429065506
	.long	1
	.long	($stateUnwindMap$_ZN4core3ptr141drop_in_place$LT$core..task..poll..Poll$LT$core..result..Result$LT$$LP$$RP$$C$alloc..boxed..Box$LT$dyn$u20$core..error..Error$GT$$GT$$GT$$GT$17h9d3a03f4527f91ecE)@IMGREL
	.long	0
	.long	0
	.long	3
	.long	($ip2state$_ZN4core3ptr141drop_in_place$LT$core..task..poll..Poll$LT$core..result..Result$LT$$LP$$RP$$C$alloc..boxed..Box$LT$dyn$u20$core..error..Error$GT$$GT$$GT$$GT$17h9d3a03f4527f91ecE)@IMGREL
	.long	56
	.long	0
	.long	1
$stateUnwindMap$_ZN4core3ptr141drop_in_place$LT$core..task..poll..Poll$LT$core..result..Result$LT$$LP$$RP$$C$alloc..boxed..Box$LT$dyn$u20$core..error..Error$GT$$GT$$GT$$GT$17h9d3a03f4527f91ecE:
	.long	-1
	.long	"?dtor$5@?0?_ZN4core3ptr141drop_in_place$LT$core..task..poll..Poll$LT$core..result..Result$LT$$LP$$RP$$C$alloc..boxed..Box$LT$dyn$u20$core..error..Error$GT$$GT$$GT$$GT$17h9d3a03f4527f91ecE@4HA"@IMGREL
$ip2state$_ZN4core3ptr141drop_in_place$LT$core..task..poll..Poll$LT$core..result..Result$LT$$LP$$RP$$C$alloc..boxed..Box$LT$dyn$u20$core..error..Error$GT$$GT$$GT$$GT$17h9d3a03f4527f91ecE:
	.long	.Lfunc_begin26@IMGREL
	.long	-1
	.long	.Ltmp106@IMGREL+1
	.long	0
	.long	.Ltmp107@IMGREL+1
	.long	-1
	.section	.text,"xr",one_only,_ZN4core3ptr141drop_in_place$LT$core..task..poll..Poll$LT$core..result..Result$LT$$LP$$RP$$C$alloc..boxed..Box$LT$dyn$u20$core..error..Error$GT$$GT$$GT$$GT$17h9d3a03f4527f91ecE

	.def	_ZN4core3ptr144drop_in_place$LT$std..collections..hash..map..HashMap$LT$i64$C$tokio..sync..mpsc..bounded..Sender$LT$reach_server..enums..S2CCommand$GT$$GT$$GT$17h27a2bd911a0478cdE;
	.scl	3;
	.type	32;
	.endef
	.section	.text,"xr",one_only,_ZN4core3ptr144drop_in_place$LT$std..collections..hash..map..HashMap$LT$i64$C$tokio..sync..mpsc..bounded..Sender$LT$reach_server..enums..S2CCommand$GT$$GT$$GT$17h27a2bd911a0478cdE
	.p2align	4, 0x90
_ZN4core3ptr144drop_in_place$LT$std..collections..hash..map..HashMap$LT$i64$C$tokio..sync..mpsc..bounded..Sender$LT$reach_server..enums..S2CCommand$GT$$GT$$GT$17h27a2bd911a0478cdE:
.seh_proc _ZN4core3ptr144drop_in_place$LT$std..collections..hash..map..HashMap$LT$i64$C$tokio..sync..mpsc..bounded..Sender$LT$reach_server..enums..S2CCommand$GT$$GT$$GT$17h27a2bd911a0478cdE
	pushq	%r15
	.seh_pushreg %r15
	pushq	%r14
	.seh_pushreg %r14
	pushq	%rsi
	.seh_pushreg %rsi
	pushq	%rdi
	.seh_pushreg %rdi
	pushq	%rbp
	.seh_pushreg %rbp
	pushq	%rbx
	.seh_pushreg %rbx
	subq	$40, %rsp
	.seh_stackalloc 40
	.seh_endprologue
	movq	8(%rcx), %rsi
	testq	%rsi, %rsi
	je	.LBB62_9
	movq	24(%rcx), %rbx
	testq	%rbx, %rbx
	je	.LBB62_2
	movq	(%rcx), %rdi
	movdqa	(%rdi), %xmm0
	pmovmskb	%xmm0, %eax
	notl	%eax
	leaq	16(%rdi), %r14
	movq	%rdi, %r15
	jmp	.LBB62_4
	.p2align	4, 0x90
.LBB62_7:
	rep		bsfl	%eax, %ecx
	shlq	$4, %rcx
	movq	%r15, %rdx
	subq	%rcx, %rdx
	leal	-1(%rax), %ebp
	andl	%eax, %ebp
	movq	-8(%rdx), %rcx
	callq	_ZN4core3ptr94drop_in_place$LT$tokio..sync..mpsc..bounded..Sender$LT$reach_server..enums..S2CCommand$GT$$GT$17h7e43226cbf6a5788E
	movl	%ebp, %eax
	decq	%rbx
	je	.LBB62_8
.LBB62_4:
	testw	%ax, %ax
	jne	.LBB62_7
	.p2align	4, 0x90
.LBB62_5:
	movdqa	(%r14), %xmm0
	pmovmskb	%xmm0, %eax
	addq	$-256, %r15
	addq	$16, %r14
	cmpw	$-1, %ax
	je	.LBB62_5
	notl	%eax
	jmp	.LBB62_7
.LBB62_2:
	movq	(%rcx), %rdi
.LBB62_8:
	movq	%rsi, %rax
	shlq	$4, %rax
	addq	%rax, %rsi
	addq	$33, %rsi
	je	.LBB62_9
	subq	%rax, %rdi
	addq	$-16, %rdi
	movl	$16, %r8d
	movq	%rdi, %rcx
	movq	%rsi, %rdx
	addq	$40, %rsp
	popq	%rbx
	popq	%rbp
	popq	%rdi
	popq	%rsi
	popq	%r14
	popq	%r15
	jmp	__rust_dealloc
.LBB62_9:
	nop
	addq	$40, %rsp
	popq	%rbx
	popq	%rbp
	popq	%rdi
	popq	%rsi
	popq	%r14
	popq	%r15
	retq
	.seh_endproc

	.def	_ZN4core3ptr145drop_in_place$LT$alloc..sync..ArcInner$LT$tokio..sync..mutex..Mutex$LT$core..option..Option$LT$tokio..net..tcp..stream..TcpStream$GT$$GT$$GT$$GT$17h270a72b249f696d1E;
	.scl	3;
	.type	32;
	.endef
	.section	.text,"xr",one_only,_ZN4core3ptr145drop_in_place$LT$alloc..sync..ArcInner$LT$tokio..sync..mutex..Mutex$LT$core..option..Option$LT$tokio..net..tcp..stream..TcpStream$GT$$GT$$GT$$GT$17h270a72b249f696d1E
	.p2align	4, 0x90
_ZN4core3ptr145drop_in_place$LT$alloc..sync..ArcInner$LT$tokio..sync..mutex..Mutex$LT$core..option..Option$LT$tokio..net..tcp..stream..TcpStream$GT$$GT$$GT$$GT$17h270a72b249f696d1E:
	cmpl	$2, 56(%rcx)
	jne	.LBB63_2
	retq
.LBB63_2:
	addq	$56, %rcx
	jmp	_ZN4core3ptr55drop_in_place$LT$tokio..net..tcp..stream..TcpStream$GT$17hacadbfd7a24324b6E

	.def	_ZN4core3ptr146drop_in_place$LT$tokio..sync..mutex..Mutex$LT$reach_server..client..Client$GT$..lock..$u7b$$u7b$closure$u7d$$u7d$..$u7b$$u7b$closure$u7d$$u7d$$GT$17h281837e121842133E;
	.scl	3;
	.type	32;
	.endef
	.section	.text,"xr",one_only,_ZN4core3ptr146drop_in_place$LT$tokio..sync..mutex..Mutex$LT$reach_server..client..Client$GT$..lock..$u7b$$u7b$closure$u7d$$u7d$..$u7b$$u7b$closure$u7d$$u7d$$GT$17h281837e121842133E
	.p2align	4, 0x90
_ZN4core3ptr146drop_in_place$LT$tokio..sync..mutex..Mutex$LT$reach_server..client..Client$GT$..lock..$u7b$$u7b$closure$u7d$$u7d$..$u7b$$u7b$closure$u7d$$u7d$$GT$17h281837e121842133E:
.Lfunc_begin27:
.seh_proc _ZN4core3ptr146drop_in_place$LT$tokio..sync..mutex..Mutex$LT$reach_server..client..Client$GT$..lock..$u7b$$u7b$closure$u7d$$u7d$..$u7b$$u7b$closure$u7d$$u7d$$GT$17h281837e121842133E
	.seh_handler __CxxFrameHandler3, @unwind, @except
	pushq	%rbp
	.seh_pushreg %rbp
	subq	$48, %rsp
	.seh_stackalloc 48
	leaq	48(%rsp), %rbp
	.seh_setframe %rbp, 48
	.seh_endprologue
	movq	$-2, -8(%rbp)
	cmpb	$3, 88(%rcx)
	jne	.LBB64_4
	cmpb	$4, 24(%rcx)
	jne	.LBB64_4
	movq	%rcx, -16(%rbp)
	addq	$32, %rcx
.Ltmp108:
	callq	_ZN79_$LT$tokio..sync..batch_semaphore..Acquire$u20$as$u20$core..ops..drop..Drop$GT$4drop17h3e677387310bd09bE
.Ltmp109:
	movq	-16(%rbp), %rcx
	movq	40(%rcx), %rax
	testq	%rax, %rax
	je	.LBB64_4
	movq	48(%rcx), %rcx
	addq	$48, %rsp
	popq	%rbp
	rex64 jmpq	*24(%rax)
.LBB64_4:
	nop
	addq	$48, %rsp
	popq	%rbp
	retq
	.seh_handlerdata
	.long	($cppxdata$_ZN4core3ptr146drop_in_place$LT$tokio..sync..mutex..Mutex$LT$reach_server..client..Client$GT$..lock..$u7b$$u7b$closure$u7d$$u7d$..$u7b$$u7b$closure$u7d$$u7d$$GT$17h281837e121842133E)@IMGREL
	.section	.text,"xr",one_only,_ZN4core3ptr146drop_in_place$LT$tokio..sync..mutex..Mutex$LT$reach_server..client..Client$GT$..lock..$u7b$$u7b$closure$u7d$$u7d$..$u7b$$u7b$closure$u7d$$u7d$$GT$17h281837e121842133E
	.seh_endproc
	.def	"?dtor$5@?0?_ZN4core3ptr146drop_in_place$LT$tokio..sync..mutex..Mutex$LT$reach_server..client..Client$GT$..lock..$u7b$$u7b$closure$u7d$$u7d$..$u7b$$u7b$closure$u7d$$u7d$$GT$17h281837e121842133E@4HA";
	.scl	3;
	.type	32;
	.endef
	.p2align	4, 0x90
"?dtor$5@?0?_ZN4core3ptr146drop_in_place$LT$tokio..sync..mutex..Mutex$LT$reach_server..client..Client$GT$..lock..$u7b$$u7b$closure$u7d$$u7d$..$u7b$$u7b$closure$u7d$$u7d$$GT$17h281837e121842133E@4HA":
.seh_proc "?dtor$5@?0?_ZN4core3ptr146drop_in_place$LT$tokio..sync..mutex..Mutex$LT$reach_server..client..Client$GT$..lock..$u7b$$u7b$closure$u7d$$u7d$..$u7b$$u7b$closure$u7d$$u7d$$GT$17h281837e121842133E@4HA"
.LBB64_5:
	movq	%rdx, 16(%rsp)
	pushq	%rbp
	.seh_pushreg %rbp
	subq	$32, %rsp
	.seh_stackalloc 32
	leaq	48(%rdx), %rbp
	.seh_endprologue
	movq	-16(%rbp), %rax
	movq	40(%rax), %rcx
	movq	48(%rax), %rdx
	callq	_ZN4core3ptr108drop_in_place$LT$tokio..util..cacheline..CachePadded$LT$tokio..sync..task..atomic_waker..AtomicWaker$GT$$GT$17h55872739accc4d3bE
	nop
	addq	$32, %rsp
	popq	%rbp
	retq
.Lfunc_end27:
	.seh_handlerdata
	.section	.text,"xr",one_only,_ZN4core3ptr146drop_in_place$LT$tokio..sync..mutex..Mutex$LT$reach_server..client..Client$GT$..lock..$u7b$$u7b$closure$u7d$$u7d$..$u7b$$u7b$closure$u7d$$u7d$$GT$17h281837e121842133E
	.seh_endproc
	.section	.xdata,"dr",associative,_ZN4core3ptr146drop_in_place$LT$tokio..sync..mutex..Mutex$LT$reach_server..client..Client$GT$..lock..$u7b$$u7b$closure$u7d$$u7d$..$u7b$$u7b$closure$u7d$$u7d$$GT$17h281837e121842133E
	.p2align	2, 0x0
$cppxdata$_ZN4core3ptr146drop_in_place$LT$tokio..sync..mutex..Mutex$LT$reach_server..client..Client$GT$..lock..$u7b$$u7b$closure$u7d$$u7d$..$u7b$$u7b$closure$u7d$$u7d$$GT$17h281837e121842133E:
	.long	429065506
	.long	1
	.long	($stateUnwindMap$_ZN4core3ptr146drop_in_place$LT$tokio..sync..mutex..Mutex$LT$reach_server..client..Client$GT$..lock..$u7b$$u7b$closure$u7d$$u7d$..$u7b$$u7b$closure$u7d$$u7d$$GT$17h281837e121842133E)@IMGREL
	.long	0
	.long	0
	.long	3
	.long	($ip2state$_ZN4core3ptr146drop_in_place$LT$tokio..sync..mutex..Mutex$LT$reach_server..client..Client$GT$..lock..$u7b$$u7b$closure$u7d$$u7d$..$u7b$$u7b$closure$u7d$$u7d$$GT$17h281837e121842133E)@IMGREL
	.long	40
	.long	0
	.long	1
$stateUnwindMap$_ZN4core3ptr146drop_in_place$LT$tokio..sync..mutex..Mutex$LT$reach_server..client..Client$GT$..lock..$u7b$$u7b$closure$u7d$$u7d$..$u7b$$u7b$closure$u7d$$u7d$$GT$17h281837e121842133E:
	.long	-1
	.long	"?dtor$5@?0?_ZN4core3ptr146drop_in_place$LT$tokio..sync..mutex..Mutex$LT$reach_server..client..Client$GT$..lock..$u7b$$u7b$closure$u7d$$u7d$..$u7b$$u7b$closure$u7d$$u7d$$GT$17h281837e121842133E@4HA"@IMGREL
$ip2state$_ZN4core3ptr146drop_in_place$LT$tokio..sync..mutex..Mutex$LT$reach_server..client..Client$GT$..lock..$u7b$$u7b$closure$u7d$$u7d$..$u7b$$u7b$closure$u7d$$u7d$$GT$17h281837e121842133E:
	.long	.Lfunc_begin27@IMGREL
	.long	-1
	.long	.Ltmp108@IMGREL+1
	.long	0
	.long	.Ltmp109@IMGREL+1
	.long	-1
	.section	.text,"xr",one_only,_ZN4core3ptr146drop_in_place$LT$tokio..sync..mutex..Mutex$LT$reach_server..client..Client$GT$..lock..$u7b$$u7b$closure$u7d$$u7d$..$u7b$$u7b$closure$u7d$$u7d$$GT$17h281837e121842133E

	.def	_ZN4core3ptr147drop_in_place$LT$core..cell..RefMut$LT$core..option..Option$LT$alloc..boxed..Box$LT$tokio..runtime..scheduler..current_thread..Core$GT$$GT$$GT$$GT$17h54446848f85f436cE;
	.scl	3;
	.type	32;
	.endef
	.section	.text,"xr",one_only,_ZN4core3ptr147drop_in_place$LT$core..cell..RefMut$LT$core..option..Option$LT$alloc..boxed..Box$LT$tokio..runtime..scheduler..current_thread..Core$GT$$GT$$GT$$GT$17h54446848f85f436cE
	.p2align	4, 0x90
_ZN4core3ptr147drop_in_place$LT$core..cell..RefMut$LT$core..option..Option$LT$alloc..boxed..Box$LT$tokio..runtime..scheduler..current_thread..Core$GT$$GT$$GT$$GT$17h54446848f85f436cE:
	incq	(%rcx)
	retq

	.def	_ZN4core3ptr150drop_in_place$LT$core..result..Result$LT$$LP$mio..net..tcp..stream..TcpStream$C$core..net..socket_addr..SocketAddr$RP$$C$std..io..error..Error$GT$$GT$17h222dc6451eaff448E;
	.scl	3;
	.type	32;
	.endef
	.section	.text,"xr",one_only,_ZN4core3ptr150drop_in_place$LT$core..result..Result$LT$$LP$mio..net..tcp..stream..TcpStream$C$core..net..socket_addr..SocketAddr$RP$$C$std..io..error..Error$GT$$GT$17h222dc6451eaff448E
	.p2align	4, 0x90
_ZN4core3ptr150drop_in_place$LT$core..result..Result$LT$$LP$mio..net..tcp..stream..TcpStream$C$core..net..socket_addr..SocketAddr$RP$$C$std..io..error..Error$GT$$GT$17h222dc6451eaff448E:
.Lfunc_begin28:
.seh_proc _ZN4core3ptr150drop_in_place$LT$core..result..Result$LT$$LP$mio..net..tcp..stream..TcpStream$C$core..net..socket_addr..SocketAddr$RP$$C$std..io..error..Error$GT$$GT$17h222dc6451eaff448E
	.seh_handler __CxxFrameHandler3, @unwind, @except
	pushq	%rbp
	.seh_pushreg %rbp
	subq	$64, %rsp
	.seh_stackalloc 64
	leaq	64(%rsp), %rbp
	.seh_setframe %rbp, 64
	.seh_endprologue
	movq	$-2, -8(%rbp)
	cmpw	$2, 16(%rcx)
	jne	.LBB66_1
	movq	(%rcx), %rax
	movl	%eax, %ecx
	andl	$3, %ecx
	leaq	-2(%rcx), %rdx
	cmpq	$2, %rdx
	jb	.LBB66_9
	testq	%rcx, %rcx
	jne	.LBB66_5
.LBB66_9:
	addq	$64, %rsp
	popq	%rbp
	retq
.LBB66_1:
	movq	(%rcx), %rax
	movq	%rax, -16(%rbp)
	movq	8(%rcx), %rcx
.Ltmp110:
	callq	_ZN4core3ptr53drop_in_place$LT$mio..sys..windows..IoSourceState$GT$17h804fb970b764d082E
.Ltmp111:
	movq	-16(%rbp), %rcx
	addq	$64, %rsp
	popq	%rbp
	rex64 jmpq	*__imp_closesocket(%rip)
.LBB66_5:
	leaq	-1(%rax), %rcx
	movq	%rcx, -16(%rbp)
	movq	-1(%rax), %rcx
	movq	7(%rax), %rax
.Ltmp112:
	movq	%rcx, -24(%rbp)
	movq	%rax, -32(%rbp)
	callq	*(%rax)
.Ltmp113:
	movq	-32(%rbp), %rax
	movq	8(%rax), %rdx
	testq	%rdx, %rdx
	je	.LBB66_8
	movq	16(%rax), %r8
	movq	-24(%rbp), %rcx
	callq	__rust_dealloc
.LBB66_8:
	movl	$24, %edx
	movl	$8, %r8d
	movq	-16(%rbp), %rcx
	addq	$64, %rsp
	popq	%rbp
	jmp	__rust_dealloc
	.seh_handlerdata
	.long	($cppxdata$_ZN4core3ptr150drop_in_place$LT$core..result..Result$LT$$LP$mio..net..tcp..stream..TcpStream$C$core..net..socket_addr..SocketAddr$RP$$C$std..io..error..Error$GT$$GT$17h222dc6451eaff448E)@IMGREL
	.section	.text,"xr",one_only,_ZN4core3ptr150drop_in_place$LT$core..result..Result$LT$$LP$mio..net..tcp..stream..TcpStream$C$core..net..socket_addr..SocketAddr$RP$$C$std..io..error..Error$GT$$GT$17h222dc6451eaff448E
	.seh_endproc
	.def	"?dtor$10@?0?_ZN4core3ptr150drop_in_place$LT$core..result..Result$LT$$LP$mio..net..tcp..stream..TcpStream$C$core..net..socket_addr..SocketAddr$RP$$C$std..io..error..Error$GT$$GT$17h222dc6451eaff448E@4HA";
	.scl	3;
	.type	32;
	.endef
	.p2align	4, 0x90
"?dtor$10@?0?_ZN4core3ptr150drop_in_place$LT$core..result..Result$LT$$LP$mio..net..tcp..stream..TcpStream$C$core..net..socket_addr..SocketAddr$RP$$C$std..io..error..Error$GT$$GT$17h222dc6451eaff448E@4HA":
.seh_proc "?dtor$10@?0?_ZN4core3ptr150drop_in_place$LT$core..result..Result$LT$$LP$mio..net..tcp..stream..TcpStream$C$core..net..socket_addr..SocketAddr$RP$$C$std..io..error..Error$GT$$GT$17h222dc6451eaff448E@4HA"
.LBB66_10:
	movq	%rdx, 16(%rsp)
	pushq	%rbp
	.seh_pushreg %rbp
	subq	$32, %rsp
	.seh_stackalloc 32
	leaq	64(%rdx), %rbp
	.seh_endprologue
	movq	-16(%rbp), %rcx
	callq	_ZN4core3ptr45drop_in_place$LT$std..net..tcp..TcpStream$GT$17h7d167f5dcb126bfaE
	nop
	addq	$32, %rsp
	popq	%rbp
	retq
	.seh_handlerdata
	.section	.text,"xr",one_only,_ZN4core3ptr150drop_in_place$LT$core..result..Result$LT$$LP$mio..net..tcp..stream..TcpStream$C$core..net..socket_addr..SocketAddr$RP$$C$std..io..error..Error$GT$$GT$17h222dc6451eaff448E
	.seh_endproc
	.def	"?dtor$11@?0?_ZN4core3ptr150drop_in_place$LT$core..result..Result$LT$$LP$mio..net..tcp..stream..TcpStream$C$core..net..socket_addr..SocketAddr$RP$$C$std..io..error..Error$GT$$GT$17h222dc6451eaff448E@4HA";
	.scl	3;
	.type	32;
	.endef
	.p2align	4, 0x90
"?dtor$11@?0?_ZN4core3ptr150drop_in_place$LT$core..result..Result$LT$$LP$mio..net..tcp..stream..TcpStream$C$core..net..socket_addr..SocketAddr$RP$$C$std..io..error..Error$GT$$GT$17h222dc6451eaff448E@4HA":
.seh_proc "?dtor$11@?0?_ZN4core3ptr150drop_in_place$LT$core..result..Result$LT$$LP$mio..net..tcp..stream..TcpStream$C$core..net..socket_addr..SocketAddr$RP$$C$std..io..error..Error$GT$$GT$17h222dc6451eaff448E@4HA"
.LBB66_11:
	movq	%rdx, 16(%rsp)
	pushq	%rbp
	.seh_pushreg %rbp
	subq	$32, %rsp
	.seh_stackalloc 32
	leaq	64(%rdx), %rbp
	.seh_endprologue
	movq	-24(%rbp), %rcx
	movq	-32(%rbp), %rdx
	callq	_ZN72_$LT$alloc..boxed..Box$LT$T$C$A$GT$$u20$as$u20$core..ops..drop..Drop$GT$4drop17h4e15c87e5099ad14E
	movq	-16(%rbp), %rcx
	callq	_ZN72_$LT$alloc..boxed..Box$LT$T$C$A$GT$$u20$as$u20$core..ops..drop..Drop$GT$4drop17hd6e36901d573d098E
	nop
	addq	$32, %rsp
	popq	%rbp
	retq
.Lfunc_end28:
	.seh_handlerdata
	.section	.text,"xr",one_only,_ZN4core3ptr150drop_in_place$LT$core..result..Result$LT$$LP$mio..net..tcp..stream..TcpStream$C$core..net..socket_addr..SocketAddr$RP$$C$std..io..error..Error$GT$$GT$17h222dc6451eaff448E
	.seh_endproc
	.section	.xdata,"dr",associative,_ZN4core3ptr150drop_in_place$LT$core..result..Result$LT$$LP$mio..net..tcp..stream..TcpStream$C$core..net..socket_addr..SocketAddr$RP$$C$std..io..error..Error$GT$$GT$17h222dc6451eaff448E
	.p2align	2, 0x0
$cppxdata$_ZN4core3ptr150drop_in_place$LT$core..result..Result$LT$$LP$mio..net..tcp..stream..TcpStream$C$core..net..socket_addr..SocketAddr$RP$$C$std..io..error..Error$GT$$GT$17h222dc6451eaff448E:
	.long	429065506
	.long	2
	.long	($stateUnwindMap$_ZN4core3ptr150drop_in_place$LT$core..result..Result$LT$$LP$mio..net..tcp..stream..TcpStream$C$core..net..socket_addr..SocketAddr$RP$$C$std..io..error..Error$GT$$GT$17h222dc6451eaff448E)@IMGREL
	.long	0
	.long	0
	.long	5
	.long	($ip2state$_ZN4core3ptr150drop_in_place$LT$core..result..Result$LT$$LP$mio..net..tcp..stream..TcpStream$C$core..net..socket_addr..SocketAddr$RP$$C$std..io..error..Error$GT$$GT$17h222dc6451eaff448E)@IMGREL
	.long	56
	.long	0
	.long	1
$stateUnwindMap$_ZN4core3ptr150drop_in_place$LT$core..result..Result$LT$$LP$mio..net..tcp..stream..TcpStream$C$core..net..socket_addr..SocketAddr$RP$$C$std..io..error..Error$GT$$GT$17h222dc6451eaff448E:
	.long	-1
	.long	"?dtor$10@?0?_ZN4core3ptr150drop_in_place$LT$core..result..Result$LT$$LP$mio..net..tcp..stream..TcpStream$C$core..net..socket_addr..SocketAddr$RP$$C$std..io..error..Error$GT$$GT$17h222dc6451eaff448E@4HA"@IMGREL
	.long	-1
	.long	"?dtor$11@?0?_ZN4core3ptr150drop_in_place$LT$core..result..Result$LT$$LP$mio..net..tcp..stream..TcpStream$C$core..net..socket_addr..SocketAddr$RP$$C$std..io..error..Error$GT$$GT$17h222dc6451eaff448E@4HA"@IMGREL
$ip2state$_ZN4core3ptr150drop_in_place$LT$core..result..Result$LT$$LP$mio..net..tcp..stream..TcpStream$C$core..net..socket_addr..SocketAddr$RP$$C$std..io..error..Error$GT$$GT$17h222dc6451eaff448E:
	.long	.Lfunc_begin28@IMGREL
	.long	-1
	.long	.Ltmp110@IMGREL+1
	.long	0
	.long	.Ltmp111@IMGREL+1
	.long	-1
	.long	.Ltmp112@IMGREL+1
	.long	1
	.long	.Ltmp113@IMGREL+1
	.long	-1
	.section	.text,"xr",one_only,_ZN4core3ptr150drop_in_place$LT$core..result..Result$LT$$LP$mio..net..tcp..stream..TcpStream$C$core..net..socket_addr..SocketAddr$RP$$C$std..io..error..Error$GT$$GT$17h222dc6451eaff448E

	.def	_ZN4core3ptr151drop_in_place$LT$alloc..sync..Arc$LT$tokio..sync..mutex..Mutex$LT$tokio..sync..mpsc..bounded..Sender$LT$reach_server..enums..C2SCommand$GT$$GT$$GT$$GT$17h39ff146518406948E;
	.scl	3;
	.type	32;
	.endef
	.section	.text,"xr",one_only,_ZN4core3ptr151drop_in_place$LT$alloc..sync..Arc$LT$tokio..sync..mutex..Mutex$LT$tokio..sync..mpsc..bounded..Sender$LT$reach_server..enums..C2SCommand$GT$$GT$$GT$$GT$17h39ff146518406948E
	.p2align	4, 0x90
_ZN4core3ptr151drop_in_place$LT$alloc..sync..Arc$LT$tokio..sync..mutex..Mutex$LT$tokio..sync..mpsc..bounded..Sender$LT$reach_server..enums..C2SCommand$GT$$GT$$GT$$GT$17h39ff146518406948E:
	lock		decq	(%rcx)
	jne	.LBB67_1
	#MEMBARRIER
	jmp	_ZN5alloc4sync12Arc$LT$T$GT$9drop_slow17heafcee56a22a39b3E
.LBB67_1:
	retq

	.def	_ZN4core3ptr151drop_in_place$LT$core..result..Result$LT$core..task..poll..Poll$LT$tokio..runtime..coop..RestoreOnPending$GT$$C$std..thread..local..AccessError$GT$$GT$17hb783377a4a54d944E;
	.scl	3;
	.type	32;
	.endef
	.section	.text,"xr",one_only,_ZN4core3ptr151drop_in_place$LT$core..result..Result$LT$core..task..poll..Poll$LT$tokio..runtime..coop..RestoreOnPending$GT$$C$std..thread..local..AccessError$GT$$GT$17hb783377a4a54d944E
	.p2align	4, 0x90
_ZN4core3ptr151drop_in_place$LT$core..result..Result$LT$core..task..poll..Poll$LT$tokio..runtime..coop..RestoreOnPending$GT$$C$std..thread..local..AccessError$GT$$GT$17hb783377a4a54d944E:
	cmpb	$0, (%rcx)
	je	.LBB68_2
	retq
.LBB68_2:
	incq	%rcx
	jmp	_ZN80_$LT$tokio..runtime..coop..RestoreOnPending$u20$as$u20$core..ops..drop..Drop$GT$4drop17hb6d67981769e3901E

	.def	_ZN4core3ptr152drop_in_place$LT$core..result..Result$LT$$LP$tokio..net..tcp..stream..TcpStream$C$core..net..socket_addr..SocketAddr$RP$$C$std..io..error..Error$GT$$GT$17h108b25615cc8fa9bE;
	.scl	3;
	.type	32;
	.endef
	.section	.text,"xr",one_only,_ZN4core3ptr152drop_in_place$LT$core..result..Result$LT$$LP$tokio..net..tcp..stream..TcpStream$C$core..net..socket_addr..SocketAddr$RP$$C$std..io..error..Error$GT$$GT$17h108b25615cc8fa9bE
	.p2align	4, 0x90
_ZN4core3ptr152drop_in_place$LT$core..result..Result$LT$$LP$tokio..net..tcp..stream..TcpStream$C$core..net..socket_addr..SocketAddr$RP$$C$std..io..error..Error$GT$$GT$17h108b25615cc8fa9bE:
.Lfunc_begin29:
.seh_proc _ZN4core3ptr152drop_in_place$LT$core..result..Result$LT$$LP$tokio..net..tcp..stream..TcpStream$C$core..net..socket_addr..SocketAddr$RP$$C$std..io..error..Error$GT$$GT$17h108b25615cc8fa9bE
	.seh_handler __CxxFrameHandler3, @unwind, @except
	pushq	%rbp
	.seh_pushreg %rbp
	subq	$64, %rsp
	.seh_stackalloc 64
	leaq	64(%rsp), %rbp
	.seh_setframe %rbp, 64
	.seh_endprologue
	movq	$-2, -8(%rbp)
	cmpl	$2, (%rcx)
	jne	.LBB69_8
	movq	8(%rcx), %rax
	movl	%eax, %ecx
	andl	$3, %ecx
	leaq	-2(%rcx), %rdx
	cmpq	$2, %rdx
	jb	.LBB69_7
	testq	%rcx, %rcx
	jne	.LBB69_3
.LBB69_7:
	addq	$64, %rsp
	popq	%rbp
	retq
.LBB69_8:
	addq	$64, %rsp
	popq	%rbp
	jmp	_ZN4core3ptr55drop_in_place$LT$tokio..net..tcp..stream..TcpStream$GT$17hacadbfd7a24324b6E
.LBB69_3:
	leaq	-1(%rax), %rcx
	movq	%rcx, -32(%rbp)
	movq	-1(%rax), %rcx
	movq	7(%rax), %rax
.Ltmp114:
	movq	%rcx, -16(%rbp)
	movq	%rax, -24(%rbp)
	callq	*(%rax)
.Ltmp115:
	movq	-24(%rbp), %rax
	movq	8(%rax), %rdx
	testq	%rdx, %rdx
	je	.LBB69_6
	movq	16(%rax), %r8
	movq	-16(%rbp), %rcx
	callq	__rust_dealloc
.LBB69_6:
	movl	$24, %edx
	movl	$8, %r8d
	movq	-32(%rbp), %rcx
	addq	$64, %rsp
	popq	%rbp
	jmp	__rust_dealloc
	.seh_handlerdata
	.long	($cppxdata$_ZN4core3ptr152drop_in_place$LT$core..result..Result$LT$$LP$tokio..net..tcp..stream..TcpStream$C$core..net..socket_addr..SocketAddr$RP$$C$std..io..error..Error$GT$$GT$17h108b25615cc8fa9bE)@IMGREL
	.section	.text,"xr",one_only,_ZN4core3ptr152drop_in_place$LT$core..result..Result$LT$$LP$tokio..net..tcp..stream..TcpStream$C$core..net..socket_addr..SocketAddr$RP$$C$std..io..error..Error$GT$$GT$17h108b25615cc8fa9bE
	.seh_endproc
	.def	"?dtor$9@?0?_ZN4core3ptr152drop_in_place$LT$core..result..Result$LT$$LP$tokio..net..tcp..stream..TcpStream$C$core..net..socket_addr..SocketAddr$RP$$C$std..io..error..Error$GT$$GT$17h108b25615cc8fa9bE@4HA";
	.scl	3;
	.type	32;
	.endef
	.p2align	4, 0x90
"?dtor$9@?0?_ZN4core3ptr152drop_in_place$LT$core..result..Result$LT$$LP$tokio..net..tcp..stream..TcpStream$C$core..net..socket_addr..SocketAddr$RP$$C$std..io..error..Error$GT$$GT$17h108b25615cc8fa9bE@4HA":
.seh_proc "?dtor$9@?0?_ZN4core3ptr152drop_in_place$LT$core..result..Result$LT$$LP$tokio..net..tcp..stream..TcpStream$C$core..net..socket_addr..SocketAddr$RP$$C$std..io..error..Error$GT$$GT$17h108b25615cc8fa9bE@4HA"
.LBB69_9:
	movq	%rdx, 16(%rsp)
	pushq	%rbp
	.seh_pushreg %rbp
	subq	$32, %rsp
	.seh_stackalloc 32
	leaq	64(%rdx), %rbp
	.seh_endprologue
	movq	-16(%rbp), %rcx
	movq	-24(%rbp), %rdx
	callq	_ZN72_$LT$alloc..boxed..Box$LT$T$C$A$GT$$u20$as$u20$core..ops..drop..Drop$GT$4drop17h4e15c87e5099ad14E
	movq	-32(%rbp), %rcx
	callq	_ZN72_$LT$alloc..boxed..Box$LT$T$C$A$GT$$u20$as$u20$core..ops..drop..Drop$GT$4drop17hd6e36901d573d098E
	nop
	addq	$32, %rsp
	popq	%rbp
	retq
.Lfunc_end29:
	.seh_handlerdata
	.section	.text,"xr",one_only,_ZN4core3ptr152drop_in_place$LT$core..result..Result$LT$$LP$tokio..net..tcp..stream..TcpStream$C$core..net..socket_addr..SocketAddr$RP$$C$std..io..error..Error$GT$$GT$17h108b25615cc8fa9bE
	.seh_endproc
	.section	.xdata,"dr",associative,_ZN4core3ptr152drop_in_place$LT$core..result..Result$LT$$LP$tokio..net..tcp..stream..TcpStream$C$core..net..socket_addr..SocketAddr$RP$$C$std..io..error..Error$GT$$GT$17h108b25615cc8fa9bE
	.p2align	2, 0x0
$cppxdata$_ZN4core3ptr152drop_in_place$LT$core..result..Result$LT$$LP$tokio..net..tcp..stream..TcpStream$C$core..net..socket_addr..SocketAddr$RP$$C$std..io..error..Error$GT$$GT$17h108b25615cc8fa9bE:
	.long	429065506
	.long	1
	.long	($stateUnwindMap$_ZN4core3ptr152drop_in_place$LT$core..result..Result$LT$$LP$tokio..net..tcp..stream..TcpStream$C$core..net..socket_addr..SocketAddr$RP$$C$std..io..error..Error$GT$$GT$17h108b25615cc8fa9bE)@IMGREL
	.long	0
	.long	0
	.long	3
	.long	($ip2state$_ZN4core3ptr152drop_in_place$LT$core..result..Result$LT$$LP$tokio..net..tcp..stream..TcpStream$C$core..net..socket_addr..SocketAddr$RP$$C$std..io..error..Error$GT$$GT$17h108b25615cc8fa9bE)@IMGREL
	.long	56
	.long	0
	.long	1
$stateUnwindMap$_ZN4core3ptr152drop_in_place$LT$core..result..Result$LT$$LP$tokio..net..tcp..stream..TcpStream$C$core..net..socket_addr..SocketAddr$RP$$C$std..io..error..Error$GT$$GT$17h108b25615cc8fa9bE:
	.long	-1
	.long	"?dtor$9@?0?_ZN4core3ptr152drop_in_place$LT$core..result..Result$LT$$LP$tokio..net..tcp..stream..TcpStream$C$core..net..socket_addr..SocketAddr$RP$$C$std..io..error..Error$GT$$GT$17h108b25615cc8fa9bE@4HA"@IMGREL
$ip2state$_ZN4core3ptr152drop_in_place$LT$core..result..Result$LT$$LP$tokio..net..tcp..stream..TcpStream$C$core..net..socket_addr..SocketAddr$RP$$C$std..io..error..Error$GT$$GT$17h108b25615cc8fa9bE:
	.long	.Lfunc_begin29@IMGREL
	.long	-1
	.long	.Ltmp114@IMGREL+1
	.long	0
	.long	.Ltmp115@IMGREL+1
	.long	-1
	.section	.text,"xr",one_only,_ZN4core3ptr152drop_in_place$LT$core..result..Result$LT$$LP$tokio..net..tcp..stream..TcpStream$C$core..net..socket_addr..SocketAddr$RP$$C$std..io..error..Error$GT$$GT$17h108b25615cc8fa9bE

	.def	_ZN4core3ptr153drop_in_place$LT$alloc..sync..Arc$LT$tokio..sync..mpsc..chan..Chan$LT$reach_server..enums..C2SCommand$C$tokio..sync..mpsc..bounded..Semaphore$GT$$GT$$GT$17h3f2b0c95c7e83844E;
	.scl	3;
	.type	32;
	.endef
	.section	.text,"xr",one_only,_ZN4core3ptr153drop_in_place$LT$alloc..sync..Arc$LT$tokio..sync..mpsc..chan..Chan$LT$reach_server..enums..C2SCommand$C$tokio..sync..mpsc..bounded..Semaphore$GT$$GT$$GT$17h3f2b0c95c7e83844E
	.p2align	4, 0x90
_ZN4core3ptr153drop_in_place$LT$alloc..sync..Arc$LT$tokio..sync..mpsc..chan..Chan$LT$reach_server..enums..C2SCommand$C$tokio..sync..mpsc..bounded..Semaphore$GT$$GT$$GT$17h3f2b0c95c7e83844E:
	lock		decq	(%rcx)
	jne	.LBB70_1
	#MEMBARRIER
	jmp	_ZN5alloc4sync12Arc$LT$T$GT$9drop_slow17hd2c716d8a077b121E
.LBB70_1:
	retq

	.def	_ZN4core3ptr153drop_in_place$LT$alloc..sync..Arc$LT$tokio..sync..mpsc..chan..Chan$LT$reach_server..enums..S2CCommand$C$tokio..sync..mpsc..bounded..Semaphore$GT$$GT$$GT$17h73be54592c6c3975E;
	.scl	3;
	.type	32;
	.endef
	.section	.text,"xr",one_only,_ZN4core3ptr153drop_in_place$LT$alloc..sync..Arc$LT$tokio..sync..mpsc..chan..Chan$LT$reach_server..enums..S2CCommand$C$tokio..sync..mpsc..bounded..Semaphore$GT$$GT$$GT$17h73be54592c6c3975E
	.p2align	4, 0x90
_ZN4core3ptr153drop_in_place$LT$alloc..sync..Arc$LT$tokio..sync..mpsc..chan..Chan$LT$reach_server..enums..S2CCommand$C$tokio..sync..mpsc..bounded..Semaphore$GT$$GT$$GT$17h73be54592c6c3975E:
	lock		decq	(%rcx)
	jne	.LBB71_1
	#MEMBARRIER
	jmp	_ZN5alloc4sync12Arc$LT$T$GT$9drop_slow17hdf7ac893fcd36c10E
.LBB71_1:
	retq

	.def	_ZN4core3ptr153drop_in_place$LT$alloc..sync..Arc$LT$tokio..sync..mutex..Mutex$LT$tokio..sync..mpsc..bounded..Receiver$LT$reach_server..enums..C2SCommand$GT$$GT$$GT$$GT$17hd43fcb0220cdd617E;
	.scl	3;
	.type	32;
	.endef
	.section	.text,"xr",one_only,_ZN4core3ptr153drop_in_place$LT$alloc..sync..Arc$LT$tokio..sync..mutex..Mutex$LT$tokio..sync..mpsc..bounded..Receiver$LT$reach_server..enums..C2SCommand$GT$$GT$$GT$$GT$17hd43fcb0220cdd617E
	.p2align	4, 0x90
_ZN4core3ptr153drop_in_place$LT$alloc..sync..Arc$LT$tokio..sync..mutex..Mutex$LT$tokio..sync..mpsc..bounded..Receiver$LT$reach_server..enums..C2SCommand$GT$$GT$$GT$$GT$17hd43fcb0220cdd617E:
	lock		decq	(%rcx)
	jne	.LBB72_1
	#MEMBARRIER
	jmp	_ZN5alloc4sync12Arc$LT$T$GT$9drop_slow17h1439be88e92d2793E
.LBB72_1:
	retq

	.def	_ZN4core3ptr153drop_in_place$LT$alloc..sync..Arc$LT$tokio..sync..mutex..Mutex$LT$tokio..sync..mpsc..bounded..Receiver$LT$reach_server..enums..S2CCommand$GT$$GT$$GT$$GT$17he9127800abdc4db5E;
	.scl	3;
	.type	32;
	.endef
	.section	.text,"xr",one_only,_ZN4core3ptr153drop_in_place$LT$alloc..sync..Arc$LT$tokio..sync..mutex..Mutex$LT$tokio..sync..mpsc..bounded..Receiver$LT$reach_server..enums..S2CCommand$GT$$GT$$GT$$GT$17he9127800abdc4db5E
	.p2align	4, 0x90
_ZN4core3ptr153drop_in_place$LT$alloc..sync..Arc$LT$tokio..sync..mutex..Mutex$LT$tokio..sync..mpsc..bounded..Receiver$LT$reach_server..enums..S2CCommand$GT$$GT$$GT$$GT$17he9127800abdc4db5E:
	lock		decq	(%rcx)
	jne	.LBB73_1
	#MEMBARRIER
	jmp	_ZN5alloc4sync12Arc$LT$T$GT$9drop_slow17hd1e7122ab4ffc87aE
.LBB73_1:
	retq

	.def	_ZN4core3ptr154drop_in_place$LT$core..cell..RefCell$LT$core..option..Option$LT$alloc..boxed..Box$LT$tokio..runtime..scheduler..multi_thread..worker..Core$GT$$GT$$GT$$GT$17h3754b7e02032a539E;
	.scl	3;
	.type	32;
	.endef
	.section	.text,"xr",one_only,_ZN4core3ptr154drop_in_place$LT$core..cell..RefCell$LT$core..option..Option$LT$alloc..boxed..Box$LT$tokio..runtime..scheduler..multi_thread..worker..Core$GT$$GT$$GT$$GT$17h3754b7e02032a539E
	.p2align	4, 0x90
_ZN4core3ptr154drop_in_place$LT$core..cell..RefCell$LT$core..option..Option$LT$alloc..boxed..Box$LT$tokio..runtime..scheduler..multi_thread..worker..Core$GT$$GT$$GT$$GT$17h3754b7e02032a539E:
	cmpq	$0, 8(%rcx)
	je	.LBB74_1
	addq	$8, %rcx
	jmp	_ZN4core3ptr99drop_in_place$LT$alloc..boxed..Box$LT$tokio..runtime..scheduler..multi_thread..worker..Core$GT$$GT$17h6a9ce3676224f7c8E
.LBB74_1:
	retq

	.def	_ZN4core3ptr155drop_in_place$LT$tokio..runtime..task..core..Stage$LT$reach_server..serversend..send_data..$u7b$$u7b$closure$u7d$$u7d$..$u7b$$u7b$closure$u7d$$u7d$$GT$$GT$17he2782c07a9b637d0E;
	.scl	3;
	.type	32;
	.endef
	.section	.text,"xr",one_only,_ZN4core3ptr155drop_in_place$LT$tokio..runtime..task..core..Stage$LT$reach_server..serversend..send_data..$u7b$$u7b$closure$u7d$$u7d$..$u7b$$u7b$closure$u7d$$u7d$$GT$$GT$17he2782c07a9b637d0E
	.p2align	4, 0x90
_ZN4core3ptr155drop_in_place$LT$tokio..runtime..task..core..Stage$LT$reach_server..serversend..send_data..$u7b$$u7b$closure$u7d$$u7d$..$u7b$$u7b$closure$u7d$$u7d$$GT$$GT$17he2782c07a9b637d0E:
.Lfunc_begin30:
.seh_proc _ZN4core3ptr155drop_in_place$LT$tokio..runtime..task..core..Stage$LT$reach_server..serversend..send_data..$u7b$$u7b$closure$u7d$$u7d$..$u7b$$u7b$closure$u7d$$u7d$$GT$$GT$17he2782c07a9b637d0E
	.seh_handler __CxxFrameHandler3, @unwind, @except
	pushq	%rbp
	.seh_pushreg %rbp
	subq	$64, %rsp
	.seh_stackalloc 64
	leaq	64(%rsp), %rbp
	.seh_setframe %rbp, 64
	.seh_endprologue
	movq	$-2, -8(%rbp)
	movzbl	49(%rcx), %eax
	addb	$-5, %al
	movzbl	%al, %edx
	leaq	1(%rdx), %r8
	xorl	%eax, %eax
	cmpb	$2, %dl
	cmovbq	%r8, %rax
	testq	%rax, %rax
	je	.LBB75_3
	cmpl	$1, %eax
	jne	.LBB75_2
	cmpq	$0, (%rcx)
	je	.LBB75_2
	movq	8(%rcx), %rax
	testq	%rax, %rax
	je	.LBB75_2
	movq	16(%rcx), %rdx
.Ltmp116:
	movq	%rax, -24(%rbp)
	movq	%rax, %rcx
	movq	%rdx, -16(%rbp)
	callq	*(%rdx)
.Ltmp117:
	movq	-16(%rbp), %rax
	movq	8(%rax), %rdx
	testq	%rdx, %rdx
	movq	-24(%rbp), %rcx
	je	.LBB75_2
	movq	16(%rax), %r8
	addq	$64, %rsp
	popq	%rbp
	jmp	__rust_dealloc
.LBB75_2:
	nop
	addq	$64, %rsp
	popq	%rbp
	retq
.LBB75_3:
	addq	$64, %rsp
	popq	%rbp
	jmp	_ZN4core3ptr114drop_in_place$LT$reach_server..serversend..send_data..$u7b$$u7b$closure$u7d$$u7d$..$u7b$$u7b$closure$u7d$$u7d$$GT$17hc813ea9c9107012eE
	.seh_handlerdata
	.long	($cppxdata$_ZN4core3ptr155drop_in_place$LT$tokio..runtime..task..core..Stage$LT$reach_server..serversend..send_data..$u7b$$u7b$closure$u7d$$u7d$..$u7b$$u7b$closure$u7d$$u7d$$GT$$GT$17he2782c07a9b637d0E)@IMGREL
	.section	.text,"xr",one_only,_ZN4core3ptr155drop_in_place$LT$tokio..runtime..task..core..Stage$LT$reach_server..serversend..send_data..$u7b$$u7b$closure$u7d$$u7d$..$u7b$$u7b$closure$u7d$$u7d$$GT$$GT$17he2782c07a9b637d0E
	.seh_endproc
	.def	"?dtor$9@?0?_ZN4core3ptr155drop_in_place$LT$tokio..runtime..task..core..Stage$LT$reach_server..serversend..send_data..$u7b$$u7b$closure$u7d$$u7d$..$u7b$$u7b$closure$u7d$$u7d$$GT$$GT$17he2782c07a9b637d0E@4HA";
	.scl	3;
	.type	32;
	.endef
	.p2align	4, 0x90
"?dtor$9@?0?_ZN4core3ptr155drop_in_place$LT$tokio..runtime..task..core..Stage$LT$reach_server..serversend..send_data..$u7b$$u7b$closure$u7d$$u7d$..$u7b$$u7b$closure$u7d$$u7d$$GT$$GT$17he2782c07a9b637d0E@4HA":
.seh_proc "?dtor$9@?0?_ZN4core3ptr155drop_in_place$LT$tokio..runtime..task..core..Stage$LT$reach_server..serversend..send_data..$u7b$$u7b$closure$u7d$$u7d$..$u7b$$u7b$closure$u7d$$u7d$$GT$$GT$17he2782c07a9b637d0E@4HA"
.LBB75_9:
	movq	%rdx, 16(%rsp)
	pushq	%rbp
	.seh_pushreg %rbp
	subq	$32, %rsp
	.seh_stackalloc 32
	leaq	64(%rdx), %rbp
	.seh_endprologue
	movq	-24(%rbp), %rcx
	movq	-16(%rbp), %rdx
	callq	_ZN72_$LT$alloc..boxed..Box$LT$T$C$A$GT$$u20$as$u20$core..ops..drop..Drop$GT$4drop17h4e15c87e5099ad14E
	nop
	addq	$32, %rsp
	popq	%rbp
	retq
.Lfunc_end30:
	.seh_handlerdata
	.section	.text,"xr",one_only,_ZN4core3ptr155drop_in_place$LT$tokio..runtime..task..core..Stage$LT$reach_server..serversend..send_data..$u7b$$u7b$closure$u7d$$u7d$..$u7b$$u7b$closure$u7d$$u7d$$GT$$GT$17he2782c07a9b637d0E
	.seh_endproc
	.section	.xdata,"dr",associative,_ZN4core3ptr155drop_in_place$LT$tokio..runtime..task..core..Stage$LT$reach_server..serversend..send_data..$u7b$$u7b$closure$u7d$$u7d$..$u7b$$u7b$closure$u7d$$u7d$$GT$$GT$17he2782c07a9b637d0E
	.p2align	2, 0x0
$cppxdata$_ZN4core3ptr155drop_in_place$LT$tokio..runtime..task..core..Stage$LT$reach_server..serversend..send_data..$u7b$$u7b$closure$u7d$$u7d$..$u7b$$u7b$closure$u7d$$u7d$$GT$$GT$17he2782c07a9b637d0E:
	.long	429065506
	.long	1
	.long	($stateUnwindMap$_ZN4core3ptr155drop_in_place$LT$tokio..runtime..task..core..Stage$LT$reach_server..serversend..send_data..$u7b$$u7b$closure$u7d$$u7d$..$u7b$$u7b$closure$u7d$$u7d$$GT$$GT$17he2782c07a9b637d0E)@IMGREL
	.long	0
	.long	0
	.long	3
	.long	($ip2state$_ZN4core3ptr155drop_in_place$LT$tokio..runtime..task..core..Stage$LT$reach_server..serversend..send_data..$u7b$$u7b$closure$u7d$$u7d$..$u7b$$u7b$closure$u7d$$u7d$$GT$$GT$17he2782c07a9b637d0E)@IMGREL
	.long	56
	.long	0
	.long	1
$stateUnwindMap$_ZN4core3ptr155drop_in_place$LT$tokio..runtime..task..core..Stage$LT$reach_server..serversend..send_data..$u7b$$u7b$closure$u7d$$u7d$..$u7b$$u7b$closure$u7d$$u7d$$GT$$GT$17he2782c07a9b637d0E:
	.long	-1
	.long	"?dtor$9@?0?_ZN4core3ptr155drop_in_place$LT$tokio..runtime..task..core..Stage$LT$reach_server..serversend..send_data..$u7b$$u7b$closure$u7d$$u7d$..$u7b$$u7b$closure$u7d$$u7d$$GT$$GT$17he2782c07a9b637d0E@4HA"@IMGREL
$ip2state$_ZN4core3ptr155drop_in_place$LT$tokio..runtime..task..core..Stage$LT$reach_server..serversend..send_data..$u7b$$u7b$closure$u7d$$u7d$..$u7b$$u7b$closure$u7d$$u7d$$GT$$GT$17he2782c07a9b637d0E:
	.long	.Lfunc_begin30@IMGREL
	.long	-1
	.long	.Ltmp116@IMGREL+1
	.long	0
	.long	.Ltmp117@IMGREL+1
	.long	-1
	.section	.text,"xr",one_only,_ZN4core3ptr155drop_in_place$LT$tokio..runtime..task..core..Stage$LT$reach_server..serversend..send_data..$u7b$$u7b$closure$u7d$$u7d$..$u7b$$u7b$closure$u7d$$u7d$$GT$$GT$17he2782c07a9b637d0E

	.def	_ZN4core3ptr156drop_in_place$LT$alloc..sync..ArcInner$LT$tokio..sync..mutex..Mutex$LT$tokio..sync..mpsc..bounded..Sender$LT$reach_server..enums..C2SCommand$GT$$GT$$GT$$GT$17h88e2453295e9f331E;
	.scl	3;
	.type	32;
	.endef
	.section	.text,"xr",one_only,_ZN4core3ptr156drop_in_place$LT$alloc..sync..ArcInner$LT$tokio..sync..mutex..Mutex$LT$tokio..sync..mpsc..bounded..Sender$LT$reach_server..enums..C2SCommand$GT$$GT$$GT$$GT$17h88e2453295e9f331E
	.p2align	4, 0x90
_ZN4core3ptr156drop_in_place$LT$alloc..sync..ArcInner$LT$tokio..sync..mutex..Mutex$LT$tokio..sync..mpsc..bounded..Sender$LT$reach_server..enums..C2SCommand$GT$$GT$$GT$$GT$17h88e2453295e9f331E:
	jmp	_ZN4core3ptr94drop_in_place$LT$tokio..sync..mpsc..bounded..Sender$LT$reach_server..enums..C2SCommand$GT$$GT$17h91e852625970cddcE

	.def	_ZN4core3ptr156drop_in_place$LT$std..collections..hash..map..HashMap$LT$i64$C$alloc..sync..Arc$LT$tokio..sync..mutex..Mutex$LT$reach_server..client..Client$GT$$GT$$GT$$GT$17hd9a2c71cca660b0aE;
	.scl	3;
	.type	32;
	.endef
	.section	.text,"xr",one_only,_ZN4core3ptr156drop_in_place$LT$std..collections..hash..map..HashMap$LT$i64$C$alloc..sync..Arc$LT$tokio..sync..mutex..Mutex$LT$reach_server..client..Client$GT$$GT$$GT$$GT$17hd9a2c71cca660b0aE
	.p2align	4, 0x90
_ZN4core3ptr156drop_in_place$LT$std..collections..hash..map..HashMap$LT$i64$C$alloc..sync..Arc$LT$tokio..sync..mutex..Mutex$LT$reach_server..client..Client$GT$$GT$$GT$$GT$17hd9a2c71cca660b0aE:
.seh_proc _ZN4core3ptr156drop_in_place$LT$std..collections..hash..map..HashMap$LT$i64$C$alloc..sync..Arc$LT$tokio..sync..mutex..Mutex$LT$reach_server..client..Client$GT$$GT$$GT$$GT$17hd9a2c71cca660b0aE
	pushq	%r15
	.seh_pushreg %r15
	pushq	%r14
	.seh_pushreg %r14
	pushq	%rsi
	.seh_pushreg %rsi
	pushq	%rdi
	.seh_pushreg %rdi
	pushq	%rbp
	.seh_pushreg %rbp
	pushq	%rbx
	.seh_pushreg %rbx
	subq	$40, %rsp
	.seh_stackalloc 40
	.seh_endprologue
	movq	8(%rcx), %rsi
	testq	%rsi, %rsi
	je	.LBB77_10
	movq	%rcx, %rdi
	movq	24(%rcx), %rbx
	testq	%rbx, %rbx
	je	.LBB77_9
	movq	(%rdi), %r14
	movdqa	(%r14), %xmm0
	pmovmskb	%xmm0, %eax
	notl	%eax
	leaq	16(%r14), %r15
	jmp	.LBB77_3
	.p2align	4, 0x90
.LBB77_8:
	movl	%ebp, %eax
	testq	%rbx, %rbx
	je	.LBB77_9
.LBB77_3:
	testw	%ax, %ax
	jne	.LBB77_6
	.p2align	4, 0x90
.LBB77_4:
	movdqa	(%r15), %xmm0
	pmovmskb	%xmm0, %eax
	addq	$-256, %r14
	addq	$16, %r15
	cmpw	$-1, %ax
	je	.LBB77_4
	notl	%eax
.LBB77_6:
	leal	-1(%rax), %ebp
	andl	%eax, %ebp
	decq	%rbx
	rep		bsfl	%eax, %eax
	shlq	$4, %rax
	movq	%r14, %rcx
	subq	%rax, %rcx
	movq	-8(%rcx), %rcx
	lock		decq	(%rcx)
	jne	.LBB77_8
	#MEMBARRIER
	callq	_ZN5alloc4sync12Arc$LT$T$GT$9drop_slow17h1c40f6cc03dff007E
	jmp	.LBB77_8
.LBB77_9:
	movq	%rsi, %rax
	shlq	$4, %rax
	addq	%rax, %rsi
	addq	$33, %rsi
	je	.LBB77_10
	movq	(%rdi), %rcx
	subq	%rax, %rcx
	addq	$-16, %rcx
	movl	$16, %r8d
	movq	%rsi, %rdx
	addq	$40, %rsp
	popq	%rbx
	popq	%rbp
	popq	%rdi
	popq	%rsi
	popq	%r14
	popq	%r15
	jmp	__rust_dealloc
.LBB77_10:
	nop
	addq	$40, %rsp
	popq	%rbx
	popq	%rbp
	popq	%rdi
	popq	%rsi
	popq	%r14
	popq	%r15
	retq
	.seh_endproc

	.def	_ZN4core3ptr158drop_in_place$LT$alloc..sync..Arc$LT$tokio..sync..mutex..Mutex$LT$std..collections..hash..map..HashMap$LT$i64$C$reach_server..enums..C2SPacket$GT$$GT$$GT$$GT$17h085fd0c26140c898E;
	.scl	3;
	.type	32;
	.endef
	.section	.text,"xr",one_only,_ZN4core3ptr158drop_in_place$LT$alloc..sync..Arc$LT$tokio..sync..mutex..Mutex$LT$std..collections..hash..map..HashMap$LT$i64$C$reach_server..enums..C2SPacket$GT$$GT$$GT$$GT$17h085fd0c26140c898E
	.p2align	4, 0x90
_ZN4core3ptr158drop_in_place$LT$alloc..sync..Arc$LT$tokio..sync..mutex..Mutex$LT$std..collections..hash..map..HashMap$LT$i64$C$reach_server..enums..C2SPacket$GT$$GT$$GT$$GT$17h085fd0c26140c898E:
	lock		decq	(%rcx)
	jne	.LBB78_1
	#MEMBARRIER
	jmp	_ZN5alloc4sync12Arc$LT$T$GT$9drop_slow17hac02038de5e3a851E
.LBB78_1:
	retq

	.def	_ZN4core3ptr158drop_in_place$LT$alloc..sync..ArcInner$LT$tokio..sync..mpsc..chan..Chan$LT$reach_server..enums..C2SCommand$C$tokio..sync..mpsc..bounded..Semaphore$GT$$GT$$GT$17h79245df60e773174E;
	.scl	3;
	.type	32;
	.endef
	.section	.text,"xr",one_only,_ZN4core3ptr158drop_in_place$LT$alloc..sync..ArcInner$LT$tokio..sync..mpsc..chan..Chan$LT$reach_server..enums..C2SCommand$C$tokio..sync..mpsc..bounded..Semaphore$GT$$GT$$GT$17h79245df60e773174E
	.p2align	4, 0x90
_ZN4core3ptr158drop_in_place$LT$alloc..sync..ArcInner$LT$tokio..sync..mpsc..chan..Chan$LT$reach_server..enums..C2SCommand$C$tokio..sync..mpsc..bounded..Semaphore$GT$$GT$$GT$17h79245df60e773174E:
.Lfunc_begin31:
.seh_proc _ZN4core3ptr158drop_in_place$LT$alloc..sync..ArcInner$LT$tokio..sync..mpsc..chan..Chan$LT$reach_server..enums..C2SCommand$C$tokio..sync..mpsc..bounded..Semaphore$GT$$GT$$GT$17h79245df60e773174E
	.seh_handler __CxxFrameHandler3, @unwind, @except
	pushq	%rbp
	.seh_pushreg %rbp
	pushq	%rsi
	.seh_pushreg %rsi
	pushq	%rdi
	.seh_pushreg %rdi
	subq	$48, %rsp
	.seh_stackalloc 48
	leaq	48(%rsp), %rbp
	.seh_setframe %rbp, 48
	.seh_endprologue
	movq	$-2, -8(%rbp)
	leaq	128(%rcx), %rsi
	movq	%rcx, -16(%rbp)
	leaq	416(%rcx), %rdi
	.p2align	4, 0x90
.LBB79_1:
.Ltmp118:
	movq	%rdi, %rcx
	movq	%rsi, %rdx
	callq	_ZN5tokio4sync4mpsc4list11Rx$LT$T$GT$3pop17hce1283119163bd1bE
.Ltmp119:
	cmpb	$2, %al
	jb	.LBB79_1
	movq	-16(%rbp), %rdi
	movq	424(%rdi), %rcx
	.p2align	4, 0x90
.LBB79_4:
	movq	8(%rcx), %rsi
	movl	$64, %edx
	movl	$8, %r8d
	callq	__rust_dealloc
	movq	%rsi, %rcx
	testq	%rsi, %rsi
	jne	.LBB79_4
	movq	256(%rdi), %rax
	testq	%rax, %rax
	je	.LBB79_6
	movq	264(%rdi), %rcx
	addq	$48, %rsp
	popq	%rdi
	popq	%rsi
	popq	%rbp
	rex64 jmpq	*24(%rax)
.LBB79_6:
	nop
	addq	$48, %rsp
	popq	%rdi
	popq	%rsi
	popq	%rbp
	retq
	.seh_handlerdata
	.long	($cppxdata$_ZN4core3ptr158drop_in_place$LT$alloc..sync..ArcInner$LT$tokio..sync..mpsc..chan..Chan$LT$reach_server..enums..C2SCommand$C$tokio..sync..mpsc..bounded..Semaphore$GT$$GT$$GT$17h79245df60e773174E)@IMGREL
	.section	.text,"xr",one_only,_ZN4core3ptr158drop_in_place$LT$alloc..sync..ArcInner$LT$tokio..sync..mpsc..chan..Chan$LT$reach_server..enums..C2SCommand$C$tokio..sync..mpsc..bounded..Semaphore$GT$$GT$$GT$17h79245df60e773174E
	.seh_endproc
	.def	"?dtor$7@?0?_ZN4core3ptr158drop_in_place$LT$alloc..sync..ArcInner$LT$tokio..sync..mpsc..chan..Chan$LT$reach_server..enums..C2SCommand$C$tokio..sync..mpsc..bounded..Semaphore$GT$$GT$$GT$17h79245df60e773174E@4HA";
	.scl	3;
	.type	32;
	.endef
	.p2align	4, 0x90
"?dtor$7@?0?_ZN4core3ptr158drop_in_place$LT$alloc..sync..ArcInner$LT$tokio..sync..mpsc..chan..Chan$LT$reach_server..enums..C2SCommand$C$tokio..sync..mpsc..bounded..Semaphore$GT$$GT$$GT$17h79245df60e773174E@4HA":
.seh_proc "?dtor$7@?0?_ZN4core3ptr158drop_in_place$LT$alloc..sync..ArcInner$LT$tokio..sync..mpsc..chan..Chan$LT$reach_server..enums..C2SCommand$C$tokio..sync..mpsc..bounded..Semaphore$GT$$GT$$GT$17h79245df60e773174E@4HA"
.LBB79_7:
	movq	%rdx, 16(%rsp)
	pushq	%rbp
	.seh_pushreg %rbp
	pushq	%rsi
	.seh_pushreg %rsi
	pushq	%rdi
	.seh_pushreg %rdi
	subq	$32, %rsp
	.seh_stackalloc 32
	leaq	48(%rdx), %rbp
	.seh_endprologue
	movq	-16(%rbp), %rax
	movq	256(%rax), %rcx
	movq	264(%rax), %rdx
	callq	_ZN4core3ptr108drop_in_place$LT$tokio..util..cacheline..CachePadded$LT$tokio..sync..task..atomic_waker..AtomicWaker$GT$$GT$17h55872739accc4d3bE
	nop
	addq	$32, %rsp
	popq	%rdi
	popq	%rsi
	popq	%rbp
	retq
.Lfunc_end31:
	.seh_handlerdata
	.section	.text,"xr",one_only,_ZN4core3ptr158drop_in_place$LT$alloc..sync..ArcInner$LT$tokio..sync..mpsc..chan..Chan$LT$reach_server..enums..C2SCommand$C$tokio..sync..mpsc..bounded..Semaphore$GT$$GT$$GT$17h79245df60e773174E
	.seh_endproc
	.section	.xdata,"dr",associative,_ZN4core3ptr158drop_in_place$LT$alloc..sync..ArcInner$LT$tokio..sync..mpsc..chan..Chan$LT$reach_server..enums..C2SCommand$C$tokio..sync..mpsc..bounded..Semaphore$GT$$GT$$GT$17h79245df60e773174E
	.p2align	2, 0x0
$cppxdata$_ZN4core3ptr158drop_in_place$LT$alloc..sync..ArcInner$LT$tokio..sync..mpsc..chan..Chan$LT$reach_server..enums..C2SCommand$C$tokio..sync..mpsc..bounded..Semaphore$GT$$GT$$GT$17h79245df60e773174E:
	.long	429065506
	.long	1
	.long	($stateUnwindMap$_ZN4core3ptr158drop_in_place$LT$alloc..sync..ArcInner$LT$tokio..sync..mpsc..chan..Chan$LT$reach_server..enums..C2SCommand$C$tokio..sync..mpsc..bounded..Semaphore$GT$$GT$$GT$17h79245df60e773174E)@IMGREL
	.long	0
	.long	0
	.long	3
	.long	($ip2state$_ZN4core3ptr158drop_in_place$LT$alloc..sync..ArcInner$LT$tokio..sync..mpsc..chan..Chan$LT$reach_server..enums..C2SCommand$C$tokio..sync..mpsc..bounded..Semaphore$GT$$GT$$GT$17h79245df60e773174E)@IMGREL
	.long	40
	.long	0
	.long	1
$stateUnwindMap$_ZN4core3ptr158drop_in_place$LT$alloc..sync..ArcInner$LT$tokio..sync..mpsc..chan..Chan$LT$reach_server..enums..C2SCommand$C$tokio..sync..mpsc..bounded..Semaphore$GT$$GT$$GT$17h79245df60e773174E:
	.long	-1
	.long	"?dtor$7@?0?_ZN4core3ptr158drop_in_place$LT$alloc..sync..ArcInner$LT$tokio..sync..mpsc..chan..Chan$LT$reach_server..enums..C2SCommand$C$tokio..sync..mpsc..bounded..Semaphore$GT$$GT$$GT$17h79245df60e773174E@4HA"@IMGREL
$ip2state$_ZN4core3ptr158drop_in_place$LT$alloc..sync..ArcInner$LT$tokio..sync..mpsc..chan..Chan$LT$reach_server..enums..C2SCommand$C$tokio..sync..mpsc..bounded..Semaphore$GT$$GT$$GT$17h79245df60e773174E:
	.long	.Lfunc_begin31@IMGREL
	.long	-1
	.long	.Ltmp118@IMGREL+1
	.long	0
	.long	.Ltmp119@IMGREL+1
	.long	-1
	.section	.text,"xr",one_only,_ZN4core3ptr158drop_in_place$LT$alloc..sync..ArcInner$LT$tokio..sync..mpsc..chan..Chan$LT$reach_server..enums..C2SCommand$C$tokio..sync..mpsc..bounded..Semaphore$GT$$GT$$GT$17h79245df60e773174E

	.def	_ZN4core3ptr158drop_in_place$LT$alloc..sync..ArcInner$LT$tokio..sync..mpsc..chan..Chan$LT$reach_server..enums..S2CCommand$C$tokio..sync..mpsc..bounded..Semaphore$GT$$GT$$GT$17he792cd3805ab45c5E;
	.scl	3;
	.type	32;
	.endef
	.section	.text,"xr",one_only,_ZN4core3ptr158drop_in_place$LT$alloc..sync..ArcInner$LT$tokio..sync..mpsc..chan..Chan$LT$reach_server..enums..S2CCommand$C$tokio..sync..mpsc..bounded..Semaphore$GT$$GT$$GT$17he792cd3805ab45c5E
	.p2align	4, 0x90
_ZN4core3ptr158drop_in_place$LT$alloc..sync..ArcInner$LT$tokio..sync..mpsc..chan..Chan$LT$reach_server..enums..S2CCommand$C$tokio..sync..mpsc..bounded..Semaphore$GT$$GT$$GT$17he792cd3805ab45c5E:
	subq	$-128, %rcx
	jmp	_ZN4core3ptr129drop_in_place$LT$tokio..sync..mpsc..chan..Chan$LT$reach_server..enums..S2CCommand$C$tokio..sync..mpsc..bounded..Semaphore$GT$$GT$17h4960c583d88912b7E

	.def	_ZN4core3ptr158drop_in_place$LT$alloc..sync..ArcInner$LT$tokio..sync..mutex..Mutex$LT$tokio..sync..mpsc..bounded..Receiver$LT$reach_server..enums..C2SCommand$GT$$GT$$GT$$GT$17hce804a8ab0f4fb02E;
	.scl	3;
	.type	32;
	.endef
	.section	.text,"xr",one_only,_ZN4core3ptr158drop_in_place$LT$alloc..sync..ArcInner$LT$tokio..sync..mutex..Mutex$LT$tokio..sync..mpsc..bounded..Receiver$LT$reach_server..enums..C2SCommand$GT$$GT$$GT$$GT$17hce804a8ab0f4fb02E
	.p2align	4, 0x90
_ZN4core3ptr158drop_in_place$LT$alloc..sync..ArcInner$LT$tokio..sync..mutex..Mutex$LT$tokio..sync..mpsc..bounded..Receiver$LT$reach_server..enums..C2SCommand$GT$$GT$$GT$$GT$17hce804a8ab0f4fb02E:
	jmp	_ZN4core3ptr96drop_in_place$LT$tokio..sync..mpsc..bounded..Receiver$LT$reach_server..enums..C2SCommand$GT$$GT$17h6ec27d16e1660634E

	.def	_ZN4core3ptr158drop_in_place$LT$alloc..sync..ArcInner$LT$tokio..sync..mutex..Mutex$LT$tokio..sync..mpsc..bounded..Receiver$LT$reach_server..enums..S2CCommand$GT$$GT$$GT$$GT$17h7abaca0462d1e06fE;
	.scl	3;
	.type	32;
	.endef
	.section	.text,"xr",one_only,_ZN4core3ptr158drop_in_place$LT$alloc..sync..ArcInner$LT$tokio..sync..mutex..Mutex$LT$tokio..sync..mpsc..bounded..Receiver$LT$reach_server..enums..S2CCommand$GT$$GT$$GT$$GT$17h7abaca0462d1e06fE
	.p2align	4, 0x90
_ZN4core3ptr158drop_in_place$LT$alloc..sync..ArcInner$LT$tokio..sync..mutex..Mutex$LT$tokio..sync..mpsc..bounded..Receiver$LT$reach_server..enums..S2CCommand$GT$$GT$$GT$$GT$17h7abaca0462d1e06fE:
	jmp	_ZN4core3ptr96drop_in_place$LT$tokio..sync..mpsc..bounded..Receiver$LT$reach_server..enums..S2CCommand$GT$$GT$17he33fbf4c41f76504E

	.def	_ZN4core3ptr161drop_in_place$LT$tokio..runtime..scheduler..multi_thread..queue..Local$LT$alloc..sync..Arc$LT$tokio..runtime..scheduler..multi_thread..handle..Handle$GT$$GT$$GT$17hc4b1de09f2dafcacE;
	.scl	3;
	.type	32;
	.endef
	.section	.text,"xr",one_only,_ZN4core3ptr161drop_in_place$LT$tokio..runtime..scheduler..multi_thread..queue..Local$LT$alloc..sync..Arc$LT$tokio..runtime..scheduler..multi_thread..handle..Handle$GT$$GT$$GT$17hc4b1de09f2dafcacE
	.p2align	4, 0x90
_ZN4core3ptr161drop_in_place$LT$tokio..runtime..scheduler..multi_thread..queue..Local$LT$alloc..sync..Arc$LT$tokio..runtime..scheduler..multi_thread..handle..Handle$GT$$GT$$GT$17hc4b1de09f2dafcacE:
.Lfunc_begin32:
.seh_proc _ZN4core3ptr161drop_in_place$LT$tokio..runtime..scheduler..multi_thread..queue..Local$LT$alloc..sync..Arc$LT$tokio..runtime..scheduler..multi_thread..handle..Handle$GT$$GT$$GT$17hc4b1de09f2dafcacE
	.seh_handler __CxxFrameHandler3, @unwind, @except
	pushq	%rbp
	.seh_pushreg %rbp
	pushq	%r15
	.seh_pushreg %r15
	pushq	%r14
	.seh_pushreg %r14
	pushq	%rsi
	.seh_pushreg %rsi
	pushq	%rdi
	.seh_pushreg %rdi
	pushq	%rbx
	.seh_pushreg %rbx
	subq	$120, %rsp
	.seh_stackalloc 120
	leaq	112(%rsp), %rbp
	.seh_setframe %rbp, 112
	.seh_endprologue
	movq	$-2, (%rbp)
	movq	__imp__ZN3std9panicking11panic_count18GLOBAL_PANIC_COUNT17h2e6c99a954ffef40E(%rip), %rax
	movq	(%rax), %rax
	shlq	$1, %rax
	testq	%rax, %rax
	movq	%rcx, -16(%rbp)
	je	.LBB83_3
.Ltmp120:
	callq	_ZN3std9panicking11panic_count17is_zero_slow_path17hbc96e047d8386f0eE
.Ltmp121:
	testb	%al, %al
	movq	-16(%rbp), %rcx
	je	.LBB83_15
.LBB83_3:
	movq	(%rcx), %r15
	movq	24(%r15), %rsi
.Ltmp122:
	movq	%rsi, %rcx
	callq	_ZN5tokio7runtime9scheduler12multi_thread5queue6unpack17h3b9b198ddaf10478E
.Ltmp123:
	movl	%eax, %r14d
	movl	%edx, %ebx
	movl	%eax, -4(%rbp)
	leaq	32(%r15), %rdi
.Ltmp124:
	movq	%rdi, %rcx
	callq	_ZN5tokio4loom3std10atomic_u329AtomicU3211unsync_load17h281f0ae35d653212E
.Ltmp125:
	.p2align	4, 0x90
.LBB83_5:
	cmpl	%eax, %ebx
	je	.LBB83_14
	leal	1(%rbx), %edx
	movl	%edx, -20(%rbp)
	movl	%edx, %ecx
	cmpl	%ebx, %r14d
	je	.LBB83_10
	movl	%r14d, %ecx
	cmpl	%edx, %r14d
	je	.LBB83_8
.LBB83_10:
.Ltmp128:
	callq	_ZN5tokio7runtime9scheduler12multi_thread5queue4pack17hc660c40c0b14a9f8E
.Ltmp129:
	movq	%rax, %rcx
	movq	%rsi, %rax
	lock		cmpxchgq	%rcx, 24(%r15)
	je	.LBB83_17
.Ltmp130:
	movq	%rax, %rsi
	movq	%rax, %rcx
	callq	_ZN5tokio7runtime9scheduler12multi_thread5queue6unpack17h3b9b198ddaf10478E
.Ltmp131:
	movl	%eax, %r14d
	movl	%edx, %ebx
	movl	%eax, -4(%rbp)
.Ltmp132:
	movq	%rdi, %rcx
	callq	_ZN5tokio4loom3std10atomic_u329AtomicU3211unsync_load17h281f0ae35d653212E
.Ltmp133:
	jmp	.LBB83_5
.LBB83_17:
	movzbl	%bl, %eax
	movq	16(%r15), %rcx
	movq	(%rcx,%rax,8), %rax
	movq	%rax, -32(%rbp)
	testq	%rax, %rax
	jne	.LBB83_18
.LBB83_14:
	movq	-16(%rbp), %rcx
.LBB83_15:
	movq	(%rcx), %rcx
	lock		decq	(%rcx)
	jne	.LBB83_24
	#MEMBARRIER
	addq	$120, %rsp
	popq	%rbx
	popq	%rdi
	popq	%rsi
	popq	%r14
	popq	%r15
	popq	%rbp
	jmp	_ZN5alloc4sync12Arc$LT$T$GT$9drop_slow17hc57ba2cda3bdd591E
.LBB83_24:
	nop
	addq	$120, %rsp
	popq	%rbx
	popq	%rdi
	popq	%rsi
	popq	%r14
	popq	%r15
	popq	%rbp
	retq
.LBB83_8:
	movq	$0, -80(%rbp)
.Ltmp126:
	leaq	-4(%rbp), %rcx
	leaq	-20(%rbp), %rdx
	leaq	-80(%rbp), %r8
	callq	_ZN4core9panicking13assert_failed17hfeecb66f931a1198E
.Ltmp127:
	jmp	.LBB83_9
.LBB83_18:
.Ltmp134:
	leaq	-32(%rbp), %rcx
	callq	_ZN5tokio7runtime4task3raw7RawTask6header17h22c6b28ac0f1082bE
.Ltmp135:
.Ltmp136:
	movq	%rax, %rcx
	callq	_ZN5tokio7runtime4task5state5State7ref_dec17hcd7c6c622f96436bE
.Ltmp137:
	testb	%al, %al
	je	.LBB83_22
	movq	-32(%rbp), %rcx
.Ltmp138:
	callq	_ZN5tokio7runtime4task3raw7RawTask7dealloc17h062592b40b38512fE
.Ltmp139:
.LBB83_22:
	leaq	__unnamed_13(%rip), %rax
	movq	%rax, -80(%rbp)
	movq	$1, -72(%rbp)
	leaq	__unnamed_11(%rip), %rax
	movq	%rax, -64(%rbp)
	xorps	%xmm0, %xmm0
	movups	%xmm0, -56(%rbp)
.Ltmp140:
	leaq	__unnamed_14(%rip), %rdx
	leaq	-80(%rbp), %rcx
	callq	_ZN4core9panicking9panic_fmt17hab6278d82627a88aE
.Ltmp141:
.LBB83_9:
	ud2
	.seh_handlerdata
	.long	($cppxdata$_ZN4core3ptr161drop_in_place$LT$tokio..runtime..scheduler..multi_thread..queue..Local$LT$alloc..sync..Arc$LT$tokio..runtime..scheduler..multi_thread..handle..Handle$GT$$GT$$GT$17hc4b1de09f2dafcacE)@IMGREL
	.section	.text,"xr",one_only,_ZN4core3ptr161drop_in_place$LT$tokio..runtime..scheduler..multi_thread..queue..Local$LT$alloc..sync..Arc$LT$tokio..runtime..scheduler..multi_thread..handle..Handle$GT$$GT$$GT$17hc4b1de09f2dafcacE
	.seh_endproc
	.def	"?dtor$23@?0?_ZN4core3ptr161drop_in_place$LT$tokio..runtime..scheduler..multi_thread..queue..Local$LT$alloc..sync..Arc$LT$tokio..runtime..scheduler..multi_thread..handle..Handle$GT$$GT$$GT$17hc4b1de09f2dafcacE@4HA";
	.scl	3;
	.type	32;
	.endef
	.p2align	4, 0x90
"?dtor$23@?0?_ZN4core3ptr161drop_in_place$LT$tokio..runtime..scheduler..multi_thread..queue..Local$LT$alloc..sync..Arc$LT$tokio..runtime..scheduler..multi_thread..handle..Handle$GT$$GT$$GT$17hc4b1de09f2dafcacE@4HA":
.seh_proc "?dtor$23@?0?_ZN4core3ptr161drop_in_place$LT$tokio..runtime..scheduler..multi_thread..queue..Local$LT$alloc..sync..Arc$LT$tokio..runtime..scheduler..multi_thread..handle..Handle$GT$$GT$$GT$17hc4b1de09f2dafcacE@4HA"
.LBB83_23:
	movq	%rdx, 16(%rsp)
	pushq	%rbp
	.seh_pushreg %rbp
	pushq	%r15
	.seh_pushreg %r15
	pushq	%r14
	.seh_pushreg %r14
	pushq	%rsi
	.seh_pushreg %rsi
	pushq	%rdi
	.seh_pushreg %rdi
	pushq	%rbx
	.seh_pushreg %rbx
	subq	$40, %rsp
	.seh_stackalloc 40
	leaq	112(%rdx), %rbp
	.seh_endprologue
	movq	-16(%rbp), %rax
	movq	(%rax), %rcx
	callq	_ZN4core3ptr185drop_in_place$LT$alloc..sync..Arc$LT$tokio..runtime..scheduler..multi_thread..queue..Inner$LT$alloc..sync..Arc$LT$tokio..runtime..scheduler..multi_thread..handle..Handle$GT$$GT$$GT$$GT$17h87b473a0c625fa11E
	nop
	addq	$40, %rsp
	popq	%rbx
	popq	%rdi
	popq	%rsi
	popq	%r14
	popq	%r15
	popq	%rbp
	retq
.Lfunc_end32:
	.seh_handlerdata
